###############################################################################
#                                                                             #
# IAR C/C++ Compiler V8.10.3.10338/W32 for 8051         04/May/2014  11:26:24 #
# Copyright 2004-2011 IAR Systems AB.                                         #
#                                                                             #
#    Core               =  plain                                              #
#    Code model         =  banked                                             #
#    Data model         =  large                                              #
#    Calling convention =  xdata reentrant                                    #
#    Constant location  =  data_rom                                           #
#    Dptr setup         =  1,16                                               #
#    Source file        =  H:\zigbeesrc\8.ÎÞÏß´«¸ÐÆ÷ÍøÂç£¨×Ô×éÍøÓëÊý¾Ý´«Êä£©\ #
#                          Components\stack\zdo\ZDProfile.c                   #
#    Command line       =  -f H:\zigbeesrc\8.ÎÞÏß´«¸ÐÆ÷ÍøÂç£¨×Ô×éÍøÓëÊý¾Ý´«Êä #
#                          £©\Projects\zstack\Samples\ÎÞÏß´«¸ÐÆ÷ÍøÂç£¨×Ô×éÍø£ #
#                          ©\CC2530DB\..\..\..\Tools\CC2530DB\f8wEndev.cfg    #
#                          (-DCPU32MHZ -DROOT=__near_func -DBLINK_LEDS) -f    #
#                          H:\zigbeesrc\8.ÎÞÏß´«¸ÐÆ÷ÍøÂç£¨×Ô×éÍøÓëÊý¾Ý´«Êä£©\ #
#                          Projects\zstack\Samples\ÎÞÏß´«¸ÐÆ÷ÍøÂç£¨×Ô×éÍø£©\C #
#                          C2530DB\..\..\..\Tools\CC2530DB\f8wConfig.cfg      #
#                          (-DSECURE=0 -DZG_SECURE_DYNAMIC=0 -DREFLECTOR      #
#                          -DDEFAULT_CHANLIST=0x00000800                      #
#                          -DZDAPP_CONFIG_PAN_ID=0xFFF0                       #
#                          -DNWK_START_DELAY=100 -DEXTENDED_JOINING_RANDOM_MA #
#                          SK=0x007F -DBEACON_REQUEST_DELAY=100               #
#                          -DBEACON_REQ_DELAY_MASK=0x00FF                     #
#                          -DROUTE_EXPIRY_TIME=30 -DAPSC_ACK_WAIT_DURATION_PO #
#                          LLED=3000 -DNWK_INDIRECT_MSG_TIMEOUT=7             #
#                          -DMAX_RREQ_ENTRIES=8 -DAPSC_MAX_FRAME_RETRIES=3    #
#                          -DNWK_MAX_DATA_RETRIES=2                           #
#                          -DMAX_POLL_FAILURE_RETRIES=2 -DMAX_BCAST=9         #
#                          -DAPS_MAX_GROUPS=16 -DMAX_RTG_ENTRIES=40           #
#                          -DNWK_MAX_BINDING_ENTRIES=4                        #
#                          -DMAX_BINDING_CLUSTER_IDS=4 "-DDEFAULT_KEY={0x01,  #
#                          0x03, 0x05, 0x07, 0x09, 0x0B, 0x0D, 0x0F, 0x00,    #
#                          0x02, 0x04, 0x06, 0x08, 0x0A, 0x0C, 0x0D}"         #
#                          -DMAC_MAX_FRAME_SIZE=116 "-DCONST=const __code"    #
#                          -DGENERIC=__generic -DRFD_RCVC_ALWAYS_ON=FALSE     #
#                          -DPOLL_RATE=1000 -DQUEUED_POLL_RATE=100            #
#                          -DRESPONSE_POLL_RATE=100) -DREJOIN_POLL_RATE=440   #
#                          H:\zigbeesrc\8.ÎÞÏß´«¸ÐÆ÷ÍøÂç£¨×Ô×éÍøÓëÊý¾Ý´«Êä£©\ #
#                          Components\stack\zdo\ZDProfile.c -D ZIGBEEPRO -D   #
#                          NWK_AUTO_POLL -D ZTOOL_P1 -D MT_TASK -D            #
#                          MT_SYS_FUNC -D MT_ZDO_FUNC -D LCD_SUPPORTED=DEBUG  #
#                          -lC H:\zigbeesrc\8.ÎÞÏß´«¸ÐÆ÷ÍøÂç£¨×Ô×éÍøÓëÊý¾Ý´«Ê #
#                          ä£©\Projects\zstack\Samples\ÎÞÏß´«¸ÐÆ÷ÍøÂç£¨×Ô×éÍø #
#                          £©\CC2530DB\EndDeviceEB-Pro\List\ -lA              #
#                          H:\zigbeesrc\8.ÎÞÏß´«¸ÐÆ÷ÍøÂç£¨×Ô×éÍøÓëÊý¾Ý´«Êä£©\ #
#                          Projects\zstack\Samples\ÎÞÏß´«¸ÐÆ÷ÍøÂç£¨×Ô×éÍø£©\C #
#                          C2530DB\EndDeviceEB-Pro\List\ --diag_suppress      #
#                          Pe001,Pa010 -o H:\zigbeesrc\8.ÎÞÏß´«¸ÐÆ÷ÍøÂç£¨×Ô×é #
#                          ÍøÓëÊý¾Ý´«Êä£©\Projects\zstack\Samples\ÎÞÏß´«¸ÐÆ÷Í #
#                          øÂç£¨×Ô×éÍø£©\CC2530DB\EndDeviceEB-Pro\Obj\ -e     #
#                          --debug --core=plain --dptr=16,1                   #
#                          --data_model=large --code_model=banked             #
#                          --calling_convention=xdata_reentrant               #
#                          --place_constants=data_rom --nr_virtual_regs 16    #
#                          -I H:\zigbeesrc\8.ÎÞÏß´«¸ÐÆ÷ÍøÂç£¨×Ô×éÍøÓëÊý¾Ý´«Êä #
#                          £©\Projects\zstack\Samples\ÎÞÏß´«¸ÐÆ÷ÍøÂç£¨×Ô×éÍø£ #
#                          ©\CC2530DB\ -I H:\zigbeesrc\8.ÎÞÏß´«¸ÐÆ÷ÍøÂç£¨×Ô×é #
#                          ÍøÓëÊý¾Ý´«Êä£©\Projects\zstack\Samples\ÎÞÏß´«¸ÐÆ÷Í #
#                          øÂç£¨×Ô×éÍø£©\CC2530DB\..\SOURCE\ -I               #
#                          H:\zigbeesrc\8.ÎÞÏß´«¸ÐÆ÷ÍøÂç£¨×Ô×éÍøÓëÊý¾Ý´«Êä£©\ #
#                          Projects\zstack\Samples\ÎÞÏß´«¸ÐÆ÷ÍøÂç£¨×Ô×éÍø£©\C #
#                          C2530DB\..\..\..\ZMAIN\TI2530DB\ -I                #
#                          H:\zigbeesrc\8.ÎÞÏß´«¸ÐÆ÷ÍøÂç£¨×Ô×éÍøÓëÊý¾Ý´«Êä£©\ #
#                          Projects\zstack\Samples\ÎÞÏß´«¸ÐÆ÷ÍøÂç£¨×Ô×éÍø£©\C #
#                          C2530DB\..\..\..\..\..\COMPONENTS\MT\ -I           #
#                          H:\zigbeesrc\8.ÎÞÏß´«¸ÐÆ÷ÍøÂç£¨×Ô×éÍøÓëÊý¾Ý´«Êä£©\ #
#                          Projects\zstack\Samples\ÎÞÏß´«¸ÐÆ÷ÍøÂç£¨×Ô×éÍø£©\C #
#                          C2530DB\..\..\..\..\..\COMPONENTS\HAL\INCLUDE\ -I  #
#                          H:\zigbeesrc\8.ÎÞÏß´«¸ÐÆ÷ÍøÂç£¨×Ô×éÍøÓëÊý¾Ý´«Êä£©\ #
#                          Projects\zstack\Samples\ÎÞÏß´«¸ÐÆ÷ÍøÂç£¨×Ô×éÍø£©\C #
#                          C2530DB\..\..\..\..\..\COMPONENTS\HAL\TARGET\CC253 #
#                          0EB\ -I H:\zigbeesrc\8.ÎÞÏß´«¸ÐÆ÷ÍøÂç£¨×Ô×éÍøÓëÊý¾ #
#                          Ý´«Êä£©\Projects\zstack\Samples\ÎÞÏß´«¸ÐÆ÷ÍøÂç£¨×Ô #
#                          ×éÍø£©\CC2530DB\..\..\..\..\..\COMPONENTS\OSAL\MCU #
#                          \CCSOC\ -I H:\zigbeesrc\8.ÎÞÏß´«¸ÐÆ÷ÍøÂç£¨×Ô×éÍøÓë #
#                          Êý¾Ý´«Êä£©\Projects\zstack\Samples\ÎÞÏß´«¸ÐÆ÷ÍøÂç£ #
#                          ¨×Ô×éÍø£©\CC2530DB\..\..\..\..\..\COMPONENTS\OSAL\ #
#                          INCLUDE\ -I H:\zigbeesrc\8.ÎÞÏß´«¸ÐÆ÷ÍøÂç£¨×Ô×éÍøÓ #
#                          ëÊý¾Ý´«Êä£©\Projects\zstack\Samples\ÎÞÏß´«¸ÐÆ÷ÍøÂç #
#                          £¨×Ô×éÍø£©\CC2530DB\..\..\..\..\..\COMPONENTS\STAC #
#                          K\AF\ -I H:\zigbeesrc\8.ÎÞÏß´«¸ÐÆ÷ÍøÂç£¨×Ô×éÍøÓëÊý #
#                          ¾Ý´«Êä£©\Projects\zstack\Samples\ÎÞÏß´«¸ÐÆ÷ÍøÂç£¨× #
#                          Ô×éÍø£©\CC2530DB\..\..\..\..\..\COMPONENTS\STACK\N #
#                          WK\ -I H:\zigbeesrc\8.ÎÞÏß´«¸ÐÆ÷ÍøÂç£¨×Ô×éÍøÓëÊý¾Ý #
#                          ´«Êä£©\Projects\zstack\Samples\ÎÞÏß´«¸ÐÆ÷ÍøÂç£¨×Ô× #
#                          éÍø£©\CC2530DB\..\..\..\..\..\COMPONENTS\STACK\SEC #
#                          \ -I H:\zigbeesrc\8.ÎÞÏß´«¸ÐÆ÷ÍøÂç£¨×Ô×éÍøÓëÊý¾Ý´« #
#                          Êä£©\Projects\zstack\Samples\ÎÞÏß´«¸ÐÆ÷ÍøÂç£¨×Ô×éÍ #
#                          ø£©\CC2530DB\..\..\..\..\..\COMPONENTS\STACK\SAPI\ #
#                           -I H:\zigbeesrc\8.ÎÞÏß´«¸ÐÆ÷ÍøÂç£¨×Ô×éÍøÓëÊý¾Ý´«Ê #
#                          ä£©\Projects\zstack\Samples\ÎÞÏß´«¸ÐÆ÷ÍøÂç£¨×Ô×éÍø #
#                          £©\CC2530DB\..\..\..\..\..\COMPONENTS\STACK\SYS\   #
#                          -I H:\zigbeesrc\8.ÎÞÏß´«¸ÐÆ÷ÍøÂç£¨×Ô×éÍøÓëÊý¾Ý´«Êä #
#                          £©\Projects\zstack\Samples\ÎÞÏß´«¸ÐÆ÷ÍøÂç£¨×Ô×éÍø£ #
#                          ©\CC2530DB\..\..\..\..\..\COMPONENTS\STACK\ZDO\    #
#                          -I H:\zigbeesrc\8.ÎÞÏß´«¸ÐÆ÷ÍøÂç£¨×Ô×éÍøÓëÊý¾Ý´«Êä #
#                          £©\Projects\zstack\Samples\ÎÞÏß´«¸ÐÆ÷ÍøÂç£¨×Ô×éÍø£ #
#                          ©\CC2530DB\..\..\..\..\..\COMPONENTS\ZMAC\F8W\ -I  #
#                          H:\zigbeesrc\8.ÎÞÏß´«¸ÐÆ÷ÍøÂç£¨×Ô×éÍøÓëÊý¾Ý´«Êä£©\ #
#                          Projects\zstack\Samples\ÎÞÏß´«¸ÐÆ÷ÍøÂç£¨×Ô×éÍø£©\C #
#                          C2530DB\..\..\..\..\..\COMPONENTS\ZMAC\ -I         #
#                          H:\zigbeesrc\8.ÎÞÏß´«¸ÐÆ÷ÍøÂç£¨×Ô×éÍøÓëÊý¾Ý´«Êä£©\ #
#                          Projects\zstack\Samples\ÎÞÏß´«¸ÐÆ÷ÍøÂç£¨×Ô×éÍø£©\C #
#                          C2530DB\..\..\..\..\..\COMPONENTS\SERVICES\SADDR\  #
#                          -I H:\zigbeesrc\8.ÎÞÏß´«¸ÐÆ÷ÍøÂç£¨×Ô×éÍøÓëÊý¾Ý´«Êä #
#                          £©\Projects\zstack\Samples\ÎÞÏß´«¸ÐÆ÷ÍøÂç£¨×Ô×éÍø£ #
#                          ©\CC2530DB\..\..\..\..\..\COMPONENTS\SERVICES\SDAT #
#                          A\ -I H:\zigbeesrc\8.ÎÞÏß´«¸ÐÆ÷ÍøÂç£¨×Ô×éÍøÓëÊý¾Ý´ #
#                          «Êä£©\Projects\zstack\Samples\ÎÞÏß´«¸ÐÆ÷ÍøÂç£¨×Ô×é #
#                          Íø£©\CC2530DB\..\..\..\..\..\COMPONENTS\MAC\INCLUD #
#                          E\ -I H:\zigbeesrc\8.ÎÞÏß´«¸ÐÆ÷ÍøÂç£¨×Ô×éÍøÓëÊý¾Ý´ #
#                          «Êä£©\Projects\zstack\Samples\ÎÞÏß´«¸ÐÆ÷ÍøÂç£¨×Ô×é #
#                          Íø£©\CC2530DB\..\..\..\..\..\COMPONENTS\MAC\HIGH_L #
#                          EVEL\ -I H:\zigbeesrc\8.ÎÞÏß´«¸ÐÆ÷ÍøÂç£¨×Ô×éÍøÓëÊý #
#                          ¾Ý´«Êä£©\Projects\zstack\Samples\ÎÞÏß´«¸ÐÆ÷ÍøÂç£¨× #
#                          Ô×éÍø£©\CC2530DB\..\..\..\..\..\COMPONENTS\MAC\LOW #
#                          _LEVEL\srf04\ -I H:\zigbeesrc\8.ÎÞÏß´«¸ÐÆ÷ÍøÂç£¨×Ô #
#                          ×éÍøÓëÊý¾Ý´«Êä£©\Projects\zstack\Samples\ÎÞÏß´«¸ÐÆ #
#                          ÷ÍøÂç£¨×Ô×éÍø£©\CC2530DB\..\..\..\..\..\COMPONENTS #
#                          \MAC\LOW_LEVEL\srf04\SINGLE_CHIP\ -Ohz             #
#    List file          =  H:\zigbeesrc\8.ÎÞÏß´«¸ÐÆ÷ÍøÂç£¨×Ô×éÍøÓëÊý¾Ý´«Êä£©\ #
#                          Projects\zstack\Samples\ÎÞÏß´«¸ÐÆ÷ÍøÂç£¨×Ô×éÍø£©\C #
#                          C2530DB\EndDeviceEB-Pro\List\ZDProfile.lst         #
#    Object file        =  H:\zigbeesrc\8.ÎÞÏß´«¸ÐÆ÷ÍøÂç£¨×Ô×éÍøÓëÊý¾Ý´«Êä£©\ #
#                          Projects\zstack\Samples\ÎÞÏß´«¸ÐÆ÷ÍøÂç£¨×Ô×éÍø£©\C #
#                          C2530DB\EndDeviceEB-Pro\Obj\ZDProfile.r51          #
#                                                                             #
#                                                                             #
###############################################################################

H:\zigbeesrc\8.ÎÞÏß´«¸ÐÆ÷ÍøÂç£¨×Ô×éÍøÓëÊý¾Ý´«Êä£©\Components\stack\zdo\ZDProfile.c
      1          /**************************************************************************************************
      2            Filename:       ZDProfile.c
      3            Revised:        $Date: 2010-01-17 08:58:03 -0800 (Sun, 17 Jan 2010) $
      4            Revision:       $Revision: 21533 $
      5          
      6            Description:    This is the Zigbee Device Profile.
      7          
      8          
      9            Copyright 2004-2009 Texas Instruments Incorporated. All rights reserved.
     10          
     11            IMPORTANT: Your use of this Software is limited to those specific rights
     12            granted under the terms of a software license agreement between the user
     13            who downloaded the software, his/her employer (which must be your employer)
     14            and Texas Instruments Incorporated (the "License").  You may not use this
     15            Software unless you agree to abide by the terms of the License. The License
     16            limits your use, and you acknowledge, that the Software may not be modified,
     17            copied or distributed unless embedded on a Texas Instruments microcontroller
     18            or used solely and exclusively in conjunction with a Texas Instruments radio
     19            frequency transceiver, which is integrated into your product.  Other than for
     20            the foregoing purpose, you may not use, reproduce, copy, prepare derivative
     21            works of, modify, distribute, perform, display or sell this Software and/or
     22            its documentation for any purpose.
     23          
     24            YOU FURTHER ACKNOWLEDGE AND AGREE THAT THE SOFTWARE AND DOCUMENTATION ARE
     25            PROVIDED “AS IS” WITHOUT WARRANTY OF ANY KIND, EITHER EXPRESS OR IMPLIED,
     26            INCLUDING WITHOUT LIMITATION, ANY WARRANTY OF MERCHANTABILITY, TITLE,
     27            NON-INFRINGEMENT AND FITNESS FOR A PARTICULAR PURPOSE. IN NO EVENT SHALL
     28            TEXAS INSTRUMENTS OR ITS LICENSORS BE LIABLE OR OBLIGATED UNDER CONTRACT,
     29            NEGLIGENCE, STRICT LIABILITY, CONTRIBUTION, BREACH OF WARRANTY, OR OTHER
     30            LEGAL EQUITABLE THEORY ANY DIRECT OR INDIRECT DAMAGES OR EXPENSES
     31            INCLUDING BUT NOT LIMITED TO ANY INCIDENTAL, SPECIAL, INDIRECT, PUNITIVE
     32            OR CONSEQUENTIAL DAMAGES, LOST PROFITS OR LOST DATA, COST OF PROCUREMENT
     33            OF SUBSTITUTE GOODS, TECHNOLOGY, SERVICES, OR ANY CLAIMS BY THIRD PARTIES
     34            (INCLUDING BUT NOT LIMITED TO ANY DEFENSE THEREOF), OR OTHER SIMILAR COSTS.
     35          
     36            Should you have any questions regarding your right to use this Software,
     37            contact Texas Instruments Incorporated at www.TI.com.
     38          **************************************************************************************************/
     39          
     40          /*********************************************************************
     41           * INCLUDES
     42           */
     43          #include "ZComdef.h"
     44          #include "OSAL.h"
     45          #include "AF.h"
     46          #include "NLMEDE.h"
     47          #include "nwk_util.h"
     48          #include "APS.h"
     49          
     50          #include "AddrMgr.h"
     51          #include "ZDConfig.h"
     52          #include "ZDProfile.h"
     53          #include "ZDObject.h"
     54          #include "ZDNwkMgr.h"
     55          
     56          #if defined( LCD_SUPPORTED )
     57            #include "OnBoard.h"
     58          #endif
     59          
     60          #include "nwk_util.h"
     61          
     62          #if defined( MT_ZDO_FUNC )
     63            #include "MT_ZDO.h"
     64          #endif
     65          
     66          /*********************************************************************
     67           * MACROS
     68           */
     69          
     70          #define ZADDR_TO_AFADDR( pZADDR, AFADDR ) {                            \
     71            (AFADDR).endPoint = ZDP_AF_ENDPOINT;                                 \
     72            (AFADDR).addrMode = (afAddrMode_t)(pZADDR)->addrMode;                \
     73            (AFADDR).addr.shortAddr = (pZADDR)->addr.shortAddr;                  \
     74          }
     75          
     76          #define FillAndSendBuffer( TRANSSEQ, ADDR, ID, LEN, BUF ) {     \
     77            afStatus_t stat;                                    \
     78            ZDP_TmpBuf = (BUF)+1;                               \
     79            stat = fillAndSend( (TRANSSEQ), (ADDR), (ID), (LEN) );          \
     80            osal_mem_free( (BUF) );                             \
     81            ZDP_TmpBuf = ZDP_Buf+1;                             \
     82            return stat;                                        \
     83          }
     84          
     85          #define FillAndSendTxOptions( TRANSSEQ, ADDR, ID, LEN, TxO ) {  \
     86            afStatus_t stat;                                    \
     87            ZDP_TxOptions = (TxO);                              \
     88            stat = fillAndSend( (TRANSSEQ), (ADDR), (ID), (LEN) );          \
     89            ZDP_TxOptions = AF_TX_OPTIONS_NONE;                 \
     90            return stat;                                        \
     91          }
     92          
     93          #define FillAndSendBufferTxOptions( TRANSSEQ, ADDR, ID, LEN, BUF, TxO ) { \
     94            afStatus_t stat;                                    \
     95            ZDP_TmpBuf = (BUF)+1;                               \
     96            ZDP_TxOptions = (TxO);                              \
     97            stat = fillAndSend( (TRANSSEQ), (ADDR), (ID), (LEN) );          \
     98            osal_mem_free( (BUF) );                             \
     99            ZDP_TmpBuf = ZDP_Buf+1;                             \
    100            ZDP_TxOptions = AF_TX_OPTIONS_NONE;                 \
    101            return stat;                                        \
    102          }
    103          
    104          /*********************************************************************
    105           * CONSTANTS
    106           */
    107          
    108          #define ZDP_BUF_SZ          80
    109          

   \                                 In  segment CODE_C, align 1
    110          CONST byte ZDP_AF_ENDPOINT = 0;
   \                     ZDP_AF_ENDPOINT:
   \   000000   00           DB 0
    111          
    112          /*********************************************************************
    113           * TYPEDEFS
    114           */
    115          typedef struct
    116          {
    117            void *next;
    118            uint8 taskID;
    119            uint16 clusterID;
    120          } ZDO_MsgCB_t;
    121          
    122          
    123          /*********************************************************************
    124           * GLOBAL VARIABLES
    125           */
    126          

   \                                 In  segment XDATA_Z, align 1, keep-with-next
    127          byte ZDP_TransID = 0;
   \                     ZDP_TransID:
   \   000000                DS 1
   \   000001                REQUIRE __INIT_XDATA_Z
    128          
    129          /*********************************************************************
    130           * EXTERNAL VARIABLES
    131           */
    132          
    133          extern endPointDesc_t ZDApp_epDesc;
    134          
    135          /*********************************************************************
    136           * EXTERNAL FUNCTIONS
    137           */
    138          
    139          /*********************************************************************
    140           * LOCAL FUNCTIONS
    141           */
    142          
    143          static afStatus_t fillAndSend( uint8 *transSeq, zAddrType_t *addr, cId_t clusterID, byte len );
    144          uint8 ZDO_SendMsgCBs( zdoIncomingMsg_t *inMsg );
    145          void zdpProcessAddrReq( zdoIncomingMsg_t *inMsg );
    146          
    147          /*********************************************************************
    148           * LOCAL VARIABLES
    149           */
    150          

   \                                 In  segment XDATA_Z, align 1, keep-with-next
    151          static uint8  ZDP_Buf[ ZDP_BUF_SZ ];
   \                     ZDP_Buf:
   \   000000                DS 80
   \   000050                REQUIRE __INIT_XDATA_Z

   \                                 In  segment XDATA_I, align 1, keep-with-next
    152          static uint8 *ZDP_TmpBuf = ZDP_Buf+1;
   \                     ZDP_TmpBuf:
   \   000000                DS 2
   \   000002                REQUIRE `?<Initializer for ZDP_TmpBuf>`
   \   000002                REQUIRE __INIT_XDATA_I

   \                                 In  segment XDATA_Z, align 1, keep-with-next
    153          static byte ZDP_TxOptions = AF_TX_OPTIONS_NONE;
   \                     ZDP_TxOptions:
   \   000000                DS 1
   \   000001                REQUIRE __INIT_XDATA_Z
    154          

   \                                 In  segment XDATA_Z, align 1, keep-with-next
    155          ZDO_MsgCB_t *zdoMsgCBs = (ZDO_MsgCB_t *)NULL;
   \                     zdoMsgCBs:
   \   000000                DS 2
   \   000002                REQUIRE __INIT_XDATA_Z
    156          
    157          /*********************************************************************
    158           * ZDO Message Processing table
    159           */
    160          
    161          typedef void (*pfnZDPMsgProcessor)( zdoIncomingMsg_t *inMsg );
    162          
    163          typedef struct
    164          {
    165            uint16                clusterID;
    166            pfnZDPMsgProcessor    pFn;
    167          } zdpMsgProcItem_t;
    168          

   \                                 In  segment CODE_C, align 1
    169          CONST zdpMsgProcItem_t zdpMsgProcs[] =
   \                     zdpMsgProcs:
   \   000000   0100         DW 1
   \   000002   ....         DW ??zdpProcessAddrReq?relay
   \   000004   0200         DW 2
   \   000006   ....         DW ??ZDO_ProcessNodeDescReq?relay
   \   000008   0300         DW 3
   \   00000A   ....         DW ??ZDO_ProcessPowerDescReq?relay
   \   00000C   0400         DW 4
   \   00000E   ....         DW ??ZDO_ProcessSimpleDescReq?relay
   \   000010   0500         DW 5
   \   000012   ....         DW ??ZDO_ProcessActiveEPReq?relay
   \   000014   0600         DW 6
   \   000016   ....         DW ??ZDO_ProcessMatchDescReq?relay
   \   000018   1100         DW 17
   \   00001A   ....         DW ??ZDO_ProcessUserDescReq?relay
   \   00001C   1400         DW 20
   \   00001E   ....         DW ??ZDO_ProcessUserDescSet?relay
   \   000020   1500         DW 21
   \   000022   ....         DW ??ZDO_ProcessServerDiscReq?relay
   \   000024   FFFF         DW 65535
   \   000026   0000         DW 0H
    170          {
    171          #if ( RFD_RCVC_ALWAYS_ON==TRUE ) || ( ZG_BUILD_RTR_TYPE )
    172            // These aren't processed by sleeping end devices.
    173            { NWK_addr_req,           zdpProcessAddrReq },
    174            { Device_annce,           ZDO_ProcessDeviceAnnce },
    175          #endif
    176            { IEEE_addr_req,          zdpProcessAddrReq },
    177            { Node_Desc_req,          ZDO_ProcessNodeDescReq },
    178            { Power_Desc_req,         ZDO_ProcessPowerDescReq },
    179            { Simple_Desc_req,        ZDO_ProcessSimpleDescReq },
    180            { Active_EP_req,          ZDO_ProcessActiveEPReq },
    181            { Match_Desc_req,         ZDO_ProcessMatchDescReq },
    182          #if defined ( ZDO_MGMT_NWKDISC_RESPONSE )
    183            { Mgmt_NWK_Disc_req,      ZDO_ProcessMgmtNwkDiscReq },
    184          #endif
    185          #if defined ( ZDO_MGMT_LQI_RESPONSE ) && ( ZG_BUILD_RTR_TYPE )
    186            { Mgmt_Lqi_req,           ZDO_ProcessMgmtLqiReq },
    187          #endif
    188          #if defined ( ZDO_MGMT_RTG_RESPONSE ) && ( ZG_BUILD_RTR_TYPE )
    189            { Mgmt_Rtg_req,           ZDO_ProcessMgmtRtgReq },
    190          #endif
    191          #if defined ( ZDO_MGMT_BIND_RESPONSE ) && defined ( REFLECTOR )
    192            { Mgmt_Bind_req,          ZDO_ProcessMgmtBindReq },
    193          #endif
    194          #if defined ( ZDO_MGMT_JOINDIRECT_RESPONSE ) && ( ZG_BUILD_RTR_TYPE )
    195            { Mgmt_Direct_Join_req,   ZDO_ProcessMgmtDirectJoinReq },
    196          #endif
    197          #if defined ( ZDO_MGMT_LEAVE_RESPONSE )
    198            { Mgmt_Leave_req,         ZDO_ProcessMgmtLeaveReq },
    199          #endif
    200          #if defined ( ZDO_MGMT_PERMIT_JOIN_RESPONSE )  && ( ZG_BUILD_RTR_TYPE )
    201            { Mgmt_Permit_Join_req,   ZDO_ProcessMgmtPermitJoinReq },
    202          #endif
    203          #if defined ( ZDO_USERDESC_RESPONSE )
    204            { User_Desc_req,          ZDO_ProcessUserDescReq },
    205          #endif
    206          #if defined ( ZDO_USERDESCSET_RESPONSE )
    207            { User_Desc_set,          ZDO_ProcessUserDescSet },
    208          #endif
    209          #if defined ( ZDO_SERVERDISC_RESPONSE )
    210            { Server_Discovery_req,   ZDO_ProcessServerDiscReq },
    211          #endif
    212            {0xFFFF, NULL} // Last
    213          };
    214          
    215          /*********************************************************************
    216           * @fn          fillAndSend
    217           *
    218           * @brief       Combined to reduce space
    219           *
    220           * @param
    221           * @param
    222           *
    223           * @return      afStatus_t
    224           */

   \                                 In  segment BANKED_CODE, align 1, keep-with-next
    225          static afStatus_t fillAndSend( uint8 *transSeq, zAddrType_t *addr, cId_t clusterID, byte len )
   \                     fillAndSend:
    226          {
   \   000000   74F0         MOV     A,#-0x10
   \   000002   12....       LCALL   ?BANKED_ENTER_XDATA
   \   000005                ; Saved register size: 16
   \   000005                ; Auto size: 12
   \   000005   74F4         MOV     A,#-0xc
   \   000007   12....       LCALL   ?ALLOC_XSTACK8
   \   00000A   8A..         MOV     ?V0 + 2,R2
   \   00000C   8B..         MOV     ?V0 + 3,R3
   \   00000E   EC           MOV     A,R4
   \   00000F   FE           MOV     R6,A
   \   000010   ED           MOV     A,R5
   \   000011   FF           MOV     R7,A
   \   000012   89..         MOV     ?V0 + 6,R1
   \   000014   741C         MOV     A,#0x1c
   \   000016   12....       LCALL   ?XSTACK_DISP0_8
   \   000019   12....       LCALL   ??Subroutine106_0 & 0xFFFF
    227            afAddrType_t afAddr;
    228          
    229            osal_memset( &afAddr, 0, sizeof(afAddrType_t) );
   \                     ??CrossCallReturnLabel_187:
   \   00001C                ; Setup parameters for call to function osal_memset
   \   00001C   7C0C         MOV     R4,#0xc
   \   00001E   7D00         MOV     R5,#0x0
   \   000020   7900         MOV     R1,#0x0
   \   000022   85..82       MOV     DPL,?XSP + 0
   \   000025   85..83       MOV     DPH,?XSP + 1
   \   000028   AA82         MOV     R2,DPL
   \   00002A   AB83         MOV     R3,DPH
   \   00002C   12....       LCALL   ??osal_memset?relay
    230            ZADDR_TO_AFADDR( addr, afAddr );
   \   00002F   7409         MOV     A,#0x9
   \   000031   12....       LCALL   ?XSTACK_DISP0_8
   \   000034   E4           CLR     A
   \   000035   F0           MOVX    @DPTR,A
   \   000036   8E82         MOV     DPL,R6
   \   000038   8F83         MOV     DPH,R7
   \   00003A   A3           INC     DPTR
   \   00003B   A3           INC     DPTR
   \   00003C   A3           INC     DPTR
   \   00003D   A3           INC     DPTR
   \   00003E   A3           INC     DPTR
   \   00003F   A3           INC     DPTR
   \   000040   A3           INC     DPTR
   \   000041   A3           INC     DPTR
   \   000042   E0           MOVX    A,@DPTR
   \   000043   C0E0         PUSH    A
   \   000045   7408         MOV     A,#0x8
   \   000047   12....       LCALL   ?XSTACK_DISP0_8
   \   00004A   D0E0         POP     A
   \   00004C   F0           MOVX    @DPTR,A
   \   00004D   8E82         MOV     DPL,R6
   \   00004F   8F83         MOV     DPH,R7
   \   000051   12....       LCALL   ?Subroutine26 & 0xFFFF
   \                     ??CrossCallReturnLabel_25:
   \   000054   F0           MOVX    @DPTR,A
    231          
    232            *(ZDP_TmpBuf-1) = *transSeq;
   \   000055   90....       MOV     DPTR,#ZDP_TmpBuf
   \   000058   E0           MOVX    A,@DPTR
   \   000059   24FF         ADD     A,#-0x1
   \   00005B   F5..         MOV     ?V0 + 4,A
   \   00005D   A3           INC     DPTR
   \   00005E   E0           MOVX    A,@DPTR
   \   00005F   34FF         ADDC    A,#-0x1
   \   000061   F5..         MOV     ?V0 + 5,A
   \   000063   85..82       MOV     DPL,?V0 + 2
   \   000066   85..83       MOV     DPH,?V0 + 3
   \   000069   E0           MOVX    A,@DPTR
   \   00006A   85..82       MOV     DPL,?V0 + 4
   \   00006D   85..83       MOV     DPH,?V0 + 5
   \   000070   F0           MOVX    @DPTR,A
    233          
    234            return AF_DataRequest( &afAddr, &ZDApp_epDesc, clusterID,
    235                                     (uint16)(len+1), (uint8*)(ZDP_TmpBuf-1),
    236                                     transSeq, ZDP_TxOptions,  AF_DEFAULT_RADIUS );
   \   000071                ; Setup parameters for call to function AF_DataRequest
   \   000071   75..1E       MOV     ?V0 + 7,#0x1e
   \   000074   78..         MOV     R0,#?V0 + 7
   \   000076   12....       LCALL   ?PUSH_XSTACK_I_ONE
   \   000079   78..         MOV     R0,#?V0 + 2
   \   00007B   12....       LCALL   ?PUSH_XSTACK_I_TWO
   \   00007E   78..         MOV     R0,#?V0 + 4
   \   000080   12....       LCALL   ?PUSH_XSTACK_I_TWO
   \   000083   85....       MOV     ?V0 + 2,?V0 + 6
   \   000086   E5..         MOV     A,?V0 + 2
   \   000088   2401         ADD     A,#0x1
   \   00008A   F5..         MOV     ?V0 + 2,A
   \   00008C   E4           CLR     A
   \   00008D   3400         ADDC    A,#0x0
   \   00008F   F5..         MOV     ?V0 + 3,A
   \   000091   78..         MOV     R0,#?V0 + 2
   \   000093   12....       LCALL   ?PUSH_XSTACK_I_TWO
   \   000096   78..         MOV     R0,#?V0 + 0
   \   000098   12....       LCALL   ?PUSH_XSTACK_I_TWO
   \   00009B   90....       MOV     DPTR,#ZDP_TxOptions
   \   00009E   E0           MOVX    A,@DPTR
   \   00009F   F9           MOV     R1,A
   \   0000A0   7C..         MOV     R4,#ZDApp_epDesc & 0xff
   \   0000A2   7D..         MOV     R5,#(ZDApp_epDesc >> 8) & 0xff
   \   0000A4   7409         MOV     A,#0x9
   \   0000A6   12....       LCALL   ?XSTACK_DISP0_8
   \   0000A9   AA82         MOV     R2,DPL
   \   0000AB   AB83         MOV     R3,DPH
   \   0000AD   12....       LCALL   ??AF_DataRequest?relay
   \   0000B0   7409         MOV     A,#0x9
   \   0000B2   12....       LCALL   ?DEALLOC_XSTACK8
   \   0000B5   740C         MOV     A,#0xc
   \   0000B7                REQUIRE ?Subroutine0
   \   0000B7                ; // Fall through to label ?Subroutine0
    237          
    238          }

   \                                 In  segment BANKED_CODE, align 1, keep-with-next
   \                     ?Subroutine0:
   \   000000   12....       LCALL   ?DEALLOC_XSTACK8
   \   000003   7F08         MOV     R7,#0x8
   \   000005   02....       LJMP    ?BANKED_LEAVE_XDATA

   \                                 In  segment BANKED_CODE, align 1, keep-with-next
   \                     ?Subroutine26:
   \   000000   E0           MOVX    A,@DPTR
   \   000001   F8           MOV     R0,A
   \   000002   A3           INC     DPTR
   \   000003   E0           MOVX    A,@DPTR
   \   000004   F9           MOV     R1,A
   \   000005   85..82       MOV     DPL,?XSP + 0
   \   000008   85..83       MOV     DPH,?XSP + 1
   \   00000B   E8           MOV     A,R0
   \   00000C   F0           MOVX    @DPTR,A
   \   00000D   A3           INC     DPTR
   \   00000E   E9           MOV     A,R1
   \   00000F   22           RET

   \                                 In  segment BANKED_CODE, align 1, keep-with-next
   \                     ??Subroutine106_0:
   \   000000   E0           MOVX    A,@DPTR
   \   000001   F5..         MOV     ?V0 + 0,A
   \   000003   A3           INC     DPTR
   \   000004   E0           MOVX    A,@DPTR
   \   000005   F5..         MOV     ?V0 + 1,A
   \   000007   22           RET
    239          
    240          /*********************************************************************
    241           * @fn          ZDP_SendData
    242           *
    243           * @brief       This builds and send a request message that has
    244           *              NWKAddrOfInterest as its only parameter.
    245           *
    246           * @param       dstAddr - destination address
    247           * @param       cmd - clusterID
    248           * @param       dataLen - number of bytes of data
    249           * @param       data - pointer to the data
    250           * @param       SecurityEnable - Security Options
    251           *
    252           * @return      afStatus_t
    253           */

   \                                 In  segment BANKED_CODE, align 1, keep-with-next
    254          afStatus_t ZDP_SendData( uint8 *TransSeq, zAddrType_t *dstAddr, uint16 cmd,
   \                     ZDP_SendData:
    255                                  byte len, uint8 *buf, byte SecurityEnable )
    256          {
   \   000000   74F2         MOV     A,#-0xe
   \   000002   12....       LCALL   ?BANKED_ENTER_XDATA
   \   000005                ; Saved register size: 14
   \   000005                ; Auto size: 0
   \   000005   E9           MOV     A,R1
   \   000006   FE           MOV     R6,A
   \   000007   740E         MOV     A,#0xe
   \   000009   12....       LCALL   ?XSTACK_DISP0_8
   \   00000C   12....       LCALL   ?Subroutine27 & 0xFFFF
   \                     ??CrossCallReturnLabel_27:
   \   00000F   7410         MOV     A,#0x10
   \   000011   12....       LCALL   ?XSTACK_DISP0_8
   \   000014   12....       LCALL   ?Subroutine18 & 0xFFFF
   \                     ??CrossCallReturnLabel_10:
   \   000017   7412         MOV     A,#0x12
   \   000019   12....       LCALL   ?XSTACK_DISP0_8
   \   00001C   E0           MOVX    A,@DPTR
   \   00001D   F5..         MOV     ?V0 + 1,A
    257            uint8 *pBuf = ZDP_TmpBuf;
   \   00001F   12....       LCALL   ??Subroutine117_0 & 0xFFFF
    258            byte cnt = len;
   \                     ??CrossCallReturnLabel_281:
   \   000022   EE           MOV     A,R6
   \   000023   FF           MOV     R7,A
   \   000024   801F         SJMP    ??ZDP_SendData_0
    259          
    260            while ( cnt-- )
    261            {
    262              *pBuf++ = *buf++;
   \                     ??ZDP_SendData_1:
   \   000026   85..82       MOV     DPL,?V0 + 4
   \   000029   85..83       MOV     DPH,?V0 + 5
   \   00002C   12....       LCALL   ?Subroutine45 & 0xFFFF
    263            }
   \                     ??CrossCallReturnLabel_56:
   \   00002F   85..82       MOV     DPL,?V0 + 4
   \   000032   85..83       MOV     DPH,?V0 + 5
   \   000035   A3           INC     DPTR
   \   000036   8582..       MOV     ?V0 + 4,DPL
   \   000039   8583..       MOV     ?V0 + 5,DPH
   \   00003C   8882         MOV     DPL,R0
   \   00003E   8983         MOV     DPH,R1
   \   000040   A3           INC     DPTR
   \   000041   A882         MOV     R0,DPL
   \   000043   A983         MOV     R1,DPH
   \                     ??ZDP_SendData_0:
   \   000045   8F..         MOV     ?V0 + 0,R7
   \   000047   74FF         MOV     A,#-0x1
   \   000049   25..         ADD     A,?V0 + 0
   \   00004B   1F           DEC     R7
   \   00004C   04           INC     A
   \   00004D   70D7         JNZ     ??ZDP_SendData_1
    264          
    265            FillAndSendTxOptions( TransSeq, dstAddr, cmd, len,
    266                         (AF_DEFAULT_RADIUS | ((SecurityEnable) ? AF_EN_SECURITY : 0)) );
   \   00004F   E5..         MOV     A,?V0 + 1
   \   000051   6004         JZ      ??ZDP_SendData_2
   \   000053   7840         MOV     R0,#0x40
   \   000055   8002         SJMP    ??ZDP_SendData_3
   \                     ??ZDP_SendData_2:
   \   000057   7800         MOV     R0,#0x0
   \                     ??ZDP_SendData_3:
   \   000059   E8           MOV     A,R0
   \   00005A   441E         ORL     A,#0x1e
   \   00005C   90....       MOV     DPTR,#ZDP_TxOptions
   \   00005F   F0           MOVX    @DPTR,A
   \   000060                ; Setup parameters for call to function fillAndSend
   \   000060   78..         MOV     R0,#?V0 + 2
   \   000062   12....       LCALL   ?PUSH_XSTACK_I_TWO
   \   000065   EE           MOV     A,R6
   \   000066   F9           MOV     R1,A
   \   000067   12....       LCALL   ??Subroutine112_0 & 0xFFFF
   \                     ??CrossCallReturnLabel_222:
   \   00006A   12....       LCALL   ?DEALLOC_XSTACK8
   \   00006D   90....       MOV     DPTR,#ZDP_TxOptions
   \   000070   E4           CLR     A
   \   000071   F0           MOVX    @DPTR,A
   \   000072                REQUIRE ?Subroutine1
   \   000072                ; // Fall through to label ?Subroutine1
    267          }

   \                                 In  segment BANKED_CODE, align 1, keep-with-next
   \                     ?Subroutine1:
   \   000000   7F06         MOV     R7,#0x6
   \   000002   02....       LJMP    ?BANKED_LEAVE_XDATA

   \                                 In  segment BANKED_CODE, align 1, keep-with-next
   \                     ?Subroutine45:
   \   000000   E0           MOVX    A,@DPTR
   \   000001   8882         MOV     DPL,R0
   \   000003   8983         MOV     DPH,R1
   \   000005   F0           MOVX    @DPTR,A
   \   000006   22           RET

   \                                 In  segment BANKED_CODE, align 1, keep-with-next
   \                     ?Subroutine18:
   \   000000   E0           MOVX    A,@DPTR
   \   000001   F5..         MOV     ?V0 + 4,A
   \   000003   A3           INC     DPTR
   \   000004   E0           MOVX    A,@DPTR
   \   000005   F5..         MOV     ?V0 + 5,A
   \   000007   22           RET

   \                                 In  segment BANKED_CODE, align 1, keep-with-next
   \                     ?Subroutine27:
   \   000000   E0           MOVX    A,@DPTR
   \   000001   F5..         MOV     ?V0 + 2,A
   \   000003   A3           INC     DPTR
   \   000004   E0           MOVX    A,@DPTR
   \   000005   F5..         MOV     ?V0 + 3,A
   \   000007   22           RET

   \                                 In  segment BANKED_CODE, align 1, keep-with-next
   \                     ??Subroutine112_0:
   \   000000   12....       LCALL   ??fillAndSend?relay
   \   000003   7402         MOV     A,#0x2
   \   000005   22           RET

   \                                 In  segment BANKED_CODE, align 1, keep-with-next
   \                     ??Subroutine117_0:
   \   000000   90....       MOV     DPTR,#ZDP_TmpBuf
   \   000003                REQUIRE ??Subroutine118_0
   \   000003                ; // Fall through to label ??Subroutine118_0

   \                                 In  segment BANKED_CODE, align 1, keep-with-next
   \                     ??Subroutine118_0:
   \   000000   E0           MOVX    A,@DPTR
   \   000001   F8           MOV     R0,A
   \   000002   A3           INC     DPTR
   \   000003   E0           MOVX    A,@DPTR
   \   000004   F9           MOV     R1,A
   \   000005   22           RET
    268          
    269          /*********************************************************************
    270           * @fn          ZDP_NWKAddrOfInterestReq
    271           *
    272           * @brief       This builds and send a request message that has
    273           *              NWKAddrOfInterest as its only parameter.
    274           *
    275           * @param       dstAddr - destination address
    276           * @param       nwkAddr - 16 bit address
    277           * @param       SecurityEnable - Security Options
    278           *
    279           * @return      afStatus_t
    280           */

   \                                 In  segment BANKED_CODE, align 1, keep-with-next
    281          afStatus_t ZDP_NWKAddrOfInterestReq( zAddrType_t *dstAddr, uint16 nwkAddr,
   \                     ZDP_NWKAddrOfInterestReq:
    282                                               byte cmd, byte SecurityEnable )
    283          {
   \   000000   74F6         MOV     A,#-0xa
   \   000002   12....       LCALL   ?BANKED_ENTER_XDATA
   \   000005                ; Saved register size: 10
   \   000005                ; Auto size: 0
   \   000005   E9           MOV     A,R1
   \   000006   FE           MOV     R6,A
    284            (void)SecurityEnable;  // Intentionally unreferenced parameter
    285          
    286            ZDP_TmpBuf[0] = LO_UINT16( nwkAddr );
   \   000007   12....       LCALL   ?Subroutine15 & 0xFFFF
    287            ZDP_TmpBuf[1] = HI_UINT16( nwkAddr );
    288          
    289            return fillAndSend( &ZDP_TransID, dstAddr, cmd, 2 );
   \                     ??CrossCallReturnLabel_6:
   \   00000A                ; Setup parameters for call to function fillAndSend
   \   00000A   8E..         MOV     ?V0 + 0,R6
   \   00000C   02....       LJMP    ?Subroutine2 & 0xFFFF
    290          }

   \                                 In  segment BANKED_CODE, align 1, keep-with-next
   \                     ?Subroutine2:
   \   000000   75..00       MOV     ?V0 + 1,#0x0
   \   000003   78..         MOV     R0,#?V0 + 0
   \   000005   12....       LCALL   ?PUSH_XSTACK_I_TWO
   \   000008   7902         MOV     R1,#0x2
   \   00000A                REQUIRE ??Subroutine87_0
   \   00000A                ; // Fall through to label ??Subroutine87_0

   \                                 In  segment BANKED_CODE, align 1, keep-with-next
   \                     ??Subroutine87_0:
   \   000000   EA           MOV     A,R2
   \   000001   FC           MOV     R4,A
   \   000002   EB           MOV     A,R3
   \   000003   FD           MOV     R5,A
   \   000004   7A..         MOV     R2,#ZDP_TransID & 0xff
   \   000006   7B..         MOV     R3,#(ZDP_TransID >> 8) & 0xff
   \   000008                REQUIRE ??Subroutine88_0
   \   000008                ; // Fall through to label ??Subroutine88_0

   \                                 In  segment BANKED_CODE, align 1, keep-with-next
   \                     ??Subroutine88_0:
   \   000000   12....       LCALL   ??Subroutine112_0 & 0xFFFF
   \                     ??CrossCallReturnLabel_223:
   \   000003                REQUIRE ??Subroutine89_0
   \   000003                ; // Fall through to label ??Subroutine89_0

   \                                 In  segment BANKED_CODE, align 1, keep-with-next
   \                     ??Subroutine89_0:
   \   000000   12....       LCALL   ?DEALLOC_XSTACK8
   \   000003   7F02         MOV     R7,#0x2
   \   000005   02....       LJMP    ?BANKED_LEAVE_XDATA

   \                                 In  segment BANKED_CODE, align 1, keep-with-next
   \                     ?Subroutine15:
   \   000000   90....       MOV     DPTR,#ZDP_TmpBuf
   \   000003   12....       LCALL   ?Subroutine79 & 0xFFFF
   \                     ??CrossCallReturnLabel_147:
   \   000006   EC           MOV     A,R4
   \   000007   F0           MOVX    @DPTR,A
   \   000008   12....       LCALL   ?Subroutine77 & 0xFFFF
   \                     ??CrossCallReturnLabel_122:
   \   00000B   ED           MOV     A,R5
   \   00000C   F0           MOVX    @DPTR,A
   \   00000D   22           RET

   \                                 In  segment BANKED_CODE, align 1, keep-with-next
   \                     ?Subroutine77:
   \   000000   90....       MOV     DPTR,#ZDP_TmpBuf
   \   000003   12....       LCALL   ?Subroutine84 & 0xFFFF
   \                     ??CrossCallReturnLabel_149:
   \   000006   A3           INC     DPTR
   \   000007   22           RET

   \                                 In  segment BANKED_CODE, align 1, keep-with-next
   \                     ?Subroutine79:
   \   000000   12....       LCALL   ?Subroutine84 & 0xFFFF
   \                     ??CrossCallReturnLabel_150:
   \   000003   22           RET

   \                                 In  segment BANKED_CODE, align 1, keep-with-next
   \                     ?Subroutine84:
   \   000000   E0           MOVX    A,@DPTR
   \   000001   F8           MOV     R0,A
   \   000002   A3           INC     DPTR
   \   000003   E0           MOVX    A,@DPTR
   \   000004   F583         MOV     DPH,A
   \   000006   8882         MOV     DPL,R0
   \   000008   22           RET
    291          
    292          /*********************************************************************
    293           * Address Requests
    294           */
    295          
    296          /*********************************************************************
    297           * @fn          ZDP_NwkAddrReq
    298           *
    299           * @brief       This builds and send a NWK_addr_req message.  This
    300           *              function sends a broadcast message looking for a 16
    301           *              bit address with a 64 bit address as bait.
    302           *
    303           * @param       IEEEAddress - looking for this device
    304           * @param       SecurityEnable - Security Options
    305           *
    306           * @return      afStatus_t
    307           */

   \                                 In  segment BANKED_CODE, align 1, keep-with-next
    308          afStatus_t ZDP_NwkAddrReq( uint8 *IEEEAddress, byte ReqType,
   \                     ZDP_NwkAddrReq:
    309                                     byte StartIndex, byte SecurityEnable )
    310          {
   \   000000   74F2         MOV     A,#-0xe
   \   000002   12....       LCALL   ?BANKED_ENTER_XDATA
   \   000005                ; Saved register size: 14
   \   000005                ; Auto size: 9
   \   000005   74F7         MOV     A,#-0x9
   \   000007   12....       LCALL   ?ALLOC_XSTACK8
   \   00000A   EA           MOV     A,R2
   \   00000B   FE           MOV     R6,A
   \   00000C   EB           MOV     A,R3
   \   00000D   FF           MOV     R7,A
   \   00000E   89..         MOV     ?V0 + 2,R1
   \   000010   8C..         MOV     ?V0 + 3,R4
    311            uint8 *pBuf = ZDP_TmpBuf;
   \   000012   12....       LCALL   ?Subroutine10 & 0xFFFF
    312            byte len = Z_EXTADDR_LEN + 1 + 1;  // IEEEAddress + ReqType + StartIndex.
    313            zAddrType_t dstAddr;
    314          
    315            (void)SecurityEnable;  // Intentionally unreferenced parameter
    316          
    317            if ( osal_ExtAddrEqual( saveExtAddr, IEEEAddress ) == FALSE )
   \                     ??CrossCallReturnLabel_196:
   \   000015                ; Setup parameters for call to function sAddrExtCmp
   \   000015   EE           MOV     A,R6
   \   000016   FC           MOV     R4,A
   \   000017   EF           MOV     A,R7
   \   000018   FD           MOV     R5,A
   \   000019   7A..         MOV     R2,#saveExtAddr & 0xff
   \   00001B   7B..         MOV     R3,#(saveExtAddr >> 8) & 0xff
   \   00001D   12....       LCALL   ??sAddrExtCmp?relay
   \   000020   E9           MOV     A,R1
   \   000021   7012         JNZ     ??ZDP_NwkAddrReq_0
    318            {
    319              dstAddr.addrMode = AddrBroadcast;
   \   000023   7408         MOV     A,#0x8
   \   000025   12....       LCALL   ?XSTACK_DISP0_8
   \   000028   740F         MOV     A,#0xf
   \   00002A   12....       LCALL   ?Subroutine55 & 0xFFFF
    320              dstAddr.addr.shortAddr = NWK_BROADCAST_SHORTADDR_DEVRXON;
    321            }
   \                     ??CrossCallReturnLabel_76:
   \   00002D   74FD         MOV     A,#-0x3
   \   00002F   F0           MOVX    @DPTR,A
   \   000030   A3           INC     DPTR
   \   000031   74FF         MOV     A,#-0x1
   \   000033   800E         SJMP    ??CrossCallReturnLabel_26
    322            else
    323            {
    324              dstAddr.addrMode = Addr16Bit;
   \                     ??ZDP_NwkAddrReq_0:
   \   000035   7408         MOV     A,#0x8
   \   000037   12....       LCALL   ?XSTACK_DISP0_8
   \   00003A   7402         MOV     A,#0x2
   \   00003C   F0           MOVX    @DPTR,A
    325              dstAddr.addr.shortAddr = ZDAppNwkAddr.addr.shortAddr;
   \   00003D   90....       MOV     DPTR,#ZDAppNwkAddr
   \   000040   12....       LCALL   ?Subroutine26 & 0xFFFF
    326            }
   \                     ??CrossCallReturnLabel_26:
   \   000043   F0           MOVX    @DPTR,A
    327          
    328            pBuf = osal_cpyExtAddr( pBuf, IEEEAddress );
   \   000044                ; Setup parameters for call to function sAddrExtCpy
   \   000044   EE           MOV     A,R6
   \   000045   FC           MOV     R4,A
   \   000046   EF           MOV     A,R7
   \   000047   FD           MOV     R5,A
   \   000048   AA..         MOV     R2,?V0 + 0
   \   00004A   AB..         MOV     R3,?V0 + 1
   \   00004C   12....       LCALL   ?Subroutine70 & 0xFFFF
    329          
    330            *pBuf++ = ReqType;
   \                     ??CrossCallReturnLabel_97:
   \   00004F   E5..         MOV     A,?V0 + 2
   \   000051   F0           MOVX    @DPTR,A
   \   000052   A3           INC     DPTR
    331            *pBuf++ = StartIndex;
   \   000053   E5..         MOV     A,?V0 + 3
   \   000055   F0           MOVX    @DPTR,A
    332          
    333            return fillAndSend( &ZDP_TransID, &dstAddr, NWK_addr_req, len );
   \   000056                ; Setup parameters for call to function fillAndSend
   \   000056   E4           CLR     A
   \   000057   F5..         MOV     ?V0 + 0,A
   \   000059   F5..         MOV     ?V0 + 1,A
   \   00005B   78..         MOV     R0,#?V0 + 0
   \   00005D   12....       LCALL   ?PUSH_XSTACK_I_TWO
   \   000060   790A         MOV     R1,#0xa
   \   000062   7402         MOV     A,#0x2
   \   000064   12....       LCALL   ?XSTACK_DISP0_8
   \   000067   12....       LCALL   ?Subroutine61 & 0xFFFF
   \                     ??CrossCallReturnLabel_212:
   \   00006A   12....       LCALL   ?DEALLOC_XSTACK8
   \   00006D   7409         MOV     A,#0x9
   \   00006F   12....       LCALL   ?DEALLOC_XSTACK8
   \   000072   02....       LJMP    ?Subroutine1 & 0xFFFF
    334          }

   \                                 In  segment BANKED_CODE, align 1, keep-with-next
   \                     ?Subroutine55:
   \   000000   F0           MOVX    @DPTR,A
   \   000001                ; Setup parameters for call to function ZDO_SendMsgCBs
   \   000001   85..82       MOV     DPL,?XSP + 0
   \   000004   85..83       MOV     DPH,?XSP + 1
   \   000007   22           RET

   \                                 In  segment BANKED_CODE, align 1, keep-with-next
   \                     ?Subroutine70:
   \   000000   12....       LCALL   ??sAddrExtCpy?relay
   \   000003   8A82         MOV     DPL,R2
   \   000005   8B83         MOV     DPH,R3
   \   000007   22           RET

   \                                 In  segment BANKED_CODE, align 1, keep-with-next
   \                     ?Subroutine10:
   \   000000   90....       MOV     DPTR,#ZDP_TmpBuf
   \   000003                REQUIRE ??Subroutine106_0
   \   000003                ; // Fall through to label ??Subroutine106_0

   \                                 In  segment BANKED_CODE, align 1, keep-with-next
   \                     ?Subroutine61:
   \   000000   AC82         MOV     R4,DPL
   \   000002   AD83         MOV     R5,DPH
   \   000004                REQUIRE ??Subroutine111_0
   \   000004                ; // Fall through to label ??Subroutine111_0

   \                                 In  segment BANKED_CODE, align 1, keep-with-next
   \                     ??Subroutine111_0:
   \   000000   7A..         MOV     R2,#ZDP_TransID & 0xff
   \   000002   7B..         MOV     R3,#(ZDP_TransID >> 8) & 0xff
   \   000004                REQUIRE ??Subroutine112_0
   \   000004                ; // Fall through to label ??Subroutine112_0
    335          
    336          /*********************************************************************
    337           * @fn          ZDP_IEEEAddrReq
    338           *
    339           * @brief       This builds and send a IEEE_addr_req message.  This
    340           *              function sends a unicast message looking for a 64
    341           *              bit IEEE address with a 16 bit address as bait.
    342           *
    343           * @param       ReqType - ZDP_IEEEADDR_REQTYPE_SINGLE or
    344           *                        ZDP_IEEEADDR_REQTYPE_EXTENDED
    345           * @param       SecurityEnable - Security Options
    346           *
    347           * @return      afStatus_t
    348           */

   \                                 In  segment BANKED_CODE, align 1, keep-with-next
    349          afStatus_t ZDP_IEEEAddrReq( uint16 shortAddr, byte ReqType,
   \                     ZDP_IEEEAddrReq:
    350                                      byte StartIndex, byte SecurityEnable )
    351          {
   \   000000   74F6         MOV     A,#-0xa
   \   000002   12....       LCALL   ?BANKED_ENTER_XDATA
   \   000005                ; Saved register size: 10
   \   000005                ; Auto size: 9
   \   000005   74F7         MOV     A,#-0x9
   \   000007   12....       LCALL   ?ALLOC_XSTACK8
   \   00000A   E9           MOV     A,R1
   \   00000B   FE           MOV     R6,A
   \   00000C   EC           MOV     A,R4
   \   00000D   FF           MOV     R7,A
    352            uint8 *pBuf = ZDP_TmpBuf;
   \   00000E   12....       LCALL   ??Subroutine117_0 & 0xFFFF
    353            byte len = 2 + 1 + 1;  // shortAddr + ReqType + StartIndex.
    354            zAddrType_t dstAddr;
    355          
    356            (void)SecurityEnable;  // Intentionally unreferenced parameter
    357          
    358            dstAddr.addrMode = (afAddrMode_t)Addr16Bit;
   \                     ??CrossCallReturnLabel_282:
   \   000011   7408         MOV     A,#0x8
   \   000013   12....       LCALL   ?XSTACK_DISP0_8
   \   000016   7402         MOV     A,#0x2
   \   000018   12....       LCALL   ?Subroutine55 & 0xFFFF
    359            dstAddr.addr.shortAddr = shortAddr;
   \                     ??CrossCallReturnLabel_77:
   \   00001B   EA           MOV     A,R2
   \   00001C   12....       LCALL   ??Subroutine114_0 & 0xFFFF
    360          
    361            *pBuf++ = LO_UINT16( shortAddr );
   \                     ??CrossCallReturnLabel_247:
   \   00001F   12....       LCALL   ?Subroutine60 & 0xFFFF
    362            *pBuf++ = HI_UINT16( shortAddr );
   \                     ??CrossCallReturnLabel_245:
   \   000022   A3           INC     DPTR
    363          
    364            *pBuf++ = ReqType;
   \   000023   EE           MOV     A,R6
   \   000024   F0           MOVX    @DPTR,A
   \   000025   A3           INC     DPTR
    365            *pBuf++ = StartIndex;
   \   000026   EF           MOV     A,R7
   \   000027   F0           MOVX    @DPTR,A
    366          
    367            return fillAndSend( &ZDP_TransID, &dstAddr, IEEE_addr_req, len );
   \   000028                ; Setup parameters for call to function fillAndSend
   \   000028   75..01       MOV     ?V0 + 0,#0x1
   \   00002B   75..00       MOV     ?V0 + 1,#0x0
   \   00002E   78..         MOV     R0,#?V0 + 0
   \   000030   12....       LCALL   ?PUSH_XSTACK_I_TWO
   \   000033   7904         MOV     R1,#0x4
   \   000035                REQUIRE ?Subroutine8
   \   000035                ; // Fall through to label ?Subroutine8
    368          }

   \                                 In  segment BANKED_CODE, align 1, keep-with-next
   \                     ?Subroutine8:
   \   000000   7402         MOV     A,#0x2
   \   000002   12....       LCALL   ?XSTACK_DISP0_8
   \   000005   12....       LCALL   ?Subroutine61 & 0xFFFF
   \                     ??CrossCallReturnLabel_213:
   \   000008   12....       LCALL   ?DEALLOC_XSTACK8
   \   00000B                REQUIRE ??Subroutine86_0
   \   00000B                ; // Fall through to label ??Subroutine86_0

   \                                 In  segment BANKED_CODE, align 1, keep-with-next
   \                     ??Subroutine86_0:
   \   000000   7409         MOV     A,#0x9
   \   000002   80..         SJMP    ??Subroutine89_0

   \                                 In  segment BANKED_CODE, align 1, keep-with-next
   \                     ?Subroutine60:
   \   000000   EA           MOV     A,R2
   \   000001   8882         MOV     DPL,R0
   \   000003   8983         MOV     DPH,R1
   \   000005                REQUIRE ??Subroutine114_0
   \   000005                ; // Fall through to label ??Subroutine114_0

   \                                 In  segment BANKED_CODE, align 1, keep-with-next
   \                     ??Subroutine114_0:
   \   000000   F0           MOVX    @DPTR,A
   \   000001   A3           INC     DPTR
   \   000002   EB           MOV     A,R3
   \   000003   F0           MOVX    @DPTR,A
   \   000004   22           RET
    369          
    370          /*********************************************************************
    371           * @fn          ZDP_MatchDescReq
    372           *
    373           * @brief       This builds and send a Match_Desc_req message.  This
    374           *              function sends a broadcast or unicast message
    375           *              requesting the list of endpoint/interfaces that
    376           *              match profile ID and cluster IDs.
    377           *
    378           * @param       dstAddr - destination address
    379           * @param       nwkAddr - network address of interest
    380           * @param       ProfileID - Profile ID
    381           * @param       NumInClusters - number of input clusters
    382           * @param       InClusterList - input cluster ID list
    383           * @param       NumOutClusters - number of output clusters
    384           * @param       OutClusterList - output cluster ID list
    385           * @param       SecurityEnable - Security Options
    386           *
    387           * @return      afStatus_t
    388           */

   \                                 In  segment BANKED_CODE, align 1, keep-with-next
    389          afStatus_t ZDP_MatchDescReq( zAddrType_t *dstAddr, uint16 nwkAddr,
   \                     ZDP_MatchDescReq:
    390                                          uint16 ProfileID,
    391                                          byte NumInClusters, cId_t *InClusterList,
    392                                          byte NumOutClusters, cId_t *OutClusterList,
    393                                          byte SecurityEnable )
    394          {
   \   000000   74EE         MOV     A,#-0x12
   \   000002   12....       LCALL   ?BANKED_ENTER_XDATA
   \   000005                ; Saved register size: 18
   \   000005                ; Auto size: 0
   \   000005   E9           MOV     A,R1
   \   000006   FE           MOV     R6,A
   \   000007   7412         MOV     A,#0x12
   \   000009   12....       LCALL   ?XSTACK_DISP0_8
   \   00000C   12....       LCALL   ??Subroutine106_0 & 0xFFFF
   \                     ??CrossCallReturnLabel_188:
   \   00000F   7414         MOV     A,#0x14
   \   000011   12....       LCALL   ?XSTACK_DISP0_8
   \   000014   12....       LCALL   ??Subroutine118_0 & 0xFFFF
   \                     ??CrossCallReturnLabel_270:
   \   000017   88..         MOV     ?V0 + 2,R0
   \   000019   89..         MOV     ?V0 + 3,R1
   \   00001B   7416         MOV     A,#0x16
   \   00001D   12....       LCALL   ?XSTACK_DISP0_8
   \   000020   E0           MOVX    A,@DPTR
   \   000021   FF           MOV     R7,A
   \   000022   7417         MOV     A,#0x17
   \   000024   12....       LCALL   ?XSTACK_DISP0_8
   \   000027   12....       LCALL   ??Subroutine118_0 & 0xFFFF
   \                     ??CrossCallReturnLabel_271:
   \   00002A   88..         MOV     ?V0 + 6,R0
   \   00002C   89..         MOV     ?V0 + 7,R1
    395            uint8 *pBuf = ZDP_TmpBuf;
   \   00002E   12....       LCALL   ??Subroutine117_0 & 0xFFFF
    396            // nwkAddr+ProfileID+NumInClusters+NumOutClusters.
    397            byte i, len = 2 + 2 + 1 + 1;  // nwkAddr+ProfileID+NumInClusters+NumOutClusters.
    398          
    399            (void)SecurityEnable;  // Intentionally unreferenced parameter
    400          
    401            len += (NumInClusters + NumOutClusters) * sizeof(uint16);
   \                     ??CrossCallReturnLabel_283:
   \   000031   EE           MOV     A,R6
   \   000032   2F           ADD     A,R7
   \   000033   C3           CLR     C
   \   000034   33           RLC     A
   \   000035   2406         ADD     A,#0x6
   \   000037   F5..         MOV     ?V0 + 4,A
    402          
    403            if ( len >= ZDP_BUF_SZ-1 )
   \   000039   C3           CLR     C
   \   00003A   944F         SUBB    A,#0x4f
   \   00003C   4005         JC      ??ZDP_MatchDescReq_0
    404            {
    405              return afStatus_MEM_FAIL;
   \   00003E   7910         MOV     R1,#0x10
   \   000040   02....       LJMP    ??ZDP_MatchDescReq_1 & 0xFFFF
    406            }
    407          
    408            // The spec changed in Zigbee 2007 (2.4.3.1.7.1) to not allow sending
    409            // this command to 0xFFFF.  So, here we will filter this and replace 
    410            // with 0xFFFD to only send to devices with RX ON.  This includes the 
    411            // network address of interest.
    412            if ( ((dstAddr->addrMode == AddrBroadcast) || (dstAddr->addrMode == Addr16Bit))
    413                && (dstAddr->addr.shortAddr == NWK_BROADCAST_SHORTADDR_DEVALL) )
   \                     ??ZDP_MatchDescReq_0:
   \   000043   8A82         MOV     DPL,R2
   \   000045   8B83         MOV     DPH,R3
   \   000047   A3           INC     DPTR
   \   000048   A3           INC     DPTR
   \   000049   A3           INC     DPTR
   \   00004A   A3           INC     DPTR
   \   00004B   A3           INC     DPTR
   \   00004C   A3           INC     DPTR
   \   00004D   A3           INC     DPTR
   \   00004E   A3           INC     DPTR
   \   00004F   E0           MOVX    A,@DPTR
   \   000050   F5..         MOV     ?V0 + 5,A
   \   000052   740F         MOV     A,#0xf
   \   000054   65..         XRL     A,?V0 + 5
   \   000056   6006         JZ      ??ZDP_MatchDescReq_2
   \   000058   7402         MOV     A,#0x2
   \   00005A   65..         XRL     A,?V0 + 5
   \   00005C   7018         JNZ     ??ZDP_MatchDescReq_3
   \                     ??ZDP_MatchDescReq_2:
   \   00005E   8A82         MOV     DPL,R2
   \   000060   8B83         MOV     DPH,R3
   \   000062   E0           MOVX    A,@DPTR
   \   000063   F4           CPL     A
   \   000064   7003         JNZ     ??ZDP_MatchDescReq_4
   \   000066   A3           INC     DPTR
   \   000067   E0           MOVX    A,@DPTR
   \   000068   F4           CPL     A
   \                     ??ZDP_MatchDescReq_4:
   \   000069   700B         JNZ     ??ZDP_MatchDescReq_3
    414            {
    415              dstAddr->addr.shortAddr = NWK_BROADCAST_SHORTADDR_DEVRXON;
   \   00006B   8A82         MOV     DPL,R2
   \   00006D   8B83         MOV     DPH,R3
   \   00006F   74FD         MOV     A,#-0x3
   \   000071   F0           MOVX    @DPTR,A
   \   000072   A3           INC     DPTR
   \   000073   74FF         MOV     A,#-0x1
   \   000075   F0           MOVX    @DPTR,A
    416            }
    417            if ( nwkAddr == NWK_BROADCAST_SHORTADDR_DEVALL )
   \                     ??ZDP_MatchDescReq_3:
   \   000076   74FF         MOV     A,#-0x1
   \   000078   6C           XRL     A,R4
   \   000079   7003         JNZ     ??ZDP_MatchDescReq_5
   \   00007B   74FF         MOV     A,#-0x1
   \   00007D   6D           XRL     A,R5
   \                     ??ZDP_MatchDescReq_5:
   \   00007E   7004         JNZ     ??ZDP_MatchDescReq_6
    418            {
    419              nwkAddr = NWK_BROADCAST_SHORTADDR_DEVRXON;
   \   000080   7CFD         MOV     R4,#-0x3
   \   000082   7DFF         MOV     R5,#-0x1
    420            }
    421            
    422            *pBuf++ = LO_UINT16( nwkAddr );   // NWKAddrOfInterest
   \                     ??ZDP_MatchDescReq_6:
   \   000084   EC           MOV     A,R4
   \   000085   8882         MOV     DPL,R0
   \   000087   8983         MOV     DPH,R1
   \   000089   12....       LCALL   ?Subroutine52 & 0xFFFF
    423            *pBuf++ = HI_UINT16( nwkAddr );
    424          
    425            *pBuf++ = LO_UINT16( ProfileID );   // Profile ID
    426            *pBuf++ = HI_UINT16( ProfileID );
   \                     ??CrossCallReturnLabel_115:
   \   00008C   E5..         MOV     A,?V0 + 1
   \   00008E   F0           MOVX    @DPTR,A
   \   00008F   A3           INC     DPTR
    427          
    428            *pBuf++ = NumInClusters; // Input cluster list
   \   000090   EE           MOV     A,R6
   \   000091   12....       LCALL   ??Subroutine98_0 & 0xFFFF
    429            if ( NumInClusters )
   \                     ??CrossCallReturnLabel_151:
   \   000094   6017         JZ      ??ZDP_MatchDescReq_7
    430            {
    431              for (i=0; i<NumInClusters; ++i)  {
   \   000096   75..00       MOV     ?V0 + 0,#0x0
    432                *pBuf++ = LO_UINT16( InClusterList[i] );
   \                     ??ZDP_MatchDescReq_8:
   \   000099   E5..         MOV     A,?V0 + 0
   \   00009B   C3           CLR     C
   \   00009C   33           RLC     A
   \   00009D   FC           MOV     R4,A
   \   00009E   E4           CLR     A
   \   00009F   33           RLC     A
   \   0000A0   FD           MOV     R5,A
   \   0000A1   E5..         MOV     A,?V0 + 2
   \   0000A3   2C           ADD     A,R4
   \   0000A4   FC           MOV     R4,A
   \   0000A5   E5..         MOV     A,?V0 + 3
   \   0000A7   12....       LCALL   ?Subroutine11 & 0xFFFF
    433                *pBuf++ = HI_UINT16( InClusterList[i] );
    434              }
    435            }
   \                     ??CrossCallReturnLabel_0:
   \   0000AA   9E           SUBB    A,R6
   \   0000AB   40EC         JC      ??ZDP_MatchDescReq_8
    436          
    437            *pBuf++ = NumOutClusters; // Output cluster list
   \                     ??ZDP_MatchDescReq_7:
   \   0000AD   EF           MOV     A,R7
   \   0000AE   12....       LCALL   ?Subroutine49 & 0xFFFF
    438            if ( NumOutClusters )
   \                     ??CrossCallReturnLabel_155:
   \   0000B1   6017         JZ      ??ZDP_MatchDescReq_9
    439            {
    440              for (i=0; i<NumOutClusters; ++i)  {
   \   0000B3   75..00       MOV     ?V0 + 0,#0x0
    441                *pBuf++ = LO_UINT16( OutClusterList[i] );
   \                     ??ZDP_MatchDescReq_10:
   \   0000B6   E5..         MOV     A,?V0 + 0
   \   0000B8   C3           CLR     C
   \   0000B9   33           RLC     A
   \   0000BA   FC           MOV     R4,A
   \   0000BB   E4           CLR     A
   \   0000BC   33           RLC     A
   \   0000BD   FD           MOV     R5,A
   \   0000BE   E5..         MOV     A,?V0 + 6
   \   0000C0   2C           ADD     A,R4
   \   0000C1   FC           MOV     R4,A
   \   0000C2   E5..         MOV     A,?V0 + 7
   \   0000C4   12....       LCALL   ?Subroutine11 & 0xFFFF
    442                *pBuf++ = HI_UINT16( OutClusterList[i] );
    443              }
    444            }
   \                     ??CrossCallReturnLabel_1:
   \   0000C7   9F           SUBB    A,R7
   \   0000C8   40EC         JC      ??ZDP_MatchDescReq_10
    445          
    446            return fillAndSend( &ZDP_TransID, dstAddr, Match_Desc_req, len );
   \                     ??ZDP_MatchDescReq_9:
   \   0000CA                ; Setup parameters for call to function fillAndSend
   \   0000CA   75..06       MOV     ?V0 + 0,#0x6
   \   0000CD   75..00       MOV     ?V0 + 1,#0x0
   \   0000D0   78..         MOV     R0,#?V0 + 0
   \   0000D2   12....       LCALL   ?PUSH_XSTACK_I_TWO
   \   0000D5   A9..         MOV     R1,?V0 + 4
   \   0000D7   EA           MOV     A,R2
   \   0000D8   FC           MOV     R4,A
   \   0000D9   EB           MOV     A,R3
   \   0000DA   FD           MOV     R5,A
   \   0000DB   12....       LCALL   ??Subroutine111_0 & 0xFFFF
   \                     ??CrossCallReturnLabel_215:
   \   0000DE   12....       LCALL   ?DEALLOC_XSTACK8
   \                     ??ZDP_MatchDescReq_1:
   \   0000E1   02....       LJMP    ??Subroutine97_0 & 0xFFFF
    447          }

   \                                 In  segment BANKED_CODE, align 1, keep-with-next
   \                     ?Subroutine52:
   \   000000   F0           MOVX    @DPTR,A
   \   000001   A3           INC     DPTR
   \   000002   ED           MOV     A,R5
   \   000003                REQUIRE ??Subroutine90_0
   \   000003                ; // Fall through to label ??Subroutine90_0

   \                                 In  segment BANKED_CODE, align 1, keep-with-next
   \                     ??Subroutine90_0:
   \   000000   F0           MOVX    @DPTR,A
   \   000001   A3           INC     DPTR
   \   000002   E5..         MOV     A,?V0 + 0
   \   000004   F0           MOVX    @DPTR,A
   \   000005   A3           INC     DPTR
   \   000006   22           RET

   \                                 In  segment BANKED_CODE, align 1, keep-with-next
   \                     ?Subroutine11:
   \   000000   3D           ADDC    A,R5
   \   000001   FD           MOV     R5,A
   \   000002   8C82         MOV     DPL,R4
   \   000004   8D83         MOV     DPH,R5
   \   000006   12....       LCALL   ?Subroutine73 & 0xFFFF
   \                     ??CrossCallReturnLabel_157:
   \   000009   12....       LCALL   ?Subroutine75 & 0xFFFF
   \                     ??CrossCallReturnLabel_210:
   \   00000C   05..         INC     ?V0 + 0
   \   00000E   E5..         MOV     A,?V0 + 0
   \   000010   C3           CLR     C
   \   000011   22           RET

   \                                 In  segment BANKED_CODE, align 1, keep-with-next
   \                     ?Subroutine73:
   \   000000   E0           MOVX    A,@DPTR
   \   000001   8882         MOV     DPL,R0
   \   000003   8983         MOV     DPH,R1
   \   000005                REQUIRE ??Subroutine94_0
   \   000005                ; // Fall through to label ??Subroutine94_0

   \                                 In  segment BANKED_CODE, align 1, keep-with-next
   \                     ??Subroutine94_0:
   \   000000   F0           MOVX    @DPTR,A
   \   000001   A3           INC     DPTR
   \   000002   A882         MOV     R0,DPL
   \   000004   A983         MOV     R1,DPH
   \   000006   22           RET

   \                                 In  segment BANKED_CODE, align 1, keep-with-next
   \                     ??Subroutine97_0:
   \   000000   7F0A         MOV     R7,#0xa
   \   000002   02....       LJMP    ?BANKED_LEAVE_XDATA

   \                                 In  segment BANKED_CODE, align 1, keep-with-next
   \                     ?Subroutine49:
   \   000000   8882         MOV     DPL,R0
   \   000002   8983         MOV     DPH,R1
   \   000004                REQUIRE ??Subroutine98_0
   \   000004                ; // Fall through to label ??Subroutine98_0

   \                                 In  segment BANKED_CODE, align 1, keep-with-next
   \                     ??Subroutine98_0:
   \   000000   12....       LCALL   ??Subroutine94_0 & 0xFFFF
   \                     ??CrossCallReturnLabel_160:
   \   000003   22           RET

   \                                 In  segment BANKED_CODE, align 1, keep-with-next
   \                     ?Subroutine75:
   \   000000   8C82         MOV     DPL,R4
   \   000002   8D83         MOV     DPH,R5
   \   000004                REQUIRE ??Subroutine108_0
   \   000004                ; // Fall through to label ??Subroutine108_0

   \                                 In  segment BANKED_CODE, align 1, keep-with-next
   \                     ??Subroutine108_0:
   \   000000   A3           INC     DPTR
   \   000001                REQUIRE ??Subroutine109_0
   \   000001                ; // Fall through to label ??Subroutine109_0

   \                                 In  segment BANKED_CODE, align 1, keep-with-next
   \                     ??Subroutine109_0:
   \   000000   E0           MOVX    A,@DPTR
   \   000001                REQUIRE ??Subroutine110_0
   \   000001                ; // Fall through to label ??Subroutine110_0

   \                                 In  segment BANKED_CODE, align 1, keep-with-next
   \                     ??Subroutine110_0:
   \   000000   8882         MOV     DPL,R0
   \   000002   8983         MOV     DPH,R1
   \   000004   F0           MOVX    @DPTR,A
   \   000005   A3           INC     DPTR
   \   000006   08           INC     R0
   \   000007   A983         MOV     R1,DPH
   \   000009   22           RET
    448          
    449          /*********************************************************************
    450           * @fn          ZDP_SimpleDescReq
    451           *
    452           * @brief       This builds and send a NWK_Simple_Desc_req
    453           *              message.  This function sends unicast message to the
    454           *              destination device.
    455           *
    456           * @param       dstAddr - destination address
    457           * @param       nwkAddr - 16 bit address
    458           * @param       epIntf - endpoint/interface
    459           * @param       SecurityEnable - Security Options
    460           *
    461           * @return      afStatus_t
    462           */

   \                                 In  segment BANKED_CODE, align 1, keep-with-next
    463          afStatus_t ZDP_SimpleDescReq( zAddrType_t *dstAddr, uint16 nwkAddr,
   \                     ZDP_SimpleDescReq:
    464                                              byte endPoint, byte SecurityEnable )
    465          
    466          {
   \   000000   74F6         MOV     A,#-0xa
   \   000002   12....       LCALL   ?BANKED_ENTER_XDATA
   \   000005                ; Saved register size: 10
   \   000005                ; Auto size: 0
    467            (void)SecurityEnable;  // Intentionally unreferenced parameter
    468          
    469            ZDP_TmpBuf[0] = LO_UINT16( nwkAddr );
   \   000005   12....       LCALL   ?Subroutine15 & 0xFFFF
    470            ZDP_TmpBuf[1] = HI_UINT16( nwkAddr );
    471            ZDP_TmpBuf[2] = endPoint;
   \                     ??CrossCallReturnLabel_7:
   \   000008   12....       LCALL   ?Subroutine30 & 0xFFFF
    472          
    473            return fillAndSend( &ZDP_TransID, dstAddr, Simple_Desc_req, 3 );
   \                     ??CrossCallReturnLabel_37:
   \   00000B                ; Setup parameters for call to function fillAndSend
   \   00000B   75..04       MOV     ?V0 + 0,#0x4
   \   00000E   75..00       MOV     ?V0 + 1,#0x0
   \   000011   78..         MOV     R0,#?V0 + 0
   \   000013   12....       LCALL   ?PUSH_XSTACK_I_TWO
   \   000016   7903         MOV     R1,#0x3
   \   000018   02....       LJMP    ??Subroutine87_0 & 0xFFFF
    474          }

   \                                 In  segment BANKED_CODE, align 1, keep-with-next
   \                     ?Subroutine30:
   \   000000   12....       LCALL   ?Subroutine77 & 0xFFFF
   \                     ??CrossCallReturnLabel_124:
   \   000003   A3           INC     DPTR
   \   000004   E9           MOV     A,R1
   \   000005   F0           MOVX    @DPTR,A
   \   000006   22           RET
    475          
    476          /*********************************************************************
    477           * @fn          ZDP_UserDescSet
    478           *
    479           * @brief       This builds and send a User_Desc_set message to set
    480           *              the user descriptor.  This function sends unicast
    481           *              message to the destination device.
    482           *
    483           * @param       dstAddr - destination address
    484           * @param       nwkAddr - 16 bit address
    485           * @param       UserDescriptor - user descriptor
    486           * @param       SecurityEnable - Security Options
    487           *
    488           * @return      afStatus_t
    489           */

   \                                 In  segment BANKED_CODE, align 1, keep-with-next
    490          afStatus_t ZDP_UserDescSet( zAddrType_t *dstAddr, uint16 nwkAddr,
   \                     ZDP_UserDescSet:
    491                                    UserDescriptorFormat_t *UserDescriptor,
    492                                    byte SecurityEnable )
    493          {
   \   000000   74ED         MOV     A,#-0x13
   \   000002   12....       LCALL   ?BANKED_ENTER_XDATA
   \   000005                ; Saved register size: 19
   \   000005                ; Auto size: 0
   \   000005   8A..         MOV     ?V0 + 2,R2
   \   000007   8B..         MOV     ?V0 + 3,R3
   \   000009   7413         MOV     A,#0x13
   \   00000B   12....       LCALL   ?XSTACK_DISP0_8
   \   00000E   12....       LCALL   ?Subroutine29 & 0xFFFF
   \                     ??CrossCallReturnLabel_34:
   \   000011   FA           MOV     R2,A
   \   000012   E9           MOV     A,R1
   \   000013   FB           MOV     R3,A
    494            uint8 *pBuf = ZDP_TmpBuf;
   \   000014   90....       MOV     DPTR,#ZDP_TmpBuf
   \   000017   12....       LCALL   ?Subroutine18 & 0xFFFF
    495            byte len = (UserDescriptor->len < AF_MAX_USER_DESCRIPTOR_LEN) ?
    496                        UserDescriptor->len : AF_MAX_USER_DESCRIPTOR_LEN;
   \                     ??CrossCallReturnLabel_11:
   \   00001A   8A82         MOV     DPL,R2
   \   00001C   8B83         MOV     DPH,R3
   \   00001E   E0           MOVX    A,@DPTR
   \   00001F   F8           MOV     R0,A
   \   000020   C3           CLR     C
   \   000021   9410         SUBB    A,#0x10
   \   000023   5004         JNC     ??ZDP_UserDescSet_0
   \   000025   88..         MOV     ?V0 + 0,R0
   \   000027   8003         SJMP    ??ZDP_UserDescSet_1
   \                     ??ZDP_UserDescSet_0:
   \   000029   75..10       MOV     ?V0 + 0,#0x10
    497            byte addrLen = 2;
    498          
    499            (void)SecurityEnable;  // Intentionally unreferenced parameter
    500          
    501            *pBuf++ = LO_UINT16( nwkAddr );
   \                     ??ZDP_UserDescSet_1:
   \   00002C   EC           MOV     A,R4
   \   00002D   85..82       MOV     DPL,?V0 + 4
   \   000030   85..83       MOV     DPH,?V0 + 5
   \   000033   12....       LCALL   ?Subroutine52 & 0xFFFF
    502            *pBuf++ = HI_UINT16( nwkAddr );
    503          
    504            *pBuf++ = len;
   \                     ??CrossCallReturnLabel_116:
   \   000036   8582..       MOV     ?V0 + 4,DPL
   \   000039   8583..       MOV     ?V0 + 5,DPH
    505            addrLen = 3;
    506          
    507            pBuf = osal_memcpy( pBuf, UserDescriptor->desc, len );
    508            osal_memset( pBuf, AF_USER_DESCRIPTOR_FILL, AF_MAX_USER_DESCRIPTOR_LEN-len );
   \   00003C                ; Setup parameters for call to function osal_memset
   \   00003C   F5..         MOV     ?V0 + 6,A
   \   00003E   7410         MOV     A,#0x10
   \   000040   C3           CLR     C
   \   000041   95..         SUBB    A,?V0 + 6
   \   000043   FC           MOV     R4,A
   \   000044   95E0         SUBB    A,0xE0 /* A   */
   \   000046   FD           MOV     R5,A
   \   000047   7920         MOV     R1,#0x20
   \   000049   E9           MOV     A,R1
   \   00004A   C0E0         PUSH    A
   \   00004C   EC           MOV     A,R4
   \   00004D   FE           MOV     R6,A
   \   00004E   ED           MOV     A,R5
   \   00004F   FF           MOV     R7,A
   \   000050                ; Setup parameters for call to function osal_memcpy
   \   000050   8A82         MOV     DPL,R2
   \   000052   8B83         MOV     DPH,R3
   \   000054   A3           INC     DPTR
   \   000055   A982         MOV     R1,DPL
   \   000057   AA83         MOV     R2,DPH
   \   000059   89..         MOV     ?V0 + 8,R1
   \   00005B   8A..         MOV     ?V0 + 9,R2
   \   00005D   75..00       MOV     ?V0 + 10,#0x0
   \   000060   78..         MOV     R0,#?V0 + 8
   \   000062   12....       LCALL   ?PUSH_XSTACK_I_THREE
   \   000065   AC..         MOV     R4,?V0 + 6
   \   000067   7D00         MOV     R5,#0x0
   \   000069   AA..         MOV     R2,?V0 + 4
   \   00006B   AB..         MOV     R3,?V0 + 5
   \   00006D   12....       LCALL   ??Subroutine95_0 & 0xFFFF
   \                     ??CrossCallReturnLabel_141:
   \   000070   12....       LCALL   ?DEALLOC_XSTACK8
   \   000073   EE           MOV     A,R6
   \   000074   FC           MOV     R4,A
   \   000075   EF           MOV     A,R7
   \   000076   FD           MOV     R5,A
   \   000077   D0E0         POP     A
   \   000079   F9           MOV     R1,A
   \   00007A   12....       LCALL   ??osal_memset?relay
    509          
    510            return fillAndSend( &ZDP_TransID, dstAddr, User_Desc_set, (AF_MAX_USER_DESCRIPTOR_LEN + addrLen) );
   \   00007D                ; Setup parameters for call to function fillAndSend
   \   00007D   75..14       MOV     ?V0 + 4,#0x14
   \   000080   75..00       MOV     ?V0 + 5,#0x0
   \   000083   78..         MOV     R0,#?V0 + 4
   \   000085   12....       LCALL   ?PUSH_XSTACK_I_TWO
   \   000088   7913         MOV     R1,#0x13
   \   00008A   AC..         MOV     R4,?V0 + 2
   \   00008C   AD..         MOV     R5,?V0 + 3
   \   00008E   12....       LCALL   ??Subroutine111_0 & 0xFFFF
   \                     ??CrossCallReturnLabel_216:
   \   000091   12....       LCALL   ?DEALLOC_XSTACK8
   \   000094   7F0B         MOV     R7,#0xb
   \   000096   02....       LJMP    ?BANKED_LEAVE_XDATA
    511          }

   \                                 In  segment BANKED_CODE, align 1, keep-with-next
   \                     ?Subroutine29:
   \   000000   E0           MOVX    A,@DPTR
   \   000001   F8           MOV     R0,A
   \   000002   A3           INC     DPTR
   \   000003   E0           MOVX    A,@DPTR
   \   000004   F9           MOV     R1,A
   \   000005   E8           MOV     A,R0
   \   000006   22           RET

   \                                 In  segment BANKED_CODE, align 1, keep-with-next
   \                     ??Subroutine95_0:
   \   000000   12....       LCALL   ??osal_memcpy?relay
   \   000003   7403         MOV     A,#0x3
   \   000005   22           RET
    512          
    513          /*********************************************************************
    514           * @fn          ZDP_ServerDiscReq
    515           *
    516           * @brief       Build and send a Server_Discovery_req request message.
    517           *
    518           * @param       serverMask - 16-bit bit-mask of server services being sought.
    519           * @param       SecurityEnable - Security Options
    520           *
    521           * @return      afStatus_t
    522           */

   \                                 In  segment BANKED_CODE, align 1, keep-with-next
    523          afStatus_t ZDP_ServerDiscReq( uint16 serverMask, byte SecurityEnable )
   \                     ZDP_ServerDiscReq:
    524          {
   \   000000   74F6         MOV     A,#-0xa
   \   000002   12....       LCALL   ?BANKED_ENTER_XDATA
   \   000005                ; Saved register size: 10
   \   000005                ; Auto size: 9
   \   000005   74F7         MOV     A,#-0x9
   \   000007   12....       LCALL   ?ALLOC_XSTACK8
   \   00000A   12....       LCALL   ?Subroutine43 & 0xFFFF
    525            uint8 *pBuf = ZDP_TmpBuf;
    526            zAddrType_t dstAddr;
    527          
    528            dstAddr.addrMode = AddrBroadcast;
   \                     ??CrossCallReturnLabel_268:
   \   00000D   7408         MOV     A,#0x8
   \   00000F   12....       LCALL   ?XSTACK_DISP0_8
   \   000012   12....       LCALL   ?Subroutine50 & 0xFFFF
    529            dstAddr.addr.shortAddr = NWK_BROADCAST_SHORTADDR_DEVRXON;
    530          
    531            *pBuf++ = LO_UINT16( serverMask );
   \                     ??CrossCallReturnLabel_70:
   \   000015   12....       LCALL   ?Subroutine60 & 0xFFFF
    532            *pBuf = HI_UINT16( serverMask );
    533          
    534            FillAndSendTxOptions( &ZDP_TransID, &dstAddr, Server_Discovery_req, 2,
    535                       ((SecurityEnable) ? AF_EN_SECURITY : AF_TX_OPTIONS_NONE) );
   \                     ??CrossCallReturnLabel_246:
   \   000018   EE           MOV     A,R6
   \   000019   90....       MOV     DPTR,#ZDP_TxOptions
   \   00001C   6004         JZ      ??ZDP_ServerDiscReq_0
   \   00001E   7440         MOV     A,#0x40
   \   000020   8001         SJMP    ??ZDP_ServerDiscReq_1
   \                     ??ZDP_ServerDiscReq_0:
   \   000022   E4           CLR     A
   \                     ??ZDP_ServerDiscReq_1:
   \   000023   F0           MOVX    @DPTR,A
   \   000024                ; Setup parameters for call to function fillAndSend
   \   000024   75..15       MOV     ?V0 + 0,#0x15
   \   000027   75..00       MOV     ?V0 + 1,#0x0
   \   00002A   78..         MOV     R0,#?V0 + 0
   \   00002C   12....       LCALL   ?PUSH_XSTACK_I_TWO
   \   00002F   7902         MOV     R1,#0x2
   \   000031   E9           MOV     A,R1
   \   000032   12....       LCALL   ?XSTACK_DISP0_8
   \   000035   12....       LCALL   ?Subroutine61 & 0xFFFF
   \                     ??CrossCallReturnLabel_214:
   \   000038   12....       LCALL   ?DEALLOC_XSTACK8
   \   00003B   90....       MOV     DPTR,#ZDP_TxOptions
   \   00003E   E4           CLR     A
   \   00003F   F0           MOVX    @DPTR,A
   \   000040   02....       LJMP    ??Subroutine86_0 & 0xFFFF
    536          }

   \                                 In  segment BANKED_CODE, align 1, keep-with-next
   \                     ?Subroutine50:
   \   000000   740F         MOV     A,#0xf
   \   000002   F0           MOVX    @DPTR,A
   \   000003   85..82       MOV     DPL,?XSP + 0
   \   000006   85..83       MOV     DPH,?XSP + 1
   \   000009   74FD         MOV     A,#-0x3
   \   00000B   F0           MOVX    @DPTR,A
   \   00000C   A3           INC     DPTR
   \   00000D   74FF         MOV     A,#-0x1
   \   00000F   F0           MOVX    @DPTR,A
   \   000010   22           RET

   \                                 In  segment BANKED_CODE, align 1, keep-with-next
   \                     ?Subroutine43:
   \   000000   E9           MOV     A,R1
   \   000001   FE           MOV     R6,A
   \   000002                REQUIRE ??Subroutine117_0
   \   000002                ; // Fall through to label ??Subroutine117_0
    537          
    538          /*********************************************************************
    539           * @fn          ZDP_DeviceAnnce
    540           *
    541           * @brief       This builds and send a Device_Annce message.  This
    542           *              function sends a broadcast message.
    543           *
    544           * @param       nwkAddr - 16 bit address of the device
    545           * @param       IEEEAddr - 64 bit address of the device
    546           * @param       capabilities - device capabilities.  This field is only
    547           *                 sent for v1.1 networks.
    548           * @param       SecurityEnable - Security Options
    549           *
    550           * @return      afStatus_t
    551           */

   \                                 In  segment BANKED_CODE, align 1, keep-with-next
    552          afStatus_t ZDP_DeviceAnnce( uint16 nwkAddr, uint8 *IEEEAddr,
   \                     ZDP_DeviceAnnce:
    553                                        byte capabilities, byte SecurityEnable )
    554          {
   \   000000   74F6         MOV     A,#-0xa
   \   000002   12....       LCALL   ?BANKED_ENTER_XDATA
   \   000005                ; Saved register size: 10
   \   000005                ; Auto size: 9
   \   000005   74F7         MOV     A,#-0x9
   \   000007   12....       LCALL   ?ALLOC_XSTACK8
   \   00000A   E9           MOV     A,R1
   \   00000B   FE           MOV     R6,A
    555            zAddrType_t dstAddr;
    556            uint8 len;
    557          
    558            (void)SecurityEnable;  // Intentionally unreferenced parameter
    559          
    560            dstAddr.addrMode = (afAddrMode_t)AddrBroadcast;
   \   00000C   7408         MOV     A,#0x8
   \   00000E   12....       LCALL   ?XSTACK_DISP0_8
   \   000011   12....       LCALL   ?Subroutine50 & 0xFFFF
    561            dstAddr.addr.shortAddr = NWK_BROADCAST_SHORTADDR_DEVRXON;
    562          
    563            ZDP_TmpBuf[0] = LO_UINT16( nwkAddr );
   \                     ??CrossCallReturnLabel_71:
   \   000014   12....       LCALL   ?Subroutine32 & 0xFFFF
   \                     ??CrossCallReturnLabel_144:
   \   000017   EA           MOV     A,R2
   \   000018   12....       LCALL   ?Subroutine31 & 0xFFFF
    564            ZDP_TmpBuf[1] = HI_UINT16( nwkAddr );
   \                     ??CrossCallReturnLabel_119:
   \   00001B   EB           MOV     A,R3
   \   00001C   F0           MOVX    @DPTR,A
    565            osal_cpyExtAddr( &ZDP_TmpBuf[2], IEEEAddr );
   \   00001D                ; Setup parameters for call to function sAddrExtCpy
   \   00001D   90....       MOV     DPTR,#ZDP_TmpBuf
   \   000020   E0           MOVX    A,@DPTR
   \   000021   2402         ADD     A,#0x2
   \   000023   FA           MOV     R2,A
   \   000024   A3           INC     DPTR
   \   000025   E0           MOVX    A,@DPTR
   \   000026   3400         ADDC    A,#0x0
   \   000028   12....       LCALL   ?Subroutine23 & 0xFFFF
    566            len = 2 + Z_EXTADDR_LEN;
    567          
    568            ZDP_TmpBuf[10] = capabilities;
   \                     ??CrossCallReturnLabel_19:
   \   00002B   A3           INC     DPTR
   \   00002C   A3           INC     DPTR
   \   00002D   EE           MOV     A,R6
   \   00002E   F0           MOVX    @DPTR,A
    569            len++;
    570          
    571            return fillAndSend( &ZDP_TransID, &dstAddr, Device_annce, len );
   \   00002F                ; Setup parameters for call to function fillAndSend
   \   00002F   75..13       MOV     ?V0 + 0,#0x13
   \   000032   75..00       MOV     ?V0 + 1,#0x0
   \   000035   78..         MOV     R0,#?V0 + 0
   \   000037   12....       LCALL   ?PUSH_XSTACK_I_TWO
   \   00003A   790B         MOV     R1,#0xb
   \   00003C   02....       LJMP    ?Subroutine8 & 0xFFFF
    572          }

   \                                 In  segment BANKED_CODE, align 1, keep-with-next
   \                     ?Subroutine31:
   \   000000   F0           MOVX    @DPTR,A
   \   000001                REQUIRE ??Subroutine91_0
   \   000001                ; // Fall through to label ??Subroutine91_0

   \                                 In  segment BANKED_CODE, align 1, keep-with-next
   \                     ??Subroutine91_0:
   \   000000   12....       LCALL   ?Subroutine77 & 0xFFFF
   \                     ??CrossCallReturnLabel_125:
   \   000003   22           RET

   \                                 In  segment BANKED_CODE, align 1, keep-with-next
   \                     ?Subroutine23:
   \   000000   FB           MOV     R3,A
   \   000001   12....       LCALL   ??sAddrExtCpy?relay
   \   000004   12....       LCALL   ?Subroutine77 & 0xFFFF
   \                     ??CrossCallReturnLabel_123:
   \   000007   A3           INC     DPTR
   \   000008   A3           INC     DPTR
   \   000009   A3           INC     DPTR
   \   00000A   A3           INC     DPTR
   \   00000B   A3           INC     DPTR
   \   00000C   A3           INC     DPTR
   \   00000D   A3           INC     DPTR
   \   00000E   22           RET

   \                                 In  segment BANKED_CODE, align 1, keep-with-next
   \                     ?Subroutine32:
   \   000000   90....       MOV     DPTR,#ZDP_TmpBuf
   \   000003                REQUIRE ??Subroutine96_0
   \   000003                ; // Fall through to label ??Subroutine96_0

   \                                 In  segment BANKED_CODE, align 1, keep-with-next
   \                     ??Subroutine96_0:
   \   000000   12....       LCALL   ?Subroutine79 & 0xFFFF
   \                     ??CrossCallReturnLabel_148:
   \   000003   22           RET
    573          
    574          /*********************************************************************
    575           * Address Responses
    576           */
    577          
    578          /*********************************************************************
    579           * @fn      zdpProcessAddrReq
    580           *
    581           * @brief   Process an incoming NWK_addr_req or IEEE_addr_req message and then
    582           *          build and send a corresponding NWK_addr_rsp or IEEE_addr_rsp msg.
    583           *
    584           * @param   inMsg - incoming message
    585           *
    586           * @return  none
    587           */

   \                                 In  segment BANKED_CODE, align 1, keep-with-next
    588          void zdpProcessAddrReq( zdoIncomingMsg_t *inMsg )
   \                     zdpProcessAddrReq:
    589          {
   \   000000   74F1         MOV     A,#-0xf
   \   000002   12....       LCALL   ?BANKED_ENTER_XDATA
   \   000005                ; Saved register size: 15
   \   000005                ; Auto size: 0
   \   000005   8A..         MOV     ?V0 + 0,R2
   \   000007   8B..         MOV     ?V0 + 1,R3
    590            associated_devices_t *pAssoc;
    591            uint8 reqType;
    592            uint16 aoi = INVALID_NODE_ADDR;
   \   000009   7EFE         MOV     R6,#-0x2
   \   00000B   7FFF         MOV     R7,#-0x1
    593            uint8 *ieee = NULL;
   \   00000D   75..00       MOV     ?V0 + 2,#0x0
   \   000010   75..00       MOV     ?V0 + 3,#0x0
    594          
    595            reqType = inMsg->asdu[(inMsg->clusterID == NWK_addr_req) ? Z_EXTADDR_LEN : sizeof( uint16 ) ];
   \   000013   EA           MOV     A,R2
   \   000014   240C         ADD     A,#0xc
   \   000016   F5..         MOV     ?V0 + 4,A
   \   000018   EB           MOV     A,R3
   \   000019   3400         ADDC    A,#0x0
   \   00001B   F5..         MOV     ?V0 + 5,A
   \   00001D   85..82       MOV     DPL,?V0 + 4
   \   000020   F583         MOV     DPH,A
   \   000022   12....       LCALL   ??Subroutine93_0 & 0xFFFF
   \                     ??CrossCallReturnLabel_129:
   \   000025   EA           MOV     A,R2
   \   000026   4B           ORL     A,R3
   \   000027   7004         JNZ     ??zdpProcessAddrReq_0
   \   000029   7C08         MOV     R4,#0x8
   \   00002B   8002         SJMP    ??zdpProcessAddrReq_1
   \                     ??zdpProcessAddrReq_0:
   \   00002D   7C02         MOV     R4,#0x2
   \                     ??zdpProcessAddrReq_1:
   \   00002F   E5..         MOV     A,?V0 + 0
   \   000031   2413         ADD     A,#0x13
   \   000033   F582         MOV     DPL,A
   \   000035   E5..         MOV     A,?V0 + 1
   \   000037   12....       LCALL   ??Subroutine115_0 & 0xFFFF
   \                     ??CrossCallReturnLabel_251:
   \   00003A   12....       LCALL   ?Subroutine29 & 0xFFFF
   \                     ??CrossCallReturnLabel_35:
   \   00003D   2C           ADD     A,R4
   \   00003E   F582         MOV     DPL,A
   \   000040   E9           MOV     A,R1
   \   000041   12....       LCALL   ??Subroutine116_0 & 0xFFFF
   \                     ??CrossCallReturnLabel_261:
   \   000044   F5..         MOV     ?V0 + 6,A
    596          
    597            if ( inMsg->clusterID == NWK_addr_req )
   \   000046   EA           MOV     A,R2
   \   000047   4B           ORL     A,R3
   \   000048   7017         JNZ     ??zdpProcessAddrReq_2
    598          
    599            {
    600              ieee = inMsg->asdu;
   \   00004A   88..         MOV     ?V0 + 2,R0
   \   00004C   89..         MOV     ?V0 + 3,R1
    601          
    602              if ( osal_ExtAddrEqual( saveExtAddr, ieee ) )
   \   00004E                ; Setup parameters for call to function sAddrExtCmp
   \   00004E   AC..         MOV     R4,?V0 + 2
   \   000050   AD..         MOV     R5,?V0 + 3
   \   000052   7A..         MOV     R2,#saveExtAddr & 0xff
   \   000054   7B..         MOV     R3,#(saveExtAddr >> 8) & 0xff
   \   000056   12....       LCALL   ??sAddrExtCmp?relay
   \   000059   E9           MOV     A,R1
   \   00005A   6037         JZ      ??zdpProcessAddrReq_3
    603              {
    604                aoi = ZDAppNwkAddr.addr.shortAddr;
   \   00005C   12....       LCALL   ?Subroutine20 & 0xFFFF
    605              }
    606              // Handle response for sleeping end devices
    607              else if ( (ZSTACK_ROUTER_BUILD)
    608                && (((pAssoc = AssocGetWithExt( ieee )) != NULL)
    609                       && (pAssoc->nodeRelation == CHILD_RFD)) )
    610              {
    611                aoi = pAssoc->shortAddr;
    612                if ( reqType != ZDP_ADDR_REQTYPE_SINGLE )
    613                  reqType = 0xFF; // Force Invalid
    614              }
    615            }
   \                     ??CrossCallReturnLabel_243:
   \   00005F   8022         SJMP    ??zdpProcessAddrReq_4
    616            else  // if ( inMsg->clusterID == IEEE_addr_req )
    617            {
    618              aoi = BUILD_UINT16( inMsg->asdu[0], inMsg->asdu[1] );
   \                     ??zdpProcessAddrReq_2:
   \   000061   8882         MOV     DPL,R0
   \   000063   8983         MOV     DPH,R1
   \   000065   E0           MOVX    A,@DPTR
   \   000066   FA           MOV     R2,A
   \   000067   A3           INC     DPTR
   \   000068   E0           MOVX    A,@DPTR
   \   000069   F9           MOV     R1,A
   \   00006A   EA           MOV     A,R2
   \   00006B   2400         ADD     A,#0x0
   \   00006D   FE           MOV     R6,A
   \   00006E   E4           CLR     A
   \   00006F   39           ADDC    A,R1
   \   000070   FF           MOV     R7,A
    619          
    620              if ( aoi == ZDAppNwkAddr.addr.shortAddr )
   \   000071   90....       MOV     DPTR,#ZDAppNwkAddr
   \   000074   E0           MOVX    A,@DPTR
   \   000075   6E           XRL     A,R6
   \   000076   7003         JNZ     ??zdpProcessAddrReq_5
   \   000078   A3           INC     DPTR
   \   000079   E0           MOVX    A,@DPTR
   \   00007A   6F           XRL     A,R7
   \                     ??zdpProcessAddrReq_5:
   \   00007B   7006         JNZ     ??zdpProcessAddrReq_4
    621              {
    622                ieee = saveExtAddr;
   \   00007D   75....       MOV     ?V0 + 2,#saveExtAddr & 0xff
   \   000080   75....       MOV     ?V0 + 3,#(saveExtAddr >> 8) & 0xff
    623              }
    624              else if ( (ZSTACK_ROUTER_BUILD)
    625                && (((pAssoc = AssocGetWithShort( aoi )) != NULL)
    626                       && (pAssoc->nodeRelation == CHILD_RFD)) )
    627              {
    628                AddrMgrEntry_t addrEntry;
    629                addrEntry.user = ADDRMGR_USER_DEFAULT;
    630                addrEntry.index = pAssoc->addrIdx;
    631                if ( AddrMgrEntryGet( &addrEntry ) )
    632                {
    633                  ieee = addrEntry.extAddr;
    634                }
    635          
    636                if ( reqType != ZDP_ADDR_REQTYPE_SINGLE )
    637                  reqType = 0xFF; // Force Invalid
    638              }
    639            }
    640          
    641            if ( ((aoi != INVALID_NODE_ADDR) && (ieee != NULL)) || (inMsg->wasBroadcast == FALSE) )
   \                     ??zdpProcessAddrReq_4:
   \   000083   74FE         MOV     A,#-0x2
   \   000085   6E           XRL     A,R6
   \   000086   7003         JNZ     ??zdpProcessAddrReq_6
   \   000088   74FF         MOV     A,#-0x1
   \   00008A   6F           XRL     A,R7
   \                     ??zdpProcessAddrReq_6:
   \   00008B   6006         JZ      ??zdpProcessAddrReq_3
   \   00008D   E5..         MOV     A,?V0 + 2
   \   00008F   45..         ORL     A,?V0 + 3
   \   000091   7010         JNZ     ??zdpProcessAddrReq_7
   \                     ??zdpProcessAddrReq_3:
   \   000093   E5..         MOV     A,?V0 + 0
   \   000095   240B         ADD     A,#0xb
   \   000097   F582         MOV     DPL,A
   \   000099   E5..         MOV     A,?V0 + 1
   \   00009B   12....       LCALL   ??Subroutine116_0 & 0xFFFF
   \                     ??CrossCallReturnLabel_262:
   \   00009E   6003         JZ      $+5
   \   0000A0   02....       LJMP    ??zdpProcessAddrReq_8 & 0xFFFF
    642            {
    643              uint8 stat;
    644              uint8 *pBuf = ZDP_TmpBuf;
   \                     ??zdpProcessAddrReq_7:
   \   0000A3   12....       LCALL   ?Subroutine42 & 0xFFFF
    645              // Status + IEEE-Addr + Nwk-Addr.
    646              uint8 len = 1 + Z_EXTADDR_LEN + 2;
    647              
    648              // If aoi and iee are both setup, we found results
    649              if ( (aoi != INVALID_NODE_ADDR) && (ieee != NULL) )
   \                     ??CrossCallReturnLabel_132:
   \   0000A6   74FE         MOV     A,#-0x2
   \   0000A8   6E           XRL     A,R6
   \   0000A9   7003         JNZ     ??zdpProcessAddrReq_9
   \   0000AB   74FF         MOV     A,#-0x1
   \   0000AD   6F           XRL     A,R7
   \                     ??zdpProcessAddrReq_9:
   \   0000AE   6018         JZ      ??zdpProcessAddrReq_10
   \   0000B0   E5..         MOV     A,?V0 + 2
   \   0000B2   45..         ORL     A,?V0 + 3
   \   0000B4   6012         JZ      ??zdpProcessAddrReq_10
    650              {
    651                stat = ((reqType == ZDP_ADDR_REQTYPE_SINGLE) || (reqType == ZDP_ADDR_REQTYPE_EXTENDED)) 
    652                              ? ZDP_SUCCESS : ZDP_INVALID_REQTYPE;
   \   0000B6   E5..         MOV     A,?V0 + 6
   \   0000B8   6006         JZ      ??zdpProcessAddrReq_11
   \   0000BA   7401         MOV     A,#0x1
   \   0000BC   65..         XRL     A,?V0 + 6
   \   0000BE   7004         JNZ     ??zdpProcessAddrReq_12
   \                     ??zdpProcessAddrReq_11:
   \   0000C0   7C00         MOV     R4,#0x0
   \   0000C2   801D         SJMP    ??zdpProcessAddrReq_13
   \                     ??zdpProcessAddrReq_12:
   \   0000C4   7C80         MOV     R4,#-0x80
   \   0000C6   8019         SJMP    ??zdpProcessAddrReq_13
    653              }
    654              else 
    655              {
    656                // not found and the req was unicast to this device
    657                stat = ZDP_DEVICE_NOT_FOUND;
   \                     ??zdpProcessAddrReq_10:
   \   0000C8   7C81         MOV     R4,#-0x7f
    658                
    659                // Fill in the missing field with this device's address
    660                if ( inMsg->clusterID == NWK_addr_req )
   \   0000CA   85..82       MOV     DPL,?V0 + 4
   \   0000CD   85..83       MOV     DPH,?V0 + 5
   \   0000D0   12....       LCALL   ?Subroutine29 & 0xFFFF
   \                     ??CrossCallReturnLabel_36:
   \   0000D3   49           ORL     A,R1
   \   0000D4   7005         JNZ     ??zdpProcessAddrReq_14
    661                {
    662                  aoi = ZDAppNwkAddr.addr.shortAddr;
   \   0000D6   12....       LCALL   ?Subroutine20 & 0xFFFF
    663                }
   \                     ??CrossCallReturnLabel_244:
   \   0000D9   8006         SJMP    ??zdpProcessAddrReq_13
    664                else
    665                {
    666                  ieee = saveExtAddr;
   \                     ??zdpProcessAddrReq_14:
   \   0000DB   75....       MOV     ?V0 + 2,#saveExtAddr & 0xff
   \   0000DE   75....       MOV     ?V0 + 3,#(saveExtAddr >> 8) & 0xff
    667                }
    668              }
    669          
    670              *pBuf++ = stat;
   \                     ??zdpProcessAddrReq_13:
   \   0000E1   EC           MOV     A,R4
   \   0000E2   8A82         MOV     DPL,R2
   \   0000E4   8B83         MOV     DPH,R3
   \   0000E6   12....       LCALL   ?Subroutine48 & 0xFFFF
    671          
    672              pBuf = osal_cpyExtAddr( pBuf, ieee );
   \                     ??CrossCallReturnLabel_63:
   \   0000E9                ; Setup parameters for call to function sAddrExtCpy
   \   0000E9   AC..         MOV     R4,?V0 + 2
   \   0000EB   AD..         MOV     R5,?V0 + 3
   \   0000ED   12....       LCALL   ??sAddrExtCpy?relay
    673          
    674              *pBuf++ = LO_UINT16( aoi );
   \   0000F0   EE           MOV     A,R6
   \   0000F1   8A82         MOV     DPL,R2
   \   0000F3   8B83         MOV     DPH,R3
   \   0000F5   F0           MOVX    @DPTR,A
   \   0000F6   A3           INC     DPTR
    675              *pBuf++ = HI_UINT16( aoi );
   \   0000F7   EF           MOV     A,R7
   \   0000F8   F0           MOVX    @DPTR,A
    676          
    677              if ( ZSTACK_ROUTER_BUILD )
    678              {
    679                if ( (reqType == ZDP_ADDR_REQTYPE_EXTENDED) && (aoi == ZDAppNwkAddr.addr.shortAddr)
    680                     && (stat == ZDP_SUCCESS) )
    681                {
    682                  uint8  cnt = 0;
    683                  uint16 *list = AssocMakeList( &cnt );
    684          
    685                  if ( list != NULL )
    686                  {
    687                    byte idx = inMsg->asdu[(((inMsg->clusterID == NWK_addr_req) ? Z_EXTADDR_LEN : sizeof( uint16 )) + 1)];
    688                    uint16 *pList = list + idx;
    689          
    690                    // NumAssocDev field is only present on success.
    691                    if ( cnt > idx )
    692                    {
    693                      cnt -= idx;
    694                      len += (cnt * sizeof( uint16 ));
    695                    }
    696                    else
    697                    {
    698                      cnt = 0;
    699                    }
    700                    *pBuf++ = cnt;
    701                    len++;
    702          
    703                    // StartIndex field is only present if NumAssocDev field is non-zero.
    704                    *pBuf++ = idx;
    705                    len++;
    706          
    707                    while ( cnt != 0 )
    708                    {
    709                      *pBuf++ = LO_UINT16( *pList );
    710                      *pBuf++ = HI_UINT16( *pList );
    711                      pList++;
    712                      cnt--;
    713                    }
    714          
    715                    osal_mem_free( (uint8 *)list );
    716                  }
    717                  else
    718                  {
    719                    // NumAssocDev field is only present on success.
    720                    *pBuf++ = 0;
    721                    len++;
    722                  }
    723                }
    724              }
    725          
    726              ZDP_TxOptions = AF_MSG_ACK_REQUEST;
   \   0000F9   90....       MOV     DPTR,#ZDP_TxOptions
   \   0000FC   7410         MOV     A,#0x10
   \   0000FE   F0           MOVX    @DPTR,A
    727              fillAndSend( &(inMsg->TransSeq), &(inMsg->srcAddr), (cId_t)(inMsg->clusterID | ZDO_RESPONSE_BIT), len );
   \   0000FF                ; Setup parameters for call to function fillAndSend
   \   0000FF   85..82       MOV     DPL,?V0 + 4
   \   000102   85..83       MOV     DPH,?V0 + 5
   \   000105   E0           MOVX    A,@DPTR
   \   000106   F5..         MOV     ?V0 + 2,A
   \   000108   A3           INC     DPTR
   \   000109   E0           MOVX    A,@DPTR
   \   00010A   4480         ORL     A,#0x80
   \   00010C   F5..         MOV     ?V0 + 3,A
   \   00010E   78..         MOV     R0,#?V0 + 2
   \   000110   12....       LCALL   ?PUSH_XSTACK_I_TWO
   \   000113   790B         MOV     R1,#0xb
   \   000115   12....       LCALL   ?Subroutine64 & 0xFFFF
   \                     ??CrossCallReturnLabel_88:
   \   000118   12....       LCALL   ??Subroutine112_0 & 0xFFFF
   \                     ??CrossCallReturnLabel_224:
   \   00011B   12....       LCALL   ?DEALLOC_XSTACK8
    728              ZDP_TxOptions = AF_TX_OPTIONS_NONE;
   \   00011E   90....       MOV     DPTR,#ZDP_TxOptions
   \   000121   E4           CLR     A
   \   000122   F0           MOVX    @DPTR,A
    729            }
    730          }
   \                     ??zdpProcessAddrReq_8:
   \   000123   7F07         MOV     R7,#0x7
   \   000125   02....       LJMP    ?BANKED_LEAVE_XDATA

   \                                 In  segment BANKED_CODE, align 1, keep-with-next
   \                     ?Subroutine42:
   \   000000   90....       MOV     DPTR,#ZDP_TmpBuf
   \   000003                REQUIRE ??Subroutine93_0
   \   000003                ; // Fall through to label ??Subroutine93_0

   \                                 In  segment BANKED_CODE, align 1, keep-with-next
   \                     ??Subroutine93_0:
   \   000000   E0           MOVX    A,@DPTR
   \   000001   FA           MOV     R2,A
   \   000002   A3           INC     DPTR
   \   000003   E0           MOVX    A,@DPTR
   \   000004   FB           MOV     R3,A
   \   000005   22           RET

   \                                 In  segment BANKED_CODE, align 1, keep-with-next
   \                     ?Subroutine64:
   \   000000   E5..         MOV     A,?V0 + 0
   \   000002   2402         ADD     A,#0x2
   \   000004   FC           MOV     R4,A
   \   000005   E5..         MOV     A,?V0 + 1
   \   000007   3400         ADDC    A,#0x0
   \   000009   FD           MOV     R5,A
   \   00000A   E5..         MOV     A,?V0 + 0
   \   00000C   240F         ADD     A,#0xf
   \   00000E   FA           MOV     R2,A
   \   00000F   E5..         MOV     A,?V0 + 1
   \   000011   3400         ADDC    A,#0x0
   \   000013   FB           MOV     R3,A
   \   000014   22           RET

   \                                 In  segment BANKED_CODE, align 1, keep-with-next
   \                     ?Subroutine48:
   \   000000   F0           MOVX    @DPTR,A
   \   000001   A3           INC     DPTR
   \   000002   AA82         MOV     R2,DPL
   \   000004   AB83         MOV     R3,DPH
   \   000006   22           RET

   \                                 In  segment BANKED_CODE, align 1, keep-with-next
   \                     ?Subroutine20:
   \   000000   90....       MOV     DPTR,#ZDAppNwkAddr
   \   000003                REQUIRE ??Subroutine113_0
   \   000003                ; // Fall through to label ??Subroutine113_0

   \                                 In  segment BANKED_CODE, align 1, keep-with-next
   \                     ??Subroutine113_0:
   \   000000   E0           MOVX    A,@DPTR
   \   000001   FE           MOV     R6,A
   \   000002   A3           INC     DPTR
   \   000003   E0           MOVX    A,@DPTR
   \   000004   FF           MOV     R7,A
   \   000005   22           RET

   \                                 In  segment BANKED_CODE, align 1, keep-with-next
   \                     ??Subroutine115_0:
   \   000000   3400         ADDC    A,#0x0
   \   000002   F583         MOV     DPH,A
   \   000004   22           RET

   \                                 In  segment BANKED_CODE, align 1, keep-with-next
   \                     ??Subroutine116_0:
   \   000000   3400         ADDC    A,#0x0
   \   000002   F583         MOV     DPH,A
   \   000004   E0           MOVX    A,@DPTR
   \   000005   22           RET
    731          
    732          /*********************************************************************
    733           * @fn          ZDP_NodeDescMsg
    734           *
    735           * @brief       Builds and sends a Node Descriptor message, unicast to the
    736           *              specified device.
    737           *
    738           * @param       inMsg - incoming message
    739           * @param       nwkAddr - 16 bit network address for device
    740           * @param       pNodeDesc - pointer to the node descriptor
    741           *
    742           * @return      afStatus_t
    743           */

   \                                 In  segment BANKED_CODE, align 1, keep-with-next
    744          afStatus_t ZDP_NodeDescMsg( zdoIncomingMsg_t *inMsg,
   \                     ZDP_NodeDescMsg:
    745                                     uint16 nwkAddr, NodeDescriptorFormat_t *pNodeDesc )
    746          {
   \   000000   74F6         MOV     A,#-0xa
   \   000002   12....       LCALL   ?BANKED_ENTER_XDATA
   \   000005                ; Saved register size: 10
   \   000005                ; Auto size: 0
   \   000005   740A         MOV     A,#0xa
   \   000007   12....       LCALL   ?XSTACK_DISP0_8
   \   00000A   12....       LCALL   ??Subroutine113_0 & 0xFFFF
    747            uint8 *pBuf = ZDP_TmpBuf;
   \                     ??CrossCallReturnLabel_236:
   \   00000D   12....       LCALL   ??Subroutine117_0 & 0xFFFF
    748            byte len;
    749          
    750            len = 1 + 2 + 13;  // Status + nwkAddr + Node descriptor
    751          
    752            *pBuf++ = ZDP_SUCCESS;
   \                     ??CrossCallReturnLabel_284:
   \   000010   8882         MOV     DPL,R0
   \   000012   8983         MOV     DPH,R1
   \   000014   12....       LCALL   ?Subroutine57 & 0xFFFF
    753          
    754            *pBuf++ = LO_UINT16( nwkAddr );
    755            *pBuf++ = HI_UINT16( nwkAddr );
   \                     ??CrossCallReturnLabel_79:
   \   000017   12....       LCALL   ??Subroutine98_0 & 0xFFFF
    756          
    757            *pBuf++ = (byte)((pNodeDesc->ComplexDescAvail << 3) |
    758                               (pNodeDesc->UserDescAvail << 4) |
    759                               (pNodeDesc->LogicalType & 0x07));
   \                     ??CrossCallReturnLabel_152:
   \   00001A   8E82         MOV     DPL,R6
   \   00001C   8F83         MOV     DPH,R7
   \   00001E   E0           MOVX    A,@DPTR
   \   00001F   541F         ANL     A,#0x1f
   \   000021   12....       LCALL   ?Subroutine74 & 0xFFFF
    760          
    761            *pBuf++ = (byte)((pNodeDesc->FrequencyBand << 3) | (pNodeDesc->APSFlags & 0x07));
   \                     ??CrossCallReturnLabel_104:
   \   000024   12....       LCALL   ?Subroutine24 & 0xFFFF
    762            *pBuf++ = pNodeDesc->CapabilityFlags;
   \                     ??CrossCallReturnLabel_21:
   \   000027   12....       LCALL   ?Subroutine24 & 0xFFFF
    763            *pBuf++ = pNodeDesc->ManufacturerCode[0];
   \                     ??CrossCallReturnLabel_22:
   \   00002A   A3           INC     DPTR
   \   00002B   12....       LCALL   ?Subroutine21 & 0xFFFF
    764            *pBuf++ = pNodeDesc->ManufacturerCode[1];
   \                     ??CrossCallReturnLabel_15:
   \   00002E   12....       LCALL   ?Subroutine21 & 0xFFFF
    765            *pBuf++ = pNodeDesc->MaxBufferSize;
   \                     ??CrossCallReturnLabel_16:
   \   000031   A3           INC     DPTR
   \   000032   12....       LCALL   ?Subroutine17 & 0xFFFF
    766            *pBuf++ = pNodeDesc->MaxInTransferSize[0];
   \                     ??CrossCallReturnLabel_8:
   \   000035   12....       LCALL   ?Subroutine17 & 0xFFFF
    767            *pBuf++ = pNodeDesc->MaxInTransferSize[1];
   \                     ??CrossCallReturnLabel_9:
   \   000038   12....       LCALL   ?Subroutine19 & 0xFFFF
    768          
    769            *pBuf++ = LO_UINT16( pNodeDesc->ServerMask );
   \                     ??CrossCallReturnLabel_126:
   \   00003B   2408         ADD     A,#0x8
   \   00003D   FC           MOV     R4,A
   \   00003E   EF           MOV     A,R7
   \   00003F   12....       LCALL   ?Subroutine14 & 0xFFFF
    770            *pBuf++ = HI_UINT16( pNodeDesc->ServerMask );
    771            *pBuf++ = pNodeDesc->MaxOutTransferSize[0];
   \                     ??CrossCallReturnLabel_4:
   \   000042   8E82         MOV     DPL,R6
   \   000044   8F83         MOV     DPH,R7
   \   000046   A3           INC     DPTR
   \   000047   A3           INC     DPTR
   \   000048   A3           INC     DPTR
   \   000049   A3           INC     DPTR
   \   00004A   A3           INC     DPTR
   \   00004B   A3           INC     DPTR
   \   00004C   A3           INC     DPTR
   \   00004D   A3           INC     DPTR
   \   00004E   A3           INC     DPTR
   \   00004F   12....       LCALL   ?Subroutine19 & 0xFFFF
    772            *pBuf++ = pNodeDesc->MaxOutTransferSize[1];
   \                     ??CrossCallReturnLabel_127:
   \   000052   240B         ADD     A,#0xb
   \   000054   12....       LCALL   ?Subroutine66 & 0xFFFF
   \                     ??CrossCallReturnLabel_257:
   \   000057   12....       LCALL   ??Subroutine92_0 & 0xFFFF
    773            *pBuf = pNodeDesc->DescriptorCapability;
   \                     ??CrossCallReturnLabel_128:
   \   00005A   240C         ADD     A,#0xc
   \   00005C   12....       LCALL   ?Subroutine66 & 0xFFFF
   \                     ??CrossCallReturnLabel_258:
   \   00005F   12....       LCALL   ?Subroutine45 & 0xFFFF
    774          
    775            return fillAndSend( &(inMsg->TransSeq), &(inMsg->srcAddr), Node_Desc_rsp, len );
   \                     ??CrossCallReturnLabel_57:
   \   000062                ; Setup parameters for call to function fillAndSend
   \   000062   75..02       MOV     ?V0 + 0,#0x2
   \   000065   75..80       MOV     ?V0 + 1,#-0x80
   \   000068   78..         MOV     R0,#?V0 + 0
   \   00006A   12....       LCALL   ?PUSH_XSTACK_I_TWO
   \   00006D   7910         MOV     R1,#0x10
   \   00006F   EA           MOV     A,R2
   \   000070   2402         ADD     A,#0x2
   \   000072   FC           MOV     R4,A
   \   000073   EB           MOV     A,R3
   \   000074   3400         ADDC    A,#0x0
   \   000076   FD           MOV     R5,A
   \   000077   EA           MOV     A,R2
   \   000078   240F         ADD     A,#0xf
   \   00007A   FA           MOV     R2,A
   \   00007B   EB           MOV     A,R3
   \   00007C                REQUIRE ?Subroutine9
   \   00007C                ; // Fall through to label ?Subroutine9
    776          }

   \                                 In  segment BANKED_CODE, align 1, keep-with-next
   \                     ?Subroutine9:
   \   000000   3400         ADDC    A,#0x0
   \   000002   FB           MOV     R3,A
   \   000003   02....       LJMP    ??Subroutine88_0 & 0xFFFF

   \                                 In  segment BANKED_CODE, align 1, keep-with-next
   \                     ?Subroutine24:
   \   000000   E0           MOVX    A,@DPTR
   \   000001   12....       LCALL   ?Subroutine74 & 0xFFFF
   \                     ??CrossCallReturnLabel_105:
   \   000004   A3           INC     DPTR
   \   000005   22           RET

   \                                 In  segment BANKED_CODE, align 1, keep-with-next
   \                     ?Subroutine74:
   \   000000   12....       LCALL   ?Subroutine82 & 0xFFFF
   \                     ??CrossCallReturnLabel_111:
   \   000003   22           RET

   \                                 In  segment BANKED_CODE, align 1, keep-with-next
   \                     ?Subroutine82:
   \   000000   8882         MOV     DPL,R0
   \   000002   8983         MOV     DPH,R1
   \   000004   F0           MOVX    @DPTR,A
   \   000005   A3           INC     DPTR
   \   000006   08           INC     R0
   \   000007   A983         MOV     R1,DPH
   \   000009   8E82         MOV     DPL,R6
   \   00000B   8F83         MOV     DPH,R7
   \   00000D   A3           INC     DPTR
   \   00000E   22           RET

   \                                 In  segment BANKED_CODE, align 1, keep-with-next
   \                     ?Subroutine21:
   \   000000   12....       LCALL   ?Subroutine72 & 0xFFFF
   \                     ??CrossCallReturnLabel_102:
   \   000003   22           RET

   \                                 In  segment BANKED_CODE, align 1, keep-with-next
   \                     ?Subroutine72:
   \   000000   E0           MOVX    A,@DPTR
   \   000001   12....       LCALL   ?Subroutine82 & 0xFFFF
   \                     ??CrossCallReturnLabel_112:
   \   000004   A3           INC     DPTR
   \   000005   A3           INC     DPTR
   \   000006   A3           INC     DPTR
   \   000007   22           RET

   \                                 In  segment BANKED_CODE, align 1, keep-with-next
   \                     ?Subroutine19:
   \   000000   A3           INC     DPTR
   \   000001                REQUIRE ??Subroutine92_0
   \   000001                ; // Fall through to label ??Subroutine92_0

   \                                 In  segment BANKED_CODE, align 1, keep-with-next
   \                     ??Subroutine92_0:
   \   000000   12....       LCALL   ??Subroutine109_0 & 0xFFFF
   \                     ??CrossCallReturnLabel_206:
   \   000003   EE           MOV     A,R6
   \   000004   22           RET

   \                                 In  segment BANKED_CODE, align 1, keep-with-next
   \                     ?Subroutine17:
   \   000000   12....       LCALL   ?Subroutine72 & 0xFFFF
   \                     ??CrossCallReturnLabel_103:
   \   000003   A3           INC     DPTR
   \   000004   A3           INC     DPTR
   \   000005   22           RET

   \                                 In  segment BANKED_CODE, align 1, keep-with-next
   \                     ?Subroutine57:
   \   000000   E4           CLR     A
   \   000001   F0           MOVX    @DPTR,A
   \   000002   A3           INC     DPTR
   \   000003   EC           MOV     A,R4
   \   000004   F0           MOVX    @DPTR,A
   \   000005   A3           INC     DPTR
   \   000006   ED           MOV     A,R5
   \   000007   22           RET

   \                                 In  segment BANKED_CODE, align 1, keep-with-next
   \                     ?Subroutine14:
   \   000000   3400         ADDC    A,#0x0
   \   000002   FD           MOV     R5,A
   \   000003   8C82         MOV     DPL,R4
   \   000005   8D83         MOV     DPH,R5
   \   000007   12....       LCALL   ??Subroutine109_0 & 0xFFFF
   \                     ??CrossCallReturnLabel_205:
   \   00000A   12....       LCALL   ?Subroutine75 & 0xFFFF
   \                     ??CrossCallReturnLabel_211:
   \   00000D   22           RET

   \                                 In  segment BANKED_CODE, align 1, keep-with-next
   \                     ?Subroutine66:
   \   000000   F582         MOV     DPL,A
   \   000002   EF           MOV     A,R7
   \   000003                REQUIRE ??Subroutine115_0
   \   000003                ; // Fall through to label ??Subroutine115_0
    777          
    778          /*********************************************************************
    779           * @fn          ZDP_PowerDescMsg
    780           *
    781           * @brief       Builds and sends a Power Descriptor message, unicast to the
    782           *              specified device.
    783           *
    784           * @param       inMsg - incoming message (request)
    785           * @param       nwkAddr - 16 bit network address for device
    786           * @param       pPowerDesc - pointer to the node descriptor
    787           *
    788           * @return      afStatus_t
    789           */

   \                                 In  segment BANKED_CODE, align 1, keep-with-next
    790          afStatus_t ZDP_PowerDescMsg( zdoIncomingMsg_t *inMsg,
   \                     ZDP_PowerDescMsg:
    791                               uint16 nwkAddr, NodePowerDescriptorFormat_t *pPowerDesc )
    792          {
   \   000000   74F6         MOV     A,#-0xa
   \   000002   12....       LCALL   ?BANKED_ENTER_XDATA
   \   000005                ; Saved register size: 10
   \   000005                ; Auto size: 0
   \   000005   EA           MOV     A,R2
   \   000006   FE           MOV     R6,A
   \   000007   EB           MOV     A,R3
   \   000008   FF           MOV     R7,A
   \   000009   740A         MOV     A,#0xa
   \   00000B   12....       LCALL   ?XSTACK_DISP0_8
   \   00000E   12....       LCALL   ??Subroutine118_0 & 0xFFFF
    793            uint8 *pBuf = ZDP_TmpBuf;
   \                     ??CrossCallReturnLabel_272:
   \   000011   12....       LCALL   ?Subroutine42 & 0xFFFF
    794            byte len = 1 + 2 + 2;  // Status + nwkAddr + Node Power descriptor.
    795          
    796            *pBuf++ = ZDP_SUCCESS;
   \                     ??CrossCallReturnLabel_133:
   \   000014   8A82         MOV     DPL,R2
   \   000016   8B83         MOV     DPH,R3
   \   000018   12....       LCALL   ?Subroutine57 & 0xFFFF
    797          
    798            *pBuf++ = LO_UINT16( nwkAddr );
    799            *pBuf++ = HI_UINT16( nwkAddr );
   \                     ??CrossCallReturnLabel_80:
   \   00001B   12....       LCALL   ?Subroutine48 & 0xFFFF
    800          
    801            *pBuf++ = (byte)((pPowerDesc->AvailablePowerSources << 4)
    802                              | (pPowerDesc->PowerMode & 0x0F));
   \                     ??CrossCallReturnLabel_64:
   \   00001E   12....       LCALL   ?Subroutine28 & 0xFFFF
    803            *pBuf++ = (byte)((pPowerDesc->CurrentPowerSourceLevel << 4)
    804                              | (pPowerDesc->CurrentPowerSource & 0x0F));
   \                     ??CrossCallReturnLabel_31:
   \   000021   12....       LCALL   ??Subroutine106_0 & 0xFFFF
   \                     ??CrossCallReturnLabel_189:
   \   000024   540F         ANL     A,#0xf
   \   000026   F9           MOV     R1,A
   \   000027   740C         MOV     A,#0xc
   \   000029   78..         MOV     R0,#?V0 + 0
   \   00002B   12....       LCALL   ?US_SHR
   \   00002E   E5..         MOV     A,?V0 + 0
   \   000030   C4           SWAP    A
   \   000031   49           ORL     A,R1
   \   000032   8A82         MOV     DPL,R2
   \   000034   8B83         MOV     DPH,R3
   \   000036   F0           MOVX    @DPTR,A
    805          
    806            return fillAndSend( &(inMsg->TransSeq), &(inMsg->srcAddr), Power_Desc_rsp, len );
   \   000037                ; Setup parameters for call to function fillAndSend
   \   000037   75..03       MOV     ?V0 + 0,#0x3
   \   00003A   75..80       MOV     ?V0 + 1,#-0x80
   \   00003D   78..         MOV     R0,#?V0 + 0
   \   00003F   12....       LCALL   ?PUSH_XSTACK_I_TWO
   \   000042   7905         MOV     R1,#0x5
   \   000044   EE           MOV     A,R6
   \   000045   2402         ADD     A,#0x2
   \   000047   FC           MOV     R4,A
   \   000048   EF           MOV     A,R7
   \   000049   3400         ADDC    A,#0x0
   \   00004B   FD           MOV     R5,A
   \   00004C   EE           MOV     A,R6
   \   00004D   240F         ADD     A,#0xf
   \   00004F   FA           MOV     R2,A
   \   000050   EF           MOV     A,R7
   \   000051   02....       LJMP    ?Subroutine9 & 0xFFFF
    807          }

   \                                 In  segment BANKED_CODE, align 1, keep-with-next
   \                     ?Subroutine76:
   \   000000   12....       LCALL   ?Subroutine85 & 0xFFFF
   \                     ??CrossCallReturnLabel_114:
   \   000003   AB83         MOV     R3,DPH
   \   000005   22           RET

   \                                 In  segment BANKED_CODE, align 1, keep-with-next
   \                     ?Subroutine85:
   \   000000   E0           MOVX    A,@DPTR
   \   000001   8A82         MOV     DPL,R2
   \   000003   8B83         MOV     DPH,R3
   \   000005   F0           MOVX    @DPTR,A
   \   000006   A3           INC     DPTR
   \   000007   0A           INC     R2
   \   000008   22           RET

   \                                 In  segment BANKED_CODE, align 1, keep-with-next
   \                     ?Subroutine28:
   \   000000   8882         MOV     DPL,R0
   \   000002   8983         MOV     DPH,R1
   \   000004   12....       LCALL   ?Subroutine76 & 0xFFFF
   \                     ??CrossCallReturnLabel_106:
   \   000007   8882         MOV     DPL,R0
   \   000009   8983         MOV     DPH,R1
   \   00000B   22           RET
    808          
    809          /*********************************************************************
    810           * @fn          ZDP_SimpleDescMsg
    811           *
    812           * @brief       Builds and sends a Simple Descriptor message, unicast to the
    813           *              specified device.
    814           *
    815           * @param       inMsg - incoming message (request)
    816           * @param       Status - message status (ZDP_SUCCESS or other)
    817           * @param       pSimpleDesc - pointer to the node descriptor
    818           *
    819           * @return      afStatus_t
    820           */

   \                                 In  segment BANKED_CODE, align 1, keep-with-next
    821          afStatus_t ZDP_SimpleDescMsg( zdoIncomingMsg_t *inMsg, byte Status,
   \                     ZDP_SimpleDescMsg:
    822                                        SimpleDescriptionFormat_t *pSimpleDesc )
    823          {
   \   000000   74EC         MOV     A,#-0x14
   \   000002   12....       LCALL   ?BANKED_ENTER_XDATA
   \   000005                ; Saved register size: 20
   \   000005                ; Auto size: 0
   \   000005   8A..         MOV     ?V0 + 0,R2
   \   000007   8B..         MOV     ?V0 + 1,R3
   \   000009   12....       LCALL   ?Subroutine43 & 0xFFFF
    824            uint8 *pBuf = ZDP_TmpBuf;
    825            uint8 i, len;
    826          
    827            if ( Status == ZDP_SUCCESS && pSimpleDesc )
   \                     ??CrossCallReturnLabel_269:
   \   00000C   EC           MOV     A,R4
   \   00000D   2409         ADD     A,#0x9
   \   00000F   FA           MOV     R2,A
   \   000010   ED           MOV     A,R5
   \   000011   3400         ADDC    A,#0x0
   \   000013   FB           MOV     R3,A
   \   000014   8A..         MOV     ?V0 + 4,R2
   \   000016   8B..         MOV     ?V0 + 5,R3
   \   000018   EC           MOV     A,R4
   \   000019   2406         ADD     A,#0x6
   \   00001B   1A           DEC     R2
   \   00001C   1A           DEC     R2
   \   00001D   1A           DEC     R2
   \   00001E   ED           MOV     A,R5
   \   00001F   3400         ADDC    A,#0x0
   \   000021   FB           MOV     R3,A
   \   000022   8A..         MOV     ?V0 + 6,R2
   \   000024   8B..         MOV     ?V0 + 7,R3
   \   000026   EE           MOV     A,R6
   \   000027   7029         JNZ     ??ZDP_SimpleDescMsg_0
   \   000029   EC           MOV     A,R4
   \   00002A   4D           ORL     A,R5
   \   00002B   6025         JZ      ??ZDP_SimpleDescMsg_0
    828            {
    829              // Status + NWKAddrOfInterest + desc length + empty simple descriptor.
    830              len = 1 + 2 + 1 + 8;
    831              len += (pSimpleDesc->AppNumInClusters + pSimpleDesc->AppNumOutClusters) * sizeof ( uint16 );
   \   00002D   85..82       MOV     DPL,?V0 + 4
   \   000030   85..83       MOV     DPH,?V0 + 5
   \   000033   C082         PUSH    DPL
   \   000035   C083         PUSH    DPH
   \   000037   8A82         MOV     DPL,R2
   \   000039   8B83         MOV     DPH,R3
   \   00003B   E0           MOVX    A,@DPTR
   \   00003C   D083         POP     DPH
   \   00003E   D082         POP     DPL
   \   000040   FA           MOV     R2,A
   \   000041   E0           MOVX    A,@DPTR
   \   000042   2A           ADD     A,R2
   \   000043   C3           CLR     C
   \   000044   33           RLC     A
   \   000045   240C         ADD     A,#0xc
   \   000047   FA           MOV     R2,A
    832            }
    833            else
    834            {
    835              len = 1 + 2 + 1; // Status + desc length
    836            }
    837            if ( len >= ZDP_BUF_SZ-1 )
   \   000048   C3           CLR     C
   \   000049   944F         SUBB    A,#0x4f
   \   00004B   4007         JC      ??ZDP_SimpleDescMsg_1
    838            {
    839              return afStatus_MEM_FAIL;
   \   00004D   7910         MOV     R1,#0x10
   \   00004F   02....       LJMP    ??ZDP_SimpleDescMsg_2 & 0xFFFF
    840            }
   \                     ??ZDP_SimpleDescMsg_0:
   \   000052   7A04         MOV     R2,#0x4
    841          
    842            *pBuf++ = Status;
   \                     ??ZDP_SimpleDescMsg_1:
   \   000054   EE           MOV     A,R6
   \   000055   12....       LCALL   ?Subroutine49 & 0xFFFF
    843          
    844            *pBuf++ = LO_UINT16( ZDAppNwkAddr.addr.shortAddr );
   \                     ??CrossCallReturnLabel_156:
   \   000058   90....       MOV     DPTR,#ZDAppNwkAddr
   \   00005B   12....       LCALL   ??Subroutine107_0 & 0xFFFF
    845            *pBuf++ = HI_UINT16( ZDAppNwkAddr.addr.shortAddr );
   \                     ??CrossCallReturnLabel_198:
   \   00005E   90....       MOV     DPTR,#ZDAppNwkAddr + 1
   \   000061   12....       LCALL   ?Subroutine45 & 0xFFFF
   \                     ??CrossCallReturnLabel_58:
   \   000064   A3           INC     DPTR
    846          
    847            if ( len > 4 )
   \   000065   EA           MOV     A,R2
   \   000066   C3           CLR     C
   \   000067   9405         SUBB    A,#0x5
   \   000069   5003         JNC     $+5
   \   00006B   02....       LJMP    ??ZDP_SimpleDescMsg_3 & 0xFFFF
    848            {
    849              *pBuf++ = len - 4;   // Simple descriptor length
   \   00006E   74FC         MOV     A,#-0x4
   \   000070   2A           ADD     A,R2
   \   000071   F0           MOVX    @DPTR,A
   \   000072   A3           INC     DPTR
   \   000073   08           INC     R0
   \   000074   08           INC     R0
   \   000075   A983         MOV     R1,DPH
    850          
    851              *pBuf++ = pSimpleDesc->EndPoint;
   \   000077   8C82         MOV     DPL,R4
   \   000079   8D83         MOV     DPH,R5
   \   00007B   12....       LCALL   ??Subroutine107_0 & 0xFFFF
    852              *pBuf++ = LO_UINT16( pSimpleDesc->AppProfId );
   \                     ??CrossCallReturnLabel_199:
   \   00007E   8C82         MOV     DPL,R4
   \   000080   8D83         MOV     DPH,R5
   \   000082   A3           INC     DPTR
   \   000083   8582..       MOV     ?V0 + 2,DPL
   \   000086   8583..       MOV     ?V0 + 3,DPH
   \   000089   12....       LCALL   ?Subroutine13 & 0xFFFF
    853              *pBuf++ = HI_UINT16( pSimpleDesc->AppProfId );
    854              *pBuf++ = LO_UINT16( pSimpleDesc->AppDeviceId );
   \                     ??CrossCallReturnLabel_2:
   \   00008C   EC           MOV     A,R4
   \   00008D   2403         ADD     A,#0x3
   \   00008F   F5..         MOV     ?V0 + 2,A
   \   000091   ED           MOV     A,R5
   \   000092   3400         ADDC    A,#0x0
   \   000094   F5..         MOV     ?V0 + 3,A
   \   000096   85..82       MOV     DPL,?V0 + 2
   \   000099   F583         MOV     DPH,A
   \   00009B   12....       LCALL   ?Subroutine13 & 0xFFFF
    855              *pBuf++ = HI_UINT16( pSimpleDesc->AppDeviceId );
    856          
    857              *pBuf++ = (byte)(pSimpleDesc->AppDevVer << 4);
   \                     ??CrossCallReturnLabel_3:
   \   00009E   8C82         MOV     DPL,R4
   \   0000A0   8D83         MOV     DPH,R5
   \   0000A2   A3           INC     DPTR
   \   0000A3   A3           INC     DPTR
   \   0000A4   A3           INC     DPTR
   \   0000A5   A3           INC     DPTR
   \   0000A6   A3           INC     DPTR
   \   0000A7   E0           MOVX    A,@DPTR
   \   0000A8   C4           SWAP    A
   \   0000A9   54F0         ANL     A,#0xf0
   \   0000AB   12....       LCALL   ??Subroutine110_0 & 0xFFFF
    858          
    859              *pBuf++ = pSimpleDesc->AppNumInClusters;
   \                     ??CrossCallReturnLabel_203:
   \   0000AE   85..82       MOV     DPL,?V0 + 6
   \   0000B1   8B83         MOV     DPH,R3
   \   0000B3   12....       LCALL   ??Subroutine107_0 & 0xFFFF
    860              if ( pSimpleDesc->AppNumInClusters )
   \                     ??CrossCallReturnLabel_200:
   \   0000B6   85..82       MOV     DPL,?V0 + 6
   \   0000B9   8B83         MOV     DPH,R3
   \   0000BB   E0           MOVX    A,@DPTR
   \   0000BC   6033         JZ      ??ZDP_SimpleDescMsg_4
    861              {
    862                for (i=0; i<pSimpleDesc->AppNumInClusters; ++i)
   \   0000BE   7B00         MOV     R3,#0x0
   \   0000C0   EC           MOV     A,R4
   \   0000C1   2407         ADD     A,#0x7
   \   0000C3   F5..         MOV     ?V0 + 2,A
   \   0000C5   ED           MOV     A,R5
   \   0000C6   3400         ADDC    A,#0x0
   \   0000C8   85....       MOV     ?V0 + 8,?V0 + 2
   \   0000CB   F5..         MOV     ?V0 + 9,A
   \   0000CD   8015         SJMP    ??CrossCallReturnLabel_41
    863                {
    864                  *pBuf++ = LO_UINT16( pSimpleDesc->pAppInClusterList[i] );
   \                     ??ZDP_SimpleDescMsg_5:
   \   0000CF   EB           MOV     A,R3
   \   0000D0   C3           CLR     C
   \   0000D1   33           RLC     A
   \   0000D2   F5..         MOV     ?V0 + 2,A
   \   0000D4   E4           CLR     A
   \   0000D5   33           RLC     A
   \   0000D6   F5..         MOV     ?V0 + 3,A
   \   0000D8   12....       LCALL   ?Subroutine33 & 0xFFFF
   \                     ??CrossCallReturnLabel_39:
   \   0000DB   12....       LCALL   ?Subroutine36 & 0xFFFF
    865                  *pBuf++ = HI_UINT16( pSimpleDesc->pAppInClusterList[i] );
   \                     ??CrossCallReturnLabel_43:
   \   0000DE   12....       LCALL   ?Subroutine33 & 0xFFFF
    866                }
   \                     ??CrossCallReturnLabel_40:
   \   0000E1   12....       LCALL   ?Subroutine34 & 0xFFFF
   \                     ??CrossCallReturnLabel_41:
   \   0000E4   85..82       MOV     DPL,?V0 + 6
   \   0000E7   85..83       MOV     DPH,?V0 + 7
   \   0000EA   E0           MOVX    A,@DPTR
   \   0000EB   FF           MOV     R7,A
   \   0000EC   EB           MOV     A,R3
   \   0000ED   C3           CLR     C
   \   0000EE   9F           SUBB    A,R7
   \   0000EF   40DE         JC      ??ZDP_SimpleDescMsg_5
    867              }
    868          
    869              *pBuf++ = pSimpleDesc->AppNumOutClusters;
   \                     ??ZDP_SimpleDescMsg_4:
   \   0000F1   85..82       MOV     DPL,?V0 + 4
   \   0000F4   85..83       MOV     DPH,?V0 + 5
   \   0000F7   12....       LCALL   ?Subroutine36 & 0xFFFF
    870              if ( pSimpleDesc->AppNumOutClusters )
   \                     ??CrossCallReturnLabel_44:
   \   0000FA   85..82       MOV     DPL,?V0 + 4
   \   0000FD   85..83       MOV     DPH,?V0 + 5
   \   000100   E0           MOVX    A,@DPTR
   \   000101   6038         JZ      ??ZDP_SimpleDescMsg_6
    871              {
    872                for (i=0; i<pSimpleDesc->AppNumOutClusters; ++i)
   \   000103   7B00         MOV     R3,#0x0
   \   000105   EC           MOV     A,R4
   \   000106   240A         ADD     A,#0xa
   \   000108   FC           MOV     R4,A
   \   000109   ED           MOV     A,R5
   \   00010A   3400         ADDC    A,#0x0
   \   00010C   FD           MOV     R5,A
   \   00010D   8C..         MOV     ?V0 + 2,R4
   \   00010F   8D..         MOV     ?V0 + 3,R5
   \                     ??ZDP_SimpleDescMsg_7:
   \   000111   85..82       MOV     DPL,?V0 + 4
   \   000114   85..83       MOV     DPH,?V0 + 5
   \   000117   E0           MOVX    A,@DPTR
   \   000118   FC           MOV     R4,A
   \   000119   EB           MOV     A,R3
   \   00011A   C3           CLR     C
   \   00011B   9C           SUBB    A,R4
   \   00011C   501D         JNC     ??ZDP_SimpleDescMsg_6
    873                {
    874                  *pBuf++ = LO_UINT16( pSimpleDesc->pAppOutClusterList[i] );
   \   00011E   EB           MOV     A,R3
   \   00011F   C3           CLR     C
   \   000120   33           RLC     A
   \   000121   FC           MOV     R4,A
   \   000122   E4           CLR     A
   \   000123   33           RLC     A
   \   000124   FD           MOV     R5,A
   \   000125   85..82       MOV     DPL,?V0 + 2
   \   000128   85..83       MOV     DPH,?V0 + 3
   \   00012B   12....       LCALL   ?Subroutine44 & 0xFFFF
    875                  *pBuf++ = HI_UINT16( pSimpleDesc->pAppOutClusterList[i] );
    876                }
    877              }
    878            }
   \                     ??CrossCallReturnLabel_54:
   \   00012E   12....       LCALL   ?Subroutine22 & 0xFFFF
   \                     ??CrossCallReturnLabel_17:
   \   000131   12....       LCALL   ?Subroutine44 & 0xFFFF
   \                     ??CrossCallReturnLabel_55:
   \   000134   12....       LCALL   ?Subroutine34 & 0xFFFF
   \                     ??CrossCallReturnLabel_42:
   \   000137   80D8         SJMP    ??ZDP_SimpleDescMsg_7
    879          
    880            else
    881            {
    882              *pBuf = 0; // Description Length = 0;
   \                     ??ZDP_SimpleDescMsg_3:
   \   000139   E4           CLR     A
   \   00013A   F0           MOVX    @DPTR,A
    883            }
    884          
    885            return fillAndSend( &(inMsg->TransSeq), &(inMsg->srcAddr), Simple_Desc_rsp, len );
   \                     ??ZDP_SimpleDescMsg_6:
   \   00013B                ; Setup parameters for call to function fillAndSend
   \   00013B   75..04       MOV     ?V0 + 2,#0x4
   \   00013E   75..80       MOV     ?V0 + 3,#-0x80
   \   000141   78..         MOV     R0,#?V0 + 2
   \   000143   12....       LCALL   ?PUSH_XSTACK_I_TWO
   \   000146   EA           MOV     A,R2
   \   000147   F9           MOV     R1,A
   \   000148   12....       LCALL   ?Subroutine64 & 0xFFFF
   \                     ??CrossCallReturnLabel_89:
   \   00014B   12....       LCALL   ??Subroutine112_0 & 0xFFFF
   \                     ??CrossCallReturnLabel_225:
   \   00014E   12....       LCALL   ?DEALLOC_XSTACK8
   \                     ??ZDP_SimpleDescMsg_2:
   \   000151                REQUIRE ?Subroutine4
   \   000151                ; // Fall through to label ?Subroutine4
    886          }

   \                                 In  segment BANKED_CODE, align 1, keep-with-next
   \                     ?Subroutine4:
   \   000000   7F0C         MOV     R7,#0xc
   \   000002   02....       LJMP    ?BANKED_LEAVE_XDATA

   \                                 In  segment BANKED_CODE, align 1, keep-with-next
   \                     ?Subroutine44:
   \   000000   E0           MOVX    A,@DPTR
   \   000001   2C           ADD     A,R4
   \   000002   FF           MOV     R7,A
   \   000003   A3           INC     DPTR
   \   000004   E0           MOVX    A,@DPTR
   \   000005   3D           ADDC    A,R5
   \   000006   8F82         MOV     DPL,R7
   \   000008   F583         MOV     DPH,A
   \   00000A   22           RET

   \                                 In  segment BANKED_CODE, align 1, keep-with-next
   \                     ?Subroutine36:
   \   000000   12....       LCALL   ?Subroutine73 & 0xFFFF
   \                     ??CrossCallReturnLabel_159:
   \   000003   22           RET

   \                                 In  segment BANKED_CODE, align 1, keep-with-next
   \                     ?Subroutine34:
   \   000000   12....       LCALL   ??Subroutine108_0 & 0xFFFF
   \                     ??CrossCallReturnLabel_209:
   \   000003   0B           INC     R3
   \   000004   22           RET

   \                                 In  segment BANKED_CODE, align 1, keep-with-next
   \                     ?Subroutine33:
   \   000000   85..82       MOV     DPL,?V0 + 8
   \   000003   85..83       MOV     DPH,?V0 + 9
   \   000006   E0           MOVX    A,@DPTR
   \   000007   25..         ADD     A,?V0 + 2
   \   000009   FF           MOV     R7,A
   \   00000A   A3           INC     DPTR
   \   00000B   E0           MOVX    A,@DPTR
   \   00000C   35..         ADDC    A,?V0 + 3
   \   00000E   8F82         MOV     DPL,R7
   \   000010   F583         MOV     DPH,A
   \   000012   22           RET

   \                                 In  segment BANKED_CODE, align 1, keep-with-next
   \                     ?Subroutine13:
   \   000000   12....       LCALL   ??Subroutine109_0 & 0xFFFF
   \                     ??CrossCallReturnLabel_204:
   \   000003   85..82       MOV     DPL,?V0 + 2
   \   000006   85..83       MOV     DPH,?V0 + 3
   \   000009   12....       LCALL   ??Subroutine108_0 & 0xFFFF
   \                     ??CrossCallReturnLabel_208:
   \   00000C   22           RET

   \                                 In  segment BANKED_CODE, align 1, keep-with-next
   \                     ??Subroutine107_0:
   \   000000   12....       LCALL   ??Subroutine109_0 & 0xFFFF
   \                     ??CrossCallReturnLabel_207:
   \   000003   22           RET

   \                                 In  segment BANKED_CODE, align 1, keep-with-next
   \                     ?Subroutine22:
   \   000000   12....       LCALL   ?Subroutine73 & 0xFFFF
   \                     ??CrossCallReturnLabel_158:
   \   000003   85..82       MOV     DPL,?V0 + 2
   \   000006   85..83       MOV     DPH,?V0 + 3
   \   000009   22           RET
    887          
    888          /*********************************************************************
    889           * @fn          ZDP_EPRsp
    890           *
    891           * @brief       This builds and send an endpoint list. Used in
    892           *              Active_EP_rsp and Match_Desc_Rsp
    893           *              message.  This function sends unicast message to the
    894           *              requesting device.
    895           *
    896           * @param       MsgType - either Active_EP_rsp or Match_Desc_Rsp
    897           * @param       dstAddr - destination address
    898           * @param       Status - message status (ZDP_SUCCESS or other)
    899           * @param       nwkAddr - Device's short address that this response describes
    900           * @param       Count - number of endpoint/interfaces in list
    901           * @param       pEPIntfList - Array of Endpoint/Interfaces
    902           * @param       SecurityEnable - Security Options
    903           *
    904           * @return      afStatus_t
    905           */

   \                                 In  segment BANKED_CODE, align 1, keep-with-next
    906          afStatus_t ZDP_EPRsp( uint16 MsgType, byte TransSeq, zAddrType_t *dstAddr,
   \                     ZDP_EPRsp:
    907                                  byte Status, uint16 nwkAddr, byte Count,
    908                                  uint8 *pEPList,
    909                                  byte SecurityEnable )
    910          {
   \   000000   74EE         MOV     A,#-0x12
   \   000002   12....       LCALL   ?BANKED_ENTER_XDATA
   \   000005                ; Saved register size: 18
   \   000005                ; Auto size: 1
   \   000005   74FF         MOV     A,#-0x1
   \   000007   12....       LCALL   ?ALLOC_XSTACK8
   \   00000A   E9           MOV     A,R1
   \   00000B   85..82       MOV     DPL,?XSP + 0
   \   00000E   85..83       MOV     DPH,?XSP + 1
   \   000011   F0           MOVX    @DPTR,A
   \   000012   EA           MOV     A,R2
   \   000013   FE           MOV     R6,A
   \   000014   EB           MOV     A,R3
   \   000015   FF           MOV     R7,A
   \   000016   8C..         MOV     ?V0 + 2,R4
   \   000018   8D..         MOV     ?V0 + 3,R5
   \   00001A   7413         MOV     A,#0x13
   \   00001C   12....       LCALL   ?XSTACK_DISP0_8
   \   00001F   E0           MOVX    A,@DPTR
   \   000020   FC           MOV     R4,A
   \   000021   7414         MOV     A,#0x14
   \   000023   12....       LCALL   ?XSTACK_DISP0_8
   \   000026   12....       LCALL   ??Subroutine118_0 & 0xFFFF
   \                     ??CrossCallReturnLabel_273:
   \   000029   7416         MOV     A,#0x16
   \   00002B   12....       LCALL   ?XSTACK_DISP0_8
   \   00002E   E0           MOVX    A,@DPTR
   \   00002F   F5..         MOV     ?V0 + 8,A
   \   000031   7417         MOV     A,#0x17
   \   000033   12....       LCALL   ?XSTACK_DISP0_8
   \   000036   12....       LCALL   ?Subroutine18 & 0xFFFF
    911            uint8 *pBuf = ZDP_TmpBuf;
   \                     ??CrossCallReturnLabel_12:
   \   000039   12....       LCALL   ?Subroutine42 & 0xFFFF
    912            byte len = 1 + 2 + 1;  // Status + nwkAddr + endpoint/interface count.
   \                     ??CrossCallReturnLabel_134:
   \   00003C   75..04       MOV     ?V0 + 0,#0x4
    913            byte txOptions;
    914          
    915            (void)SecurityEnable;  // Intentionally unreferenced parameter
    916          
    917            if ( MsgType == Match_Desc_rsp )
   \   00003F   7406         MOV     A,#0x6
   \   000041   6E           XRL     A,R6
   \   000042   7003         JNZ     ??ZDP_EPRsp_0
   \   000044   7480         MOV     A,#-0x80
   \   000046   6F           XRL     A,R7
   \                     ??ZDP_EPRsp_0:
   \   000047   7005         JNZ     ??ZDP_EPRsp_1
    918              txOptions = AF_MSG_ACK_REQUEST;
   \   000049   75..10       MOV     ?V0 + 1,#0x10
   \   00004C   8003         SJMP    ??ZDP_EPRsp_2
    919            else
    920              txOptions = 0;
   \                     ??ZDP_EPRsp_1:
   \   00004E   75..00       MOV     ?V0 + 1,#0x0
    921          
    922              *pBuf++ = Status;
   \                     ??ZDP_EPRsp_2:
   \   000051   EC           MOV     A,R4
   \   000052   8A82         MOV     DPL,R2
   \   000054   8B83         MOV     DPH,R3
   \   000056   F0           MOVX    @DPTR,A
   \   000057   A3           INC     DPTR
    923            *pBuf++ = LO_UINT16( nwkAddr );
   \   000058   E8           MOV     A,R0
   \   000059   F0           MOVX    @DPTR,A
   \   00005A   A3           INC     DPTR
    924            *pBuf++ = HI_UINT16( nwkAddr );
   \   00005B   E9           MOV     A,R1
   \   00005C   F0           MOVX    @DPTR,A
   \   00005D   A3           INC     DPTR
    925          
    926            *pBuf++ = Count;   // Endpoint/Interface count
   \   00005E   E5..         MOV     A,?V0 + 8
   \   000060   12....       LCALL   ?Subroutine48 & 0xFFFF
    927          
    928            if ( Count )
   \                     ??CrossCallReturnLabel_65:
   \   000063   6016         JZ      ??ZDP_EPRsp_3
    929            {
    930              len += Count;
   \   000065   7404         MOV     A,#0x4
   \   000067   25..         ADD     A,?V0 + 8
   \   000069   F5..         MOV     ?V0 + 0,A
    931              osal_memcpy( pBuf, pEPList, Count );
   \   00006B                ; Setup parameters for call to function osal_memcpy
   \   00006B   75..00       MOV     ?V0 + 6,#0x0
   \   00006E   78..         MOV     R0,#?V0 + 4
   \   000070   12....       LCALL   ?PUSH_XSTACK_I_THREE
   \   000073   AC..         MOV     R4,?V0 + 8
   \   000075   12....       LCALL   ?Subroutine69 & 0xFFFF
    932            }
   \                     ??CrossCallReturnLabel_137:
   \   000078   12....       LCALL   ?DEALLOC_XSTACK8
    933          
    934            FillAndSendTxOptions( &TransSeq, dstAddr, MsgType, len, txOptions );
   \                     ??ZDP_EPRsp_3:
   \   00007B   E5..         MOV     A,?V0 + 1
   \   00007D   90....       MOV     DPTR,#ZDP_TxOptions
   \   000080   F0           MOVX    @DPTR,A
   \   000081                ; Setup parameters for call to function fillAndSend
   \   000081   8E..         MOV     ?V0 + 4,R6
   \   000083   8F..         MOV     ?V0 + 5,R7
   \   000085   78..         MOV     R0,#?V0 + 4
   \   000087   12....       LCALL   ?PUSH_XSTACK_I_TWO
   \   00008A   A9..         MOV     R1,?V0 + 0
   \   00008C   AC..         MOV     R4,?V0 + 2
   \   00008E   AD..         MOV     R5,?V0 + 3
   \   000090   7402         MOV     A,#0x2
   \   000092   12....       LCALL   ?XSTACK_DISP0_8
   \   000095   AA82         MOV     R2,DPL
   \   000097   AB83         MOV     R3,DPH
   \   000099   12....       LCALL   ??Subroutine112_0 & 0xFFFF
   \                     ??CrossCallReturnLabel_226:
   \   00009C   12....       LCALL   ?DEALLOC_XSTACK8
   \   00009F   90....       MOV     DPTR,#ZDP_TxOptions
   \   0000A2   E4           CLR     A
   \   0000A3   F0           MOVX    @DPTR,A
   \   0000A4   04           INC     A
   \   0000A5   02....       LJMP    ?Subroutine3 & 0xFFFF
    935          }

   \                                 In  segment BANKED_CODE, align 1, keep-with-next
   \                     ?Subroutine69:
   \   000000   7D00         MOV     R5,#0x0
   \   000002                REQUIRE ??Subroutine95_0
   \   000002                ; // Fall through to label ??Subroutine95_0

   \                                 In  segment BANKED_CODE, align 1, keep-with-next
   \                     ?Subroutine3:
   \   000000   12....       LCALL   ?DEALLOC_XSTACK8
   \   000003                REQUIRE ??Subroutine97_0
   \   000003                ; // Fall through to label ??Subroutine97_0
    936          
    937          /*********************************************************************
    938           * @fn          ZDP_UserDescRsp
    939           *
    940           * @brief       Build and send the User Decriptor Response.
    941           *
    942           *
    943           * @param       dstAddr - destination address
    944           * @param       nwkAddrOfInterest -
    945           * @param       userDesc -
    946           * @param       SecurityEnable - Security Options
    947           *
    948           * @return      ZStatus_t
    949           */

   \                                 In  segment BANKED_CODE, align 1, keep-with-next
    950          ZStatus_t ZDP_UserDescRsp( byte TransSeq, zAddrType_t *dstAddr,
   \                     ZDP_UserDescRsp:
    951                          uint16 nwkAddrOfInterest, UserDescriptorFormat_t *userDesc,
    952                          byte SecurityEnable )
    953          {
   \   000000   74EE         MOV     A,#-0x12
   \   000002   12....       LCALL   ?BANKED_ENTER_XDATA
   \   000005                ; Saved register size: 18
   \   000005                ; Auto size: 1
   \   000005   74FF         MOV     A,#-0x1
   \   000007   12....       LCALL   ?ALLOC_XSTACK8
   \   00000A   E9           MOV     A,R1
   \   00000B   85..82       MOV     DPL,?XSP + 0
   \   00000E   85..83       MOV     DPH,?XSP + 1
   \   000011   F0           MOVX    @DPTR,A
   \   000012   EA           MOV     A,R2
   \   000013   FE           MOV     R6,A
   \   000014   EB           MOV     A,R3
   \   000015   FF           MOV     R7,A
   \   000016   7413         MOV     A,#0x13
   \   000018   12....       LCALL   ?XSTACK_DISP0_8
   \   00001B   12....       LCALL   ??Subroutine118_0 & 0xFFFF
   \                     ??CrossCallReturnLabel_274:
   \   00001E   88..         MOV     ?V0 + 8,R0
   \   000020   89..         MOV     ?V0 + 9,R1
    954            uint8 *pBuf = ZDP_TmpBuf;
   \   000022   12....       LCALL   ?Subroutine10 & 0xFFFF
    955            byte len = 1 + 2 + 1;  // Status + nwkAddr + descriptor length.
    956          
    957            (void)SecurityEnable;  // Intentionally unreferenced parameter
    958          
    959            len += userDesc->len;
   \                     ??CrossCallReturnLabel_197:
   \   000025   8882         MOV     DPL,R0
   \   000027   8983         MOV     DPH,R1
   \   000029   E0           MOVX    A,@DPTR
   \   00002A   2404         ADD     A,#0x4
   \   00002C   F5..         MOV     ?V0 + 2,A
    960          
    961            *pBuf++ = ZSUCCESS;
   \   00002E   85..82       MOV     DPL,?V0 + 0
   \   000031   85..83       MOV     DPH,?V0 + 1
   \   000034   12....       LCALL   ?Subroutine57 & 0xFFFF
    962          
    963            *pBuf++ = LO_UINT16( nwkAddrOfInterest );
    964            *pBuf++ = HI_UINT16( nwkAddrOfInterest );
   \                     ??CrossCallReturnLabel_81:
   \   000037   12....       LCALL   ?Subroutine53 & 0xFFFF
    965          
    966            *pBuf++ = userDesc->len;
   \                     ??CrossCallReturnLabel_74:
   \   00003A   E0           MOVX    A,@DPTR
   \   00003B   85..82       MOV     DPL,?V0 + 0
   \   00003E   85..83       MOV     DPH,?V0 + 1
   \   000041   12....       LCALL   ?Subroutine53 & 0xFFFF
    967            osal_memcpy( pBuf, userDesc->desc, userDesc->len );
   \                     ??CrossCallReturnLabel_75:
   \   000044   A3           INC     DPTR
   \   000045   A982         MOV     R1,DPL
   \   000047   AA83         MOV     R2,DPH
   \   000049   89..         MOV     ?V0 + 4,R1
   \   00004B   8A..         MOV     ?V0 + 5,R2
   \   00004D   75..00       MOV     ?V0 + 6,#0x0
   \   000050   78..         MOV     R0,#?V0 + 4
   \   000052   12....       LCALL   ?PUSH_XSTACK_I_THREE
   \   000055   85..82       MOV     DPL,?V0 + 8
   \   000058   85..83       MOV     DPH,?V0 + 9
   \   00005B   E0           MOVX    A,@DPTR
   \   00005C   FC           MOV     R4,A
   \   00005D   7D00         MOV     R5,#0x0
   \   00005F   AA..         MOV     R2,?V0 + 0
   \   000061   AB..         MOV     R3,?V0 + 1
   \   000063   12....       LCALL   ??Subroutine95_0 & 0xFFFF
   \                     ??CrossCallReturnLabel_142:
   \   000066   12....       LCALL   ?DEALLOC_XSTACK8
    968          
    969            return (ZStatus_t)fillAndSend( &TransSeq, dstAddr, User_Desc_rsp, len );
   \   000069                ; Setup parameters for call to function fillAndSend
   \   000069   75..11       MOV     ?V0 + 0,#0x11
   \   00006C   75..80       MOV     ?V0 + 1,#-0x80
   \   00006F   78..         MOV     R0,#?V0 + 0
   \   000071   12....       LCALL   ?PUSH_XSTACK_I_TWO
   \   000074   A9..         MOV     R1,?V0 + 2
   \   000076   EE           MOV     A,R6
   \   000077   FC           MOV     R4,A
   \   000078   EF           MOV     A,R7
   \   000079   FD           MOV     R5,A
   \   00007A   7402         MOV     A,#0x2
   \   00007C   12....       LCALL   ?XSTACK_DISP0_8
   \   00007F   AA82         MOV     R2,DPL
   \   000081   AB83         MOV     R3,DPH
   \   000083   12....       LCALL   ??Subroutine112_0 & 0xFFFF
   \                     ??CrossCallReturnLabel_227:
   \   000086   12....       LCALL   ?DEALLOC_XSTACK8
   \   000089   7401         MOV     A,#0x1
   \   00008B   02....       LJMP    ?Subroutine3 & 0xFFFF
    970          }

   \                                 In  segment BANKED_CODE, align 1, keep-with-next
   \                     ?Subroutine53:
   \   000000   F0           MOVX    @DPTR,A
   \   000001   A3           INC     DPTR
   \   000002   8582..       MOV     ?V0 + 0,DPL
   \   000005   8583..       MOV     ?V0 + 1,DPH
   \   000008                ; Setup parameters for call to function osal_memcpy
   \   000008   8882         MOV     DPL,R0
   \   00000A   8983         MOV     DPH,R1
   \   00000C   22           RET
    971          
    972          /*********************************************************************
    973           * @fn          ZDP_ServerDiscRsp
    974           *
    975           * @brief       Build and send the Server_Discovery_rsp response.
    976           *
    977           * @param       transID - Transaction sequence number of request.
    978           * @param       dstAddr - Network Destination Address.
    979           * @param       status - Status of response to request.
    980           * @param       aoi - Network Address of Interest of request.
    981           * @param       serverMask - Bit map of service(s) being sought.
    982           * @param       SecurityEnable - Security Options
    983           *
    984           * @return      ZStatus_t
    985           */

   \                                 In  segment BANKED_CODE, align 1, keep-with-next
    986          ZStatus_t ZDP_ServerDiscRsp( byte transID, zAddrType_t *dstAddr, byte status,
   \                     ZDP_ServerDiscRsp:
    987                                     uint16 aoi, uint16 serverMask, byte SecurityEnable )
    988          {
   \   000000   74F6         MOV     A,#-0xa
   \   000002   12....       LCALL   ?BANKED_ENTER_XDATA
   \   000005                ; Saved register size: 10
   \   000005                ; Auto size: 1
   \   000005   74FF         MOV     A,#-0x1
   \   000007   12....       LCALL   ?ALLOC_XSTACK8
   \   00000A   E9           MOV     A,R1
   \   00000B   85..82       MOV     DPL,?XSP + 0
   \   00000E   85..83       MOV     DPH,?XSP + 1
   \   000011   F0           MOVX    @DPTR,A
   \   000012   EC           MOV     A,R4
   \   000013   FE           MOV     R6,A
   \   000014   740D         MOV     A,#0xd
   \   000016   12....       LCALL   ?XSTACK_DISP0_8
   \   000019   12....       LCALL   ??Subroutine118_0 & 0xFFFF
    989            const byte len = 1  + 2;  // status + aoi + mask.
    990            uint8 *pBuf = ZDP_TmpBuf;
   \                     ??CrossCallReturnLabel_275:
   \   00001C   90....       MOV     DPTR,#ZDP_TmpBuf
   \   00001F   E0           MOVX    A,@DPTR
   \   000020   FC           MOV     R4,A
   \   000021   A3           INC     DPTR
   \   000022   E0           MOVX    A,@DPTR
   \   000023   FD           MOV     R5,A
   \   000024   8C82         MOV     DPL,R4
   \   000026   8D83         MOV     DPH,R5
    991            ZStatus_t stat;
    992          
    993            // Intentionally unreferenced parameters
    994            (void)aoi;
    995            (void)SecurityEnable;
    996          
    997            *pBuf++ = status;
   \   000028   EE           MOV     A,R6
   \   000029   F0           MOVX    @DPTR,A
   \   00002A   A3           INC     DPTR
    998          
    999            *pBuf++ = LO_UINT16( serverMask );
   \   00002B   E8           MOV     A,R0
   \   00002C   F0           MOVX    @DPTR,A
   \   00002D   A3           INC     DPTR
   1000            *pBuf++ = HI_UINT16( serverMask );
   \   00002E   E9           MOV     A,R1
   \   00002F   F0           MOVX    @DPTR,A
   1001          
   1002            ZDP_TxOptions = AF_MSG_ACK_REQUEST;
   \   000030   90....       MOV     DPTR,#ZDP_TxOptions
   \   000033   7410         MOV     A,#0x10
   \   000035   F0           MOVX    @DPTR,A
   1003            stat = fillAndSend( &transID, dstAddr, Server_Discovery_rsp, len );
   \   000036                ; Setup parameters for call to function fillAndSend
   \   000036   75..15       MOV     ?V0 + 0,#0x15
   \   000039   75..80       MOV     ?V0 + 1,#-0x80
   \   00003C   78..         MOV     R0,#?V0 + 0
   \   00003E   12....       LCALL   ?PUSH_XSTACK_I_TWO
   \   000041   7903         MOV     R1,#0x3
   \   000043   EA           MOV     A,R2
   \   000044   FC           MOV     R4,A
   \   000045   EB           MOV     A,R3
   \   000046   FD           MOV     R5,A
   \   000047   7402         MOV     A,#0x2
   \   000049   12....       LCALL   ?XSTACK_DISP0_8
   \   00004C   AA82         MOV     R2,DPL
   \   00004E   AB83         MOV     R3,DPH
   \   000050   12....       LCALL   ??Subroutine112_0 & 0xFFFF
   \                     ??CrossCallReturnLabel_228:
   \   000053   12....       LCALL   ?DEALLOC_XSTACK8
   1004            ZDP_TxOptions = AF_TX_OPTIONS_NONE;
   \   000056   90....       MOV     DPTR,#ZDP_TxOptions
   \   000059   E4           CLR     A
   \   00005A   F0           MOVX    @DPTR,A
   1005          
   1006            return ( stat );
   \   00005B   04           INC     A
   \   00005C   02....       LJMP    ??Subroutine89_0 & 0xFFFF
   1007          }
   1008          
   1009          /*********************************************************************
   1010           * @fn          ZDP_GenericRsp
   1011           *
   1012           * @brief       Sends a response message with only the parameter status
   1013           *              byte and the addr of interest for data.
   1014           *              This function sends unicast message to the
   1015           *              requesting device.
   1016           *
   1017           * @param       dstAddr - destination address
   1018           * @param       status  - generic status for response
   1019           * @param       aoi     - address of interest
   1020           * @param       dstAddr - destination address
   1021           * @param       rspId   - response cluster ID
   1022           * @param       SecurityEnable - Security Options
   1023           *
   1024           * @return      afStatus_t
   1025           */

   \                                 In  segment BANKED_CODE, align 1, keep-with-next
   1026          afStatus_t ZDP_GenericRsp( byte TransSeq, zAddrType_t *dstAddr,
   \                     ZDP_GenericRsp:
   1027                               byte status, uint16 aoi, uint16 rspID, byte SecurityEnable )
   1028          {
   \   000000   74F6         MOV     A,#-0xa
   \   000002   12....       LCALL   ?BANKED_ENTER_XDATA
   \   000005                ; Saved register size: 10
   \   000005                ; Auto size: 1
   \   000005   74FF         MOV     A,#-0x1
   \   000007   12....       LCALL   ?ALLOC_XSTACK8
   \   00000A   E9           MOV     A,R1
   \   00000B   85..82       MOV     DPL,?XSP + 0
   \   00000E   85..83       MOV     DPH,?XSP + 1
   \   000011   F0           MOVX    @DPTR,A
   \   000012   EC           MOV     A,R4
   \   000013   FE           MOV     R6,A
   \   000014   740B         MOV     A,#0xb
   \   000016   12....       LCALL   ?XSTACK_DISP0_8
   \   000019   12....       LCALL   ??Subroutine118_0 & 0xFFFF
   \                     ??CrossCallReturnLabel_276:
   \   00001C   740D         MOV     A,#0xd
   \   00001E   12....       LCALL   ?XSTACK_DISP0_8
   \   000021   12....       LCALL   ??Subroutine106_0 & 0xFFFF
   1029            uint8 len;
   1030          
   1031            (void)SecurityEnable;  // Intentionally unreferenced parameter
   1032          
   1033            ZDP_TmpBuf[0] = status;
   \                     ??CrossCallReturnLabel_190:
   \   000024   12....       LCALL   ?Subroutine47 & 0xFFFF
   \                     ??CrossCallReturnLabel_61:
   \   000027   EE           MOV     A,R6
   \   000028   F0           MOVX    @DPTR,A
   1034            ZDP_TmpBuf[1] = LO_UINT16( aoi );
   \   000029   12....       LCALL   ?Subroutine47 & 0xFFFF
   \                     ??CrossCallReturnLabel_62:
   \   00002C   A3           INC     DPTR
   \   00002D   E8           MOV     A,R0
   \   00002E   F0           MOVX    @DPTR,A
   1035            ZDP_TmpBuf[2] = HI_UINT16( aoi );
   \   00002F   12....       LCALL   ?Subroutine30 & 0xFFFF
   1036          
   1037            // Length byte
   1038            ZDP_TmpBuf[3] = 0;
   \                     ??CrossCallReturnLabel_38:
   \   000032   12....       LCALL   ??Subroutine91_0 & 0xFFFF
   \                     ??CrossCallReturnLabel_121:
   \   000035   A3           INC     DPTR
   \   000036   A3           INC     DPTR
   \   000037   E4           CLR     A
   \   000038   F0           MOVX    @DPTR,A
   1039            len = 4;
   1040          
   1041            return fillAndSend( &TransSeq, dstAddr, rspID, len );
   \   000039                ; Setup parameters for call to function fillAndSend
   \   000039   78..         MOV     R0,#?V0 + 0
   \   00003B   12....       LCALL   ?PUSH_XSTACK_I_TWO
   \   00003E   7904         MOV     R1,#0x4
   \   000040   EA           MOV     A,R2
   \   000041   FC           MOV     R4,A
   \   000042   EB           MOV     A,R3
   \   000043   FD           MOV     R5,A
   \   000044   7402         MOV     A,#0x2
   \   000046   12....       LCALL   ?XSTACK_DISP0_8
   \   000049   AA82         MOV     R2,DPL
   \   00004B   AB83         MOV     R3,DPH
   \   00004D   12....       LCALL   ??Subroutine112_0 & 0xFFFF
   \                     ??CrossCallReturnLabel_229:
   \   000050   12....       LCALL   ?DEALLOC_XSTACK8
   \   000053   7401         MOV     A,#0x1
   \   000055   02....       LJMP    ??Subroutine89_0 & 0xFFFF
   1042          }

   \                                 In  segment BANKED_CODE, align 1, keep-with-next
   \                     ?Subroutine47:
   \   000000   90....       MOV     DPTR,#ZDP_TmpBuf
   \   000003   E0           MOVX    A,@DPTR
   \   000004   FC           MOV     R4,A
   \   000005   A3           INC     DPTR
   \   000006   E0           MOVX    A,@DPTR
   \   000007   F583         MOV     DPH,A
   \   000009   8C82         MOV     DPL,R4
   \   00000B   22           RET
   1043          
   1044          /*********************************************************************
   1045           * Binding
   1046           */
   1047          /*********************************************************************
   1048           * @fn          ZDP_EndDeviceBindReq
   1049           *
   1050           * @brief       This builds and sends a End_Device_Bind_req message.
   1051           *              This function sends a unicast message.
   1052           *
   1053           * @param       dstAddr - destination address
   1054           * @param       LocalCoordinator - short address of local coordinator
   1055           * @param       epIntf - Endpoint/Interface of Simple Desc
   1056           * @param       ProfileID - Profile ID
   1057           *
   1058           *   The Input cluster list is the opposite of what you would think.
   1059           *   This is the output cluster list of this device
   1060           * @param       NumInClusters - number of input clusters
   1061           * @param       InClusterList - input cluster ID list
   1062           *
   1063           *   The Output cluster list is the opposite of what you would think.
   1064           *   This is the input cluster list of this device
   1065           * @param       NumOutClusters - number of output clusters
   1066           * @param       OutClusterList - output cluster ID list
   1067           *
   1068           * @param       SecurityEnable - Security Options
   1069           *
   1070           * @return      afStatus_t
   1071           */

   \                                 In  segment BANKED_CODE, align 1, keep-with-next
   1072          afStatus_t ZDP_EndDeviceBindReq( zAddrType_t *dstAddr,
   \                     ZDP_EndDeviceBindReq:
   1073                                           uint16 LocalCoordinator,
   1074                                           byte endPoint,
   1075                                           uint16 ProfileID,
   1076                                           byte NumInClusters, cId_t *InClusterList,
   1077                                           byte NumOutClusters, cId_t *OutClusterList,
   1078                                           byte SecurityEnable )
   1079          {
   \   000000   74E8         MOV     A,#-0x18
   \   000002   12....       LCALL   ?BANKED_ENTER_XDATA
   \   000005                ; Saved register size: 24
   \   000005                ; Auto size: 0
   \   000005   8A..         MOV     ?V0 + 14,R2
   \   000007   8B..         MOV     ?V0 + 15,R3
   \   000009   8C..         MOV     ?V0 + 4,R4
   \   00000B   8D..         MOV     ?V0 + 5,R5
   \   00000D   89..         MOV     ?V0 + 7,R1
   \   00000F   7418         MOV     A,#0x18
   \   000011   12....       LCALL   ?XSTACK_DISP0_8
   \   000014   12....       LCALL   ??Subroutine106_0 & 0xFFFF
   \                     ??CrossCallReturnLabel_191:
   \   000017   741A         MOV     A,#0x1a
   \   000019   12....       LCALL   ?XSTACK_DISP0_8
   \   00001C   E0           MOVX    A,@DPTR
   \   00001D   F5..         MOV     ?V0 + 2,A
   \   00001F   741B         MOV     A,#0x1b
   \   000021   12....       LCALL   ?XSTACK_DISP0_8
   \   000024   E0           MOVX    A,@DPTR
   \   000025   F5..         MOV     ?V0 + 12,A
   \   000027   A3           INC     DPTR
   \   000028   E0           MOVX    A,@DPTR
   \   000029   F5..         MOV     ?V0 + 13,A
   \   00002B   741D         MOV     A,#0x1d
   \   00002D   12....       LCALL   ?XSTACK_DISP0_8
   \   000030   E0           MOVX    A,@DPTR
   \   000031   F5..         MOV     ?V0 + 3,A
   \   000033   741E         MOV     A,#0x1e
   \   000035   12....       LCALL   ?XSTACK_DISP0_8
   \   000038   E0           MOVX    A,@DPTR
   \   000039   F5..         MOV     ?V0 + 10,A
   \   00003B   A3           INC     DPTR
   \   00003C   E0           MOVX    A,@DPTR
   \   00003D   F5..         MOV     ?V0 + 11,A
   1080            uint8 *pBuf = ZDP_TmpBuf;
   \   00003F   90....       MOV     DPTR,#ZDP_TmpBuf
   \   000042   12....       LCALL   ??Subroutine113_0 & 0xFFFF
   1081            uint8 i, len;
   1082            uint8 *ieeeAddr;
   1083          
   1084            (void)SecurityEnable;  // Intentionally unreferenced parameter
   1085          
   1086            // LocalCoordinator + SrcExtAddr + ep + ProfileID +  NumInClusters + NumOutClusters.
   1087            len = 2 + Z_EXTADDR_LEN + 1 + 2 + 1 + 1;
   1088            len += (NumInClusters + NumOutClusters) * sizeof ( uint16 );
   \                     ??CrossCallReturnLabel_237:
   \   000045   E5..         MOV     A,?V0 + 2
   \   000047   25..         ADD     A,?V0 + 3
   \   000049   C3           CLR     C
   \   00004A   33           RLC     A
   \   00004B   240F         ADD     A,#0xf
   \   00004D   F5..         MOV     ?V0 + 6,A
   1089          
   1090            if ( len >= ZDP_BUF_SZ-1 )
   \   00004F   C3           CLR     C
   \   000050   944F         SUBB    A,#0x4f
   \   000052   4005         JC      ??ZDP_EndDeviceBindReq_0
   1091            {
   1092              return afStatus_MEM_FAIL;
   \   000054   7910         MOV     R1,#0x10
   \   000056   02....       LJMP    ??ZDP_EndDeviceBindReq_1 & 0xFFFF
   1093            }
   1094          
   1095            if ( LocalCoordinator != NLME_GetShortAddr() )
   \                     ??ZDP_EndDeviceBindReq_0:
   \   000059                ; Setup parameters for call to function NLME_GetShortAddr
   \   000059   12....       LCALL   ??NLME_GetShortAddr?relay
   \   00005C   EA           MOV     A,R2
   \   00005D   65..         XRL     A,?V0 + 4
   \   00005F   7003         JNZ     ??ZDP_EndDeviceBindReq_2
   \   000061   EB           MOV     A,R3
   \   000062   65..         XRL     A,?V0 + 5
   \                     ??ZDP_EndDeviceBindReq_2:
   \   000064   6005         JZ      ??ZDP_EndDeviceBindReq_3
   1096            {
   1097              return afStatus_INVALID_PARAMETER;
   \   000066   7902         MOV     R1,#0x2
   \   000068   02....       LJMP    ??ZDP_EndDeviceBindReq_1 & 0xFFFF
   1098            }
   1099          
   1100            *pBuf++ = LO_UINT16( LocalCoordinator );
   \                     ??ZDP_EndDeviceBindReq_3:
   \   00006B   8E82         MOV     DPL,R6
   \   00006D   8F83         MOV     DPH,R7
   \   00006F   12....       LCALL   ?Subroutine54 & 0xFFFF
   1101            *pBuf++ = HI_UINT16( LocalCoordinator );
   1102          
   1103            ieeeAddr = NLME_GetExtAddr();
   1104            pBuf = osal_cpyExtAddr( pBuf, ieeeAddr );
   \                     ??CrossCallReturnLabel_161:
   \   000072                ; Setup parameters for call to function sAddrExtCpy
   \   000072                ; Setup parameters for call to function NLME_GetExtAddr
   \   000072   12....       LCALL   ??NLME_GetExtAddr?relay
   \   000075   EA           MOV     A,R2
   \   000076   FC           MOV     R4,A
   \   000077   EB           MOV     A,R3
   \   000078   FD           MOV     R5,A
   \   000079   EE           MOV     A,R6
   \   00007A   FA           MOV     R2,A
   \   00007B   EF           MOV     A,R7
   \   00007C   FB           MOV     R3,A
   \   00007D   12....       LCALL   ??sAddrExtCpy?relay
   \   000080   8A..         MOV     ?V0 + 4,R2
   \   000082   8B..         MOV     ?V0 + 5,R3
   \   000084   AE..         MOV     R6,?V0 + 4
   \   000086   AF..         MOV     R7,?V0 + 5
   1105          
   1106            *pBuf++ = endPoint;
   \   000088   8E82         MOV     DPL,R6
   \   00008A   8F83         MOV     DPH,R7
   \   00008C   E5..         MOV     A,?V0 + 7
   \   00008E   12....       LCALL   ?Subroutine51 & 0xFFFF
   1107          
   1108            *pBuf++ = LO_UINT16( ProfileID );   // Profile ID
   1109            *pBuf++ = HI_UINT16( ProfileID );
   1110          
   1111            *pBuf++ = NumInClusters; // Input cluster list
   \                     ??CrossCallReturnLabel_72:
   \   000091   12....       LCALL   ??Subroutine100_0 & 0xFFFF
   1112            for ( i = 0; i < NumInClusters; ++i )
   \                     ??CrossCallReturnLabel_163:
   \   000094   7C00         MOV     R4,#0x0
   \   000096   8022         SJMP    ??CrossCallReturnLabel_45
   1113            {
   1114              *pBuf++ = LO_UINT16(InClusterList[i]);
   \                     ??ZDP_EndDeviceBindReq_4:
   \   000098   EC           MOV     A,R4
   \   000099   C3           CLR     C
   \   00009A   33           RLC     A
   \   00009B   FA           MOV     R2,A
   \   00009C   E4           CLR     A
   \   00009D   33           RLC     A
   \   00009E   FB           MOV     R3,A
   \   00009F   E5..         MOV     A,?V0 + 12
   \   0000A1   2A           ADD     A,R2
   \   0000A2   FA           MOV     R2,A
   \   0000A3   E5..         MOV     A,?V0 + 13
   \   0000A5   3B           ADDC    A,R3
   \   0000A6   FB           MOV     R3,A
   \   0000A7   8A82         MOV     DPL,R2
   \   0000A9   8B83         MOV     DPH,R3
   \   0000AB   12....       LCALL   ??Subroutine104_0 & 0xFFFF
   \                     ??CrossCallReturnLabel_173:
   \   0000AE   E8           MOV     A,R0
   \   0000AF   FE           MOV     R6,A
   \   0000B0   E9           MOV     A,R1
   \   0000B1   FF           MOV     R7,A
   1115              *pBuf++ = HI_UINT16(InClusterList[i]);
   \   0000B2   8A82         MOV     DPL,R2
   \   0000B4   8B83         MOV     DPH,R3
   \   0000B6   A3           INC     DPTR
   \   0000B7   12....       LCALL   ?Subroutine37 & 0xFFFF
   1116            }
   \                     ??CrossCallReturnLabel_45:
   \   0000BA   8E82         MOV     DPL,R6
   \   0000BC   8F83         MOV     DPH,R7
   \   0000BE   A3           INC     DPTR
   \   0000BF   A882         MOV     R0,DPL
   \   0000C1   A983         MOV     R1,DPH
   \   0000C3   EC           MOV     A,R4
   \   0000C4   C3           CLR     C
   \   0000C5   95..         SUBB    A,?V0 + 2
   \   0000C7   40CF         JC      ??ZDP_EndDeviceBindReq_4
   1117          
   1118            *pBuf++ = NumOutClusters; // Output cluster list
   \   0000C9   8E82         MOV     DPL,R6
   \   0000CB   8F83         MOV     DPH,R7
   \   0000CD   E5..         MOV     A,?V0 + 3
   \   0000CF   F0           MOVX    @DPTR,A
   \   0000D0   E8           MOV     A,R0
   \   0000D1   FE           MOV     R6,A
   \   0000D2   E9           MOV     A,R1
   \   0000D3   FF           MOV     R7,A
   1119            for ( i = 0; i < NumOutClusters; ++i )
   \   0000D4   7C00         MOV     R4,#0x0
   \   0000D6   8014         SJMP    ??CrossCallReturnLabel_46
   1120            {
   1121              *pBuf++ = LO_UINT16(OutClusterList[i]);
   \                     ??ZDP_EndDeviceBindReq_5:
   \   0000D8   EC           MOV     A,R4
   \   0000D9   C3           CLR     C
   \   0000DA   33           RLC     A
   \   0000DB   F8           MOV     R0,A
   \   0000DC   E4           CLR     A
   \   0000DD   33           RLC     A
   \   0000DE   F9           MOV     R1,A
   \   0000DF   E5..         MOV     A,?V0 + 10
   \   0000E1   28           ADD     A,R0
   \   0000E2   F8           MOV     R0,A
   \   0000E3   E5..         MOV     A,?V0 + 11
   \   0000E5   39           ADDC    A,R1
   \   0000E6   12....       LCALL   ?Subroutine25 & 0xFFFF
   1122              *pBuf++ = HI_UINT16(OutClusterList[i]);
   1123            }
   \                     ??CrossCallReturnLabel_23:
   \   0000E9   12....       LCALL   ?Subroutine37 & 0xFFFF
   \                     ??CrossCallReturnLabel_46:
   \   0000EC   EC           MOV     A,R4
   \   0000ED   C3           CLR     C
   \   0000EE   95..         SUBB    A,?V0 + 3
   \   0000F0   40E6         JC      ??ZDP_EndDeviceBindReq_5
   1124          
   1125            return fillAndSend( &ZDP_TransID, dstAddr, End_Device_Bind_req, len );
   \   0000F2                ; Setup parameters for call to function fillAndSend
   \   0000F2   75..20       MOV     ?V0 + 0,#0x20
   \   0000F5   75..00       MOV     ?V0 + 1,#0x0
   \   0000F8   78..         MOV     R0,#?V0 + 0
   \   0000FA   12....       LCALL   ?PUSH_XSTACK_I_TWO
   \   0000FD   A9..         MOV     R1,?V0 + 6
   \   0000FF   AC..         MOV     R4,?V0 + 14
   \   000101   AD..         MOV     R5,?V0 + 15
   \   000103   12....       LCALL   ??Subroutine111_0 & 0xFFFF
   \                     ??CrossCallReturnLabel_217:
   \   000106   12....       LCALL   ?DEALLOC_XSTACK8
   \                     ??ZDP_EndDeviceBindReq_1:
   \   000109                REQUIRE ?Subroutine5
   \   000109                ; // Fall through to label ?Subroutine5
   1126          }

   \                                 In  segment BANKED_CODE, align 1, keep-with-next
   \                     ?Subroutine5:
   \   000000   7F10         MOV     R7,#0x10
   \   000002   02....       LJMP    ?BANKED_LEAVE_XDATA

   \                                 In  segment BANKED_CODE, align 1, keep-with-next
   \                     ?Subroutine37:
   \   000000   12....       LCALL   ?Subroutine78 & 0xFFFF
   \                     ??CrossCallReturnLabel_182:
   \   000003   0C           INC     R4
   \   000004   22           RET

   \                                 In  segment BANKED_CODE, align 1, keep-with-next
   \                     ?Subroutine54:
   \   000000   E5..         MOV     A,?V0 + 4
   \   000002   F0           MOVX    @DPTR,A
   \   000003   A3           INC     DPTR
   \   000004   E5..         MOV     A,?V0 + 5
   \   000006                REQUIRE ??Subroutine100_0
   \   000006                ; // Fall through to label ??Subroutine100_0

   \                                 In  segment BANKED_CODE, align 1, keep-with-next
   \                     ??Subroutine100_0:
   \   000000   F0           MOVX    @DPTR,A
   \   000001   A3           INC     DPTR
   \   000002   AE82         MOV     R6,DPL
   \   000004   AF83         MOV     R7,DPH
   \   000006   22           RET

   \                                 In  segment BANKED_CODE, align 1, keep-with-next
   \                     ??Subroutine104_0:
   \   000000   12....       LCALL   ?Subroutine83 & 0xFFFF
   \                     ??CrossCallReturnLabel_185:
   \   000003   22           RET

   \                                 In  segment BANKED_CODE, align 1, keep-with-next
   \                     ?Subroutine83:
   \   000000   E0           MOVX    A,@DPTR
   \   000001   8E82         MOV     DPL,R6
   \   000003   8F83         MOV     DPH,R7
   \   000005   F0           MOVX    @DPTR,A
   \   000006   22           RET

   \                                 In  segment BANKED_CODE, align 1, keep-with-next
   \                     ?Subroutine25:
   \   000000   F9           MOV     R1,A
   \   000001   8882         MOV     DPL,R0
   \   000003   8983         MOV     DPH,R1
   \   000005   12....       LCALL   ?Subroutine83 & 0xFFFF
   \                     ??CrossCallReturnLabel_184:
   \   000008   A3           INC     DPTR
   \   000009   AE82         MOV     R6,DPL
   \   00000B   AF83         MOV     R7,DPH
   \   00000D   8882         MOV     DPL,R0
   \   00000F   8983         MOV     DPH,R1
   \   000011   A3           INC     DPTR
   \   000012   22           RET

   \                                 In  segment BANKED_CODE, align 1, keep-with-next
   \                     ?Subroutine78:
   \   000000   12....       LCALL   ?Subroutine83 & 0xFFFF
   \                     ??CrossCallReturnLabel_186:
   \   000003   A3           INC     DPTR
   \   000004   0E           INC     R6
   \   000005   AF83         MOV     R7,DPH
   \   000007   22           RET

   \                                 In  segment BANKED_CODE, align 1, keep-with-next
   \                     ?Subroutine51:
   \   000000   F0           MOVX    @DPTR,A
   \   000001   A3           INC     DPTR
   \   000002   E5..         MOV     A,?V0 + 0
   \   000004   F0           MOVX    @DPTR,A
   \   000005   A3           INC     DPTR
   \   000006   E5..         MOV     A,?V0 + 1
   \   000008   F0           MOVX    @DPTR,A
   \   000009   A3           INC     DPTR
   \   00000A   E5..         MOV     A,?V0 + 2
   \   00000C   22           RET
   1127          
   1128          /*********************************************************************
   1129           * @fn          ZDP_BindUnbindReq
   1130           *
   1131           * @brief       This builds and send a Bind_req or Unbind_req message
   1132           *              Depending on the ClusterID. This function
   1133           *              sends a unicast message to the local coordinator.
   1134           *
   1135           * @param       BindOrUnbind - either Bind_req or Unbind_req
   1136           * @param       dstAddr - destination address of the message
   1137           * @param       SourceAddr - source 64 bit address of the binding
   1138           * @param       SrcEPIntf - Source endpoint/interface
   1139           * @param       ClusterID - Binding cluster ID
   1140           * @param       DestinationAddr - destination 64 bit addr of binding
   1141           * @param       DstEPIntf - destination endpoint/interface
   1142           * @param       SecurityEnable - Security Options
   1143           *
   1144           * @return      afStatus_t
   1145           */

   \                                 In  segment BANKED_CODE, align 1, keep-with-next
   1146          afStatus_t ZDP_BindUnbindReq( uint16 BindOrUnbind, zAddrType_t *dstAddr,
   \                     ZDP_BindUnbindReq:
   1147                                        uint8 *SourceAddr, byte SrcEndPoint,
   1148                                        cId_t ClusterID,
   1149                                        zAddrType_t *destinationAddr, byte DstEndPoint,
   1150                                        byte SecurityEnable )
   1151          {
   \   000000   74EA         MOV     A,#-0x16
   \   000002   12....       LCALL   ?BANKED_ENTER_XDATA
   \   000005                ; Saved register size: 22
   \   000005                ; Auto size: 0
   \   000005   8A..         MOV     ?V0 + 0,R2
   \   000007   8B..         MOV     ?V0 + 1,R3
   \   000009   8C..         MOV     ?V0 + 12,R4
   \   00000B   8D..         MOV     ?V0 + 13,R5
   \   00000D   89..         MOV     ?V0 + 8,R1
   \   00000F   7416         MOV     A,#0x16
   \   000011   12....       LCALL   ?XSTACK_DISP0_8
   \   000014   E0           MOVX    A,@DPTR
   \   000015   FC           MOV     R4,A
   \   000016   A3           INC     DPTR
   \   000017   E0           MOVX    A,@DPTR
   \   000018   FD           MOV     R5,A
   \   000019   7418         MOV     A,#0x18
   \   00001B   12....       LCALL   ?XSTACK_DISP0_8
   \   00001E   12....       LCALL   ??Subroutine113_0 & 0xFFFF
   \                     ??CrossCallReturnLabel_238:
   \   000021   741A         MOV     A,#0x1a
   \   000023   12....       LCALL   ?XSTACK_DISP0_8
   \   000026   12....       LCALL   ?Subroutine18 & 0xFFFF
   \                     ??CrossCallReturnLabel_13:
   \   000029   741C         MOV     A,#0x1c
   \   00002B   12....       LCALL   ?XSTACK_DISP0_8
   \   00002E   E0           MOVX    A,@DPTR
   \   00002F   F5..         MOV     ?V0 + 3,A
   1152            uint8 *pBuf = ZDP_TmpBuf;
   \   000031   12....       LCALL   ?Subroutine42 & 0xFFFF
   1153            byte len;
   1154          
   1155            (void)SecurityEnable;  // Intentionally unreferenced parameter
   1156          
   1157            // SourceAddr + SrcEPIntf + ClusterID +  addrMode.
   1158            len = Z_EXTADDR_LEN + 1 + sizeof( cId_t ) + sizeof( uint8 );
   \                     ??CrossCallReturnLabel_135:
   \   000034   75..0C       MOV     ?V0 + 2,#0xc
   1159            if ( destinationAddr->addrMode == Addr64Bit )
   \   000037   E5..         MOV     A,?V0 + 4
   \   000039   2408         ADD     A,#0x8
   \   00003B   F5..         MOV     ?V0 + 6,A
   \   00003D   E5..         MOV     A,?V0 + 5
   \   00003F   3400         ADDC    A,#0x0
   \   000041   F5..         MOV     ?V0 + 7,A
   \   000043   85..82       MOV     DPL,?V0 + 6
   \   000046   F583         MOV     DPH,A
   \   000048   E0           MOVX    A,@DPTR
   \   000049   F8           MOV     R0,A
   \   00004A   7403         MOV     A,#0x3
   \   00004C   68           XRL     A,R0
   \   00004D   7005         JNZ     ??ZDP_BindUnbindReq_0
   1160              len += Z_EXTADDR_LEN + 1;     // +1 for DstEPIntf
   \   00004F   75..15       MOV     ?V0 + 2,#0x15
   \   000052   8008         SJMP    ??ZDP_BindUnbindReq_1
   1161            else if ( destinationAddr->addrMode == AddrGroup )
   \                     ??ZDP_BindUnbindReq_0:
   \   000054   7401         MOV     A,#0x1
   \   000056   68           XRL     A,R0
   \   000057   7003         JNZ     ??ZDP_BindUnbindReq_1
   1162              len += sizeof ( uint16 );
   \   000059   75..0E       MOV     ?V0 + 2,#0xe
   1163          
   1164            pBuf = osal_cpyExtAddr( pBuf, SourceAddr );
   \                     ??ZDP_BindUnbindReq_1:
   \   00005C                ; Setup parameters for call to function sAddrExtCpy
   \   00005C   12....       LCALL   ?Subroutine70 & 0xFFFF
   1165            *pBuf++ = SrcEndPoint;
   \                     ??CrossCallReturnLabel_98:
   \   00005F   E5..         MOV     A,?V0 + 8
   \   000061   F0           MOVX    @DPTR,A
   \   000062   A3           INC     DPTR
   1166          
   1167            *pBuf++ = LO_UINT16( ClusterID );
   \   000063   EE           MOV     A,R6
   \   000064   F0           MOVX    @DPTR,A
   \   000065   A3           INC     DPTR
   1168          
   1169            *pBuf++ = HI_UINT16( ClusterID );
   \   000066   EF           MOV     A,R7
   \   000067   12....       LCALL   ?Subroutine48 & 0xFFFF
   1170            *pBuf++ = destinationAddr->addrMode;
   \                     ??CrossCallReturnLabel_66:
   \   00006A   85..82       MOV     DPL,?V0 + 6
   \   00006D   85..83       MOV     DPH,?V0 + 7
   \   000070   12....       LCALL   ?Subroutine40 & 0xFFFF
   1171            if ( destinationAddr->addrMode == Addr64Bit )
   \                     ??CrossCallReturnLabel_49:
   \   000073   85..82       MOV     DPL,?V0 + 6
   \   000076   85..83       MOV     DPH,?V0 + 7
   \   000079   E0           MOVX    A,@DPTR
   \   00007A   F8           MOV     R0,A
   \   00007B   7403         MOV     A,#0x3
   \   00007D   68           XRL     A,R0
   \   00007E   700B         JNZ     ??ZDP_BindUnbindReq_2
   1172            {
   1173              pBuf = osal_cpyExtAddr( pBuf, destinationAddr->addr.extAddr );
   1174              *pBuf = DstEndPoint;
   \   000080                ; Setup parameters for call to function sAddrExtCpy
   \   000080   AC..         MOV     R4,?V0 + 4
   \   000082   AD..         MOV     R5,?V0 + 5
   \   000084   12....       LCALL   ?Subroutine70 & 0xFFFF
   1175            }
   \                     ??CrossCallReturnLabel_99:
   \   000087   E5..         MOV     A,?V0 + 3
   \   000089   801A         SJMP    ??ZDP_BindUnbindReq_3
   1176            else if ( destinationAddr->addrMode == AddrGroup )
   \                     ??ZDP_BindUnbindReq_2:
   \   00008B   7401         MOV     A,#0x1
   \   00008D   68           XRL     A,R0
   \   00008E   7016         JNZ     ??ZDP_BindUnbindReq_4
   1177            {
   1178              *pBuf++ = LO_UINT16( destinationAddr->addr.shortAddr );
   \   000090   85..82       MOV     DPL,?V0 + 4
   \   000093   85..83       MOV     DPH,?V0 + 5
   \   000096   12....       LCALL   ?Subroutine40 & 0xFFFF
   1179              *pBuf++ = HI_UINT16( destinationAddr->addr.shortAddr );
   \                     ??CrossCallReturnLabel_50:
   \   000099   85..82       MOV     DPL,?V0 + 4
   \   00009C   85..83       MOV     DPH,?V0 + 5
   \   00009F   A3           INC     DPTR
   \   0000A0   E0           MOVX    A,@DPTR
   \   0000A1   8A82         MOV     DPL,R2
   \   0000A3   8B83         MOV     DPH,R3
   \                     ??ZDP_BindUnbindReq_3:
   \   0000A5   F0           MOVX    @DPTR,A
   1180            }
   1181          
   1182            FillAndSendTxOptions( &ZDP_TransID, dstAddr, BindOrUnbind, len, AF_MSG_ACK_REQUEST );
   \                     ??ZDP_BindUnbindReq_4:
   \   0000A6   90....       MOV     DPTR,#ZDP_TxOptions
   \   0000A9   7410         MOV     A,#0x10
   \   0000AB   F0           MOVX    @DPTR,A
   \   0000AC                ; Setup parameters for call to function fillAndSend
   \   0000AC   78..         MOV     R0,#?V0 + 0
   \   0000AE   12....       LCALL   ?PUSH_XSTACK_I_TWO
   \   0000B1   A9..         MOV     R1,?V0 + 2
   \   0000B3   AC..         MOV     R4,?V0 + 12
   \   0000B5   AD..         MOV     R5,?V0 + 13
   \   0000B7   12....       LCALL   ??Subroutine111_0 & 0xFFFF
   \                     ??CrossCallReturnLabel_218:
   \   0000BA   12....       LCALL   ?DEALLOC_XSTACK8
   \   0000BD   90....       MOV     DPTR,#ZDP_TxOptions
   \   0000C0   E4           CLR     A
   \   0000C1   F0           MOVX    @DPTR,A
   \   0000C2   02....       LJMP    ??Subroutine99_0 & 0xFFFF
   1183          }

   \                                 In  segment BANKED_CODE, align 1, keep-with-next
   \                     ??Subroutine99_0:
   \   000000   7F0E         MOV     R7,#0xe
   \   000002   02....       LJMP    ?BANKED_LEAVE_XDATA

   \                                 In  segment BANKED_CODE, align 1, keep-with-next
   \                     ?Subroutine40:
   \   000000   12....       LCALL   ?Subroutine76 & 0xFFFF
   \                     ??CrossCallReturnLabel_108:
   \   000003   22           RET
   1184          
   1185          /*********************************************************************
   1186           * Network Management
   1187           */
   1188          
   1189          /*********************************************************************
   1190           * @fn          ZDP_MgmtNwkDiscReq
   1191           *
   1192           * @brief       This builds and send a Mgmt_NWK_Disc_req message. This
   1193           *              function sends a unicast message.
   1194           *
   1195           * @param       dstAddr - destination address of the message
   1196           * @param       ScanChannels - 32 bit address bit map
   1197           * @param       StartIndex - Starting index within the reporting network
   1198           *                           list
   1199           * @param       SecurityEnable - Security Options
   1200           *
   1201           * @return      afStatus_t
   1202           */

   \                                 In  segment BANKED_CODE, align 1, keep-with-next
   1203          afStatus_t ZDP_MgmtNwkDiscReq( zAddrType_t *dstAddr,
   \                     ZDP_MgmtNwkDiscReq:
   1204                                         uint32 ScanChannels,
   1205                                         byte ScanDuration,
   1206                                         byte StartIndex,
   1207                                         byte SecurityEnable )
   1208          {
   \   000000   74F0         MOV     A,#-0x10
   \   000002   12....       LCALL   ?BANKED_ENTER_XDATA
   \   000005                ; Saved register size: 16
   \   000005                ; Auto size: 0
   \   000005   EA           MOV     A,R2
   \   000006   FE           MOV     R6,A
   \   000007   EB           MOV     A,R3
   \   000008   FF           MOV     R7,A
   \   000009   89..         MOV     ?V0 + 0,R1
   \   00000B   8C..         MOV     ?V0 + 1,R4
   \   00000D   7410         MOV     A,#0x10
   \   00000F   12....       LCALL   ?XSTACK_DISP0_8
   \   000012   78..         MOV     R0,#?V0 + 4
   \   000014   12....       LCALL   ?L_MOV_X
   1209            uint8 *pBuf = ZDP_TmpBuf;
   1210            byte len = sizeof( uint32 )+1+1;  // ScanChannels + ScanDuration + StartIndex.
   1211          
   1212            (void)SecurityEnable;  // Intentionally unreferenced parameter
   1213          
   1214            pBuf = osal_buffer_uint32( pBuf, ScanChannels );
   \   000017                ; Setup parameters for call to function osal_buffer_uint32
   \   000017   78..         MOV     R0,#?V0 + 4
   \   000019   12....       LCALL   ?PUSH_XSTACK_I_FOUR
   \   00001C   12....       LCALL   ?Subroutine41 & 0xFFFF
   \                     ??CrossCallReturnLabel_52:
   \   00001F   12....       LCALL   ?DEALLOC_XSTACK8
   \   000022   8A82         MOV     DPL,R2
   \   000024   8B83         MOV     DPH,R3
   1215          
   1216            *pBuf++ = ScanDuration;
   \   000026   E5..         MOV     A,?V0 + 0
   \   000028   F0           MOVX    @DPTR,A
   \   000029   A3           INC     DPTR
   1217            *pBuf = StartIndex;
   \   00002A   E5..         MOV     A,?V0 + 1
   \   00002C   F0           MOVX    @DPTR,A
   1218          
   1219            return fillAndSend( &ZDP_TransID, dstAddr, Mgmt_NWK_Disc_req, len );
   \   00002D                ; Setup parameters for call to function fillAndSend
   \   00002D   75..30       MOV     ?V0 + 2,#0x30
   \   000030   75..00       MOV     ?V0 + 3,#0x0
   \   000033   78..         MOV     R0,#?V0 + 2
   \   000035   12....       LCALL   ?PUSH_XSTACK_I_TWO
   \   000038   7906         MOV     R1,#0x6
   \   00003A   EE           MOV     A,R6
   \   00003B   FC           MOV     R4,A
   \   00003C   EF           MOV     A,R7
   \   00003D   FD           MOV     R5,A
   \   00003E   12....       LCALL   ??Subroutine111_0 & 0xFFFF
   \                     ??CrossCallReturnLabel_219:
   \   000041   02....       LJMP    ?Subroutine0 & 0xFFFF
   1220          }

   \                                 In  segment BANKED_CODE, align 1, keep-with-next
   \                     ?Subroutine41:
   \   000000   90....       MOV     DPTR,#ZDP_TmpBuf
   \   000003   E0           MOVX    A,@DPTR
   \   000004   FA           MOV     R2,A
   \   000005   A3           INC     DPTR
   \   000006   E0           MOVX    A,@DPTR
   \   000007   FB           MOV     R3,A
   \   000008   12....       LCALL   ??osal_buffer_uint32?relay
   \   00000B   7404         MOV     A,#0x4
   \   00000D   22           RET
   1221          
   1222          /*********************************************************************
   1223           * @fn          ZDP_MgmtDirectJoinReq
   1224           *
   1225           * @brief       This builds and send a Mgmt_Direct_Join_req message. This
   1226           *              function sends a unicast message.
   1227           *
   1228           * @param       dstAddr - destination address of the message
   1229           * @param       deviceAddr - 64 bit IEEE Address
   1230           * @param       SecurityEnable - Security Options
   1231           *
   1232           * @return      afStatus_t
   1233           */

   \                                 In  segment BANKED_CODE, align 1, keep-with-next
   1234          afStatus_t ZDP_MgmtDirectJoinReq( zAddrType_t *dstAddr,
   \                     ZDP_MgmtDirectJoinReq:
   1235                                         uint8 *deviceAddr,
   1236                                         byte capInfo,
   1237                                         byte SecurityEnable )
   1238          {
   \   000000   74F4         MOV     A,#-0xc
   \   000002   12....       LCALL   ?BANKED_ENTER_XDATA
   \   000005                ; Saved register size: 12
   \   000005                ; Auto size: 0
   \   000005   EA           MOV     A,R2
   \   000006   FE           MOV     R6,A
   \   000007   EB           MOV     A,R3
   \   000008   FF           MOV     R7,A
   \   000009   89..         MOV     ?V0 + 0,R1
   1239            (void)SecurityEnable;  // Intentionally unreferenced parameter
   1240          
   1241            osal_cpyExtAddr( ZDP_TmpBuf, deviceAddr );
   \   00000B                ; Setup parameters for call to function sAddrExtCpy
   \   00000B   90....       MOV     DPTR,#ZDP_TmpBuf
   \   00000E   E0           MOVX    A,@DPTR
   \   00000F   FA           MOV     R2,A
   \   000010   A3           INC     DPTR
   \   000011   E0           MOVX    A,@DPTR
   \   000012   12....       LCALL   ?Subroutine23 & 0xFFFF
   1242            ZDP_TmpBuf[Z_EXTADDR_LEN] = capInfo;
   \                     ??CrossCallReturnLabel_20:
   \   000015   E5..         MOV     A,?V0 + 0
   \   000017   F0           MOVX    @DPTR,A
   1243          
   1244            return fillAndSend( &ZDP_TransID, dstAddr, Mgmt_Direct_Join_req, (Z_EXTADDR_LEN + 1) );
   \   000018                ; Setup parameters for call to function fillAndSend
   \   000018   75..35       MOV     ?V0 + 2,#0x35
   \   00001B                REQUIRE ?Subroutine7
   \   00001B                ; // Fall through to label ?Subroutine7
   1245          }

   \                                 In  segment BANKED_CODE, align 1, keep-with-next
   \                     ?Subroutine7:
   \   000000   75..00       MOV     ?V0 + 3,#0x0
   \   000003   78..         MOV     R0,#?V0 + 2
   \   000005   12....       LCALL   ?PUSH_XSTACK_I_TWO
   \   000008   7909         MOV     R1,#0x9
   \   00000A   EE           MOV     A,R6
   \   00000B   FC           MOV     R4,A
   \   00000C   EF           MOV     A,R7
   \   00000D   FD           MOV     R5,A
   \   00000E   12....       LCALL   ??Subroutine111_0 & 0xFFFF
   \                     ??CrossCallReturnLabel_220:
   \   000011   12....       LCALL   ?DEALLOC_XSTACK8
   \   000014   7F04         MOV     R7,#0x4
   \   000016   02....       LJMP    ?BANKED_LEAVE_XDATA
   1246          
   1247          /*********************************************************************
   1248           * @fn          ZDP_MgmtPermitJoinReq
   1249           *
   1250           * @brief       This builds and send a Mgmt_Permit_Join_req message.
   1251           *
   1252           * @param       dstAddr - destination address of the message
   1253           * @param       duration - Permit duration
   1254           * @param       TcSignificance - Trust Center Significance
   1255           *
   1256           * @return      afStatus_t
   1257           */

   \                                 In  segment BANKED_CODE, align 1, keep-with-next
   1258          afStatus_t ZDP_MgmtPermitJoinReq( zAddrType_t *dstAddr, byte duration,
   \                     ZDP_MgmtPermitJoinReq:
   1259                                            byte TcSignificance, byte SecurityEnable )
   1260          {
   \   000000   74F6         MOV     A,#-0xa
   \   000002   12....       LCALL   ?BANKED_ENTER_XDATA
   \   000005                ; Saved register size: 10
   \   000005                ; Auto size: 0
   1261            (void)SecurityEnable;  // Intentionally unreferenced parameter
   1262          
   1263            // Build buffer
   1264            ZDP_TmpBuf[ZDP_MGMT_PERMIT_JOIN_REQ_DURATION] = duration;
   \   000005   12....       LCALL   ?Subroutine32 & 0xFFFF
   \                     ??CrossCallReturnLabel_145:
   \   000008   E9           MOV     A,R1
   \   000009   12....       LCALL   ?Subroutine31 & 0xFFFF
   1265            ZDP_TmpBuf[ZDP_MGMT_PERMIT_JOIN_REQ_TC_SIG]   = TcSignificance;
   \                     ??CrossCallReturnLabel_120:
   \   00000C   EC           MOV     A,R4
   \   00000D   F0           MOVX    @DPTR,A
   1266          
   1267            // Send the message
   1268            return fillAndSend( &ZDP_TransID, dstAddr, Mgmt_Permit_Join_req,
   1269                                ZDP_MGMT_PERMIT_JOIN_REQ_SIZE );
   \   00000E                ; Setup parameters for call to function fillAndSend
   \   00000E   75..36       MOV     ?V0 + 0,#0x36
   \   000011   02....       LJMP    ?Subroutine2 & 0xFFFF
   1270          }
   1271          
   1272          /*********************************************************************
   1273           * @fn          ZDP_MgmtLeaveReq
   1274           *
   1275           * @brief       This builds and send a Mgmt_Leave_req message.
   1276           *
   1277           * @param       dstAddr - destination address of the message
   1278           *              IEEEAddr - IEEE adddress of device that is removed
   1279           *              RemoveChildren - set to 1 to remove the children of the
   1280           *                                device as well. 0 otherwise.
   1281           *              Rejoin - set to 1 if the removed device should rejoin
   1282                                   afterwards. 0 otherwise.
   1283           *
   1284           * @return      afStatus_t
   1285           */

   \                                 In  segment BANKED_CODE, align 1, keep-with-next
   1286          afStatus_t ZDP_MgmtLeaveReq( zAddrType_t *dstAddr, uint8 *IEEEAddr, uint8 RemoveChildren,
   \                     ZDP_MgmtLeaveReq:
   1287                           uint8 Rejoin, uint8 SecurityEnable )
   1288          
   1289          {
   \   000000   74F4         MOV     A,#-0xc
   \   000002   12....       LCALL   ?BANKED_ENTER_XDATA
   \   000005                ; Saved register size: 12
   \   000005                ; Auto size: 0
   \   000005   EA           MOV     A,R2
   \   000006   FE           MOV     R6,A
   \   000007   EB           MOV     A,R3
   \   000008   FF           MOV     R7,A
   \   000009   89..         MOV     ?V0 + 0,R1
   \   00000B   740C         MOV     A,#0xc
   \   00000D   12....       LCALL   ?XSTACK_DISP0_8
   \   000010   E0           MOVX    A,@DPTR
   \   000011   F5..         MOV     ?V0 + 1,A
   1290            (void)SecurityEnable;  // Intentionally unreferenced parameter
   1291          
   1292            osal_cpyExtAddr( ZDP_TmpBuf, IEEEAddr );
   \   000013                ; Setup parameters for call to function sAddrExtCpy
   \   000013   12....       LCALL   ?Subroutine42 & 0xFFFF
   \                     ??CrossCallReturnLabel_136:
   \   000016   12....       LCALL   ??sAddrExtCpy?relay
   1293            ZDP_TmpBuf[Z_EXTADDR_LEN] = 0;
   \   000019   90....       MOV     DPTR,#ZDP_TmpBuf
   \   00001C   E0           MOVX    A,@DPTR
   \   00001D   2408         ADD     A,#0x8
   \   00001F   F8           MOV     R0,A
   \   000020   A3           INC     DPTR
   \   000021   E0           MOVX    A,@DPTR
   \   000022   12....       LCALL   ?Subroutine68 & 0xFFFF
   \                     ??CrossCallReturnLabel_94:
   \   000025   E4           CLR     A
   \   000026   F0           MOVX    @DPTR,A
   1294          
   1295            if ( RemoveChildren == TRUE )
   \   000027   04           INC     A
   \   000028   65..         XRL     A,?V0 + 0
   \   00002A   7003         JNZ     ??ZDP_MgmtLeaveReq_0
   1296            {
   1297              ZDP_TmpBuf[Z_EXTADDR_LEN] |= ZDP_MGMT_LEAVE_REQ_RC;
   \   00002C   7440         MOV     A,#0x40
   \   00002E   F0           MOVX    @DPTR,A
   1298            }
   1299            if ( Rejoin == TRUE )
   \                     ??ZDP_MgmtLeaveReq_0:
   \   00002F   7401         MOV     A,#0x1
   \   000031   65..         XRL     A,?V0 + 1
   \   000033   7004         JNZ     ??ZDP_MgmtLeaveReq_1
   1300            {
   1301              ZDP_TmpBuf[Z_EXTADDR_LEN] |= ZDP_MGMT_LEAVE_REQ_REJOIN;
   \   000035   E0           MOVX    A,@DPTR
   \   000036   D2E7         SETB    0xE0 /* A   */.7
   \   000038   F0           MOVX    @DPTR,A
   1302            }
   1303          
   1304            return fillAndSend( &ZDP_TransID, dstAddr, Mgmt_Leave_req, (Z_EXTADDR_LEN + 1) );
   \                     ??ZDP_MgmtLeaveReq_1:
   \   000039                ; Setup parameters for call to function fillAndSend
   \   000039   75..34       MOV     ?V0 + 2,#0x34
   \   00003C   02....       LJMP    ?Subroutine7 & 0xFFFF
   1305          }

   \                                 In  segment BANKED_CODE, align 1, keep-with-next
   \                     ?Subroutine68:
   \   000000   3400         ADDC    A,#0x0
   \   000002   F9           MOV     R1,A
   \   000003   8882         MOV     DPL,R0
   \   000005   8983         MOV     DPH,R1
   \   000007   22           RET
   1306          
   1307          /*********************************************************************
   1308           * @fn          ZDP_MgmtNwkUpdateReq
   1309           *
   1310           * @brief       This builds and send a Mgmt_NWK_Update_req message. This
   1311           *              function sends a unicast or broadcast message.
   1312           *
   1313           * @param       dstAddr - destination address of the message
   1314           * @param       ChannelMask - 32 bit address bit map
   1315           * @param       ScanDuration - length of time to spend scanning each channel
   1316           * @param       ScanCount - number of energy scans to be conducted
   1317           * @param       NwkUpdateId - NWk Update Id value
   1318           * @param       NwkManagerAddr - NWK address for device with Network Manager
   1319           *                               bit set in its Node Descriptor
   1320           *
   1321           * @return      afStatus_t
   1322           */

   \                                 In  segment BANKED_CODE, align 1, keep-with-next
   1323          afStatus_t ZDP_MgmtNwkUpdateReq( zAddrType_t *dstAddr,
   \                     ZDP_MgmtNwkUpdateReq:
   1324                                           uint32 ChannelMask,
   1325                                           uint8 ScanDuration,
   1326                                           uint8 ScanCount,
   1327                                           uint8 NwkUpdateId,
   1328                                           uint16 NwkManagerAddr )
   1329          {
   \   000000   74EE         MOV     A,#-0x12
   \   000002   12....       LCALL   ?BANKED_ENTER_XDATA
   \   000005                ; Saved register size: 18
   \   000005                ; Auto size: 0
   \   000005   8A..         MOV     ?V0 + 8,R2
   \   000007   8B..         MOV     ?V0 + 9,R3
   \   000009   89..         MOV     ?V0 + 4,R1
   \   00000B   8C..         MOV     ?V0 + 6,R4
   \   00000D   8D..         MOV     ?V0 + 5,R5
   \   00000F   7412         MOV     A,#0x12
   \   000011   12....       LCALL   ?XSTACK_DISP0_8
   \   000014   78..         MOV     R0,#?V0 + 0
   \   000016   12....       LCALL   ?L_MOV_X
   \   000019   7416         MOV     A,#0x16
   \   00001B   12....       LCALL   ?XSTACK_DISP0_8
   \   00001E   12....       LCALL   ??Subroutine113_0 & 0xFFFF
   1330            uint8 *pBuf = ZDP_TmpBuf;
   1331            byte len = sizeof( uint32 ) + 1;  // ChannelMask + ScanDuration
   \                     ??CrossCallReturnLabel_239:
   \   000021   75..05       MOV     ?V0 + 7,#0x5
   1332          
   1333            pBuf = osal_buffer_uint32( pBuf, ChannelMask );
   \   000024                ; Setup parameters for call to function osal_buffer_uint32
   \   000024   78..         MOV     R0,#?V0 + 0
   \   000026   12....       LCALL   ?PUSH_XSTACK_I_FOUR
   \   000029   12....       LCALL   ?Subroutine41 & 0xFFFF
   \                     ??CrossCallReturnLabel_53:
   \   00002C   12....       LCALL   ?DEALLOC_XSTACK8
   \   00002F   8A..         MOV     ?V0 + 0,R2
   \   000031   8B..         MOV     ?V0 + 1,R3
   \   000033   A8..         MOV     R0,?V0 + 0
   \   000035   A9..         MOV     R1,?V0 + 1
   1334          
   1335            *pBuf++ = ScanDuration;
   \   000037   8882         MOV     DPL,R0
   \   000039   8983         MOV     DPH,R1
   \   00003B   E5..         MOV     A,?V0 + 4
   \   00003D   12....       LCALL   ??Subroutine98_0 & 0xFFFF
   1336          
   1337            if ( ScanDuration <= 0x05 )
   \                     ??CrossCallReturnLabel_153:
   \   000040   A3           INC     DPTR
   \   000041   AB83         MOV     R3,DPH
   \   000043   C3           CLR     C
   \   000044   9406         SUBB    A,#0x6
   \   000046   500B         JNC     ??ZDP_MgmtNwkUpdateReq_0
   1338            {
   1339              // Request is to scan over channelMask
   1340              len += sizeof( uint8 );
   \   000048   75..06       MOV     ?V0 + 7,#0x6
   1341          
   1342              *pBuf++ = ScanCount;
   \   00004B   8882         MOV     DPL,R0
   \   00004D   8983         MOV     DPH,R1
   \   00004F   E5..         MOV     A,?V0 + 6
   \   000051   802A         SJMP    ??ZDP_MgmtNwkUpdateReq_1
   1343            }
   1344            else if ( ( ScanDuration == 0xFE ) || ( ScanDuration == 0xFF ) )
   \                     ??ZDP_MgmtNwkUpdateReq_0:
   \   000053   74FE         MOV     A,#-0x2
   \   000055   65..         XRL     A,?V0 + 4
   \   000057   6006         JZ      ??ZDP_MgmtNwkUpdateReq_2
   \   000059   74FF         MOV     A,#-0x1
   \   00005B   65..         XRL     A,?V0 + 4
   \   00005D   701F         JNZ     ??ZDP_MgmtNwkUpdateReq_3
   1345            {
   1346              // Request is to change Channel (0xFE) or apsChannelMask and NwkManagerAddr (0xFF)
   1347              len += sizeof( uint8 );
   \                     ??ZDP_MgmtNwkUpdateReq_2:
   \   00005F   75..06       MOV     ?V0 + 7,#0x6
   1348          
   1349              *pBuf++ = NwkUpdateId;
   \   000062   8882         MOV     DPL,R0
   \   000064   8983         MOV     DPH,R1
   \   000066   E5..         MOV     A,?V0 + 5
   \   000068   F0           MOVX    @DPTR,A
   \   000069   08           INC     R0
   \   00006A   EB           MOV     A,R3
   \   00006B   F9           MOV     R1,A
   1350          
   1351              if ( ScanDuration == 0xFF )
   \   00006C   74FF         MOV     A,#-0x1
   \   00006E   65..         XRL     A,?V0 + 4
   \   000070   700C         JNZ     ??ZDP_MgmtNwkUpdateReq_3
   1352              {
   1353                len += sizeof( uint16 );
   \   000072   75..08       MOV     ?V0 + 7,#0x8
   1354          
   1355                *pBuf++  = LO_UINT16( NwkManagerAddr );
   \   000075   EE           MOV     A,R6
   \   000076   8882         MOV     DPL,R0
   \   000078   8983         MOV     DPH,R1
   \   00007A   F0           MOVX    @DPTR,A
   \   00007B   A3           INC     DPTR
   1356                *pBuf++  = HI_UINT16( NwkManagerAddr );
   \   00007C   EF           MOV     A,R7
   \                     ??ZDP_MgmtNwkUpdateReq_1:
   \   00007D   F0           MOVX    @DPTR,A
   1357              }
   1358            }
   1359          
   1360            return fillAndSend( &ZDP_TransID, dstAddr, Mgmt_NWK_Update_req, len );
   \                     ??ZDP_MgmtNwkUpdateReq_3:
   \   00007E                ; Setup parameters for call to function fillAndSend
   \   00007E   75..38       MOV     ?V0 + 0,#0x38
   \   000081   75..00       MOV     ?V0 + 1,#0x0
   \   000084   78..         MOV     R0,#?V0 + 0
   \   000086   12....       LCALL   ?PUSH_XSTACK_I_TWO
   \   000089   A9..         MOV     R1,?V0 + 7
   \   00008B   AC..         MOV     R4,?V0 + 8
   \   00008D   AD..         MOV     R5,?V0 + 9
   \   00008F   12....       LCALL   ??Subroutine111_0 & 0xFFFF
   \                     ??CrossCallReturnLabel_221:
   \   000092                REQUIRE ?Subroutine3
   \   000092                ; // Fall through to label ?Subroutine3
   1361          }
   1362          
   1363          
   1364          /*********************************************************************
   1365           * Network Management Responses
   1366           */
   1367          
   1368          /*********************************************************************
   1369           * @fn          ZDP_MgmtNwkDiscRsp
   1370           *
   1371           * @brief       This builds and send a Mgmt_NWK_Disc_rsp message. This
   1372           *              function sends a unicast message.
   1373           *
   1374           * @param       dstAddr - destination address of the message
   1375           * @param       Status - message status (ZDP_SUCCESS or other)
   1376           * @param       NetworkCount - Total number of networks found
   1377           * @param       StartIndex - Starting index within the reporting network
   1378           *                           list
   1379           * @param       NetworkListCount - number of network lists included
   1380           *                                 in this message
   1381           * @param       NetworkList - List of network descriptors
   1382           * @param       SecurityEnable - Security Options
   1383           *
   1384           * @return      afStatus_t
   1385           */

   \                                 In  segment BANKED_CODE, align 1, keep-with-next
   1386          afStatus_t ZDP_MgmtNwkDiscRsp( byte TransSeq, zAddrType_t *dstAddr,
   \                     ZDP_MgmtNwkDiscRsp:
   1387                                      byte Status,
   1388                                      byte NetworkCount,
   1389                                      byte StartIndex,
   1390                                      byte NetworkListCount,
   1391                                      networkDesc_t *NetworkList,
   1392                                      byte SecurityEnable )
   1393          {
   \   000000   74EA         MOV     A,#-0x16
   \   000002   12....       LCALL   ?BANKED_ENTER_XDATA
   \   000005                ; Saved register size: 22
   \   000005                ; Auto size: 1
   \   000005   74FF         MOV     A,#-0x1
   \   000007   12....       LCALL   ?ALLOC_XSTACK8
   \   00000A   E9           MOV     A,R1
   \   00000B   85..82       MOV     DPL,?XSP + 0
   \   00000E   85..83       MOV     DPH,?XSP + 1
   \   000011   F0           MOVX    @DPTR,A
   \   000012   8A..         MOV     ?V0 + 12,R2
   \   000014   8B..         MOV     ?V0 + 13,R3
   \   000016   8C..         MOV     ?V0 + 10,R4
   \   000018   8D..         MOV     ?V0 + 7,R5
   \   00001A   7417         MOV     A,#0x17
   \   00001C   12....       LCALL   ?XSTACK_DISP0_8
   \   00001F   E0           MOVX    A,@DPTR
   \   000020   F5..         MOV     ?V0 + 6,A
   \   000022   7418         MOV     A,#0x18
   \   000024   12....       LCALL   ?XSTACK_DISP0_8
   \   000027   E0           MOVX    A,@DPTR
   \   000028   F5..         MOV     ?V0 + 4,A
   \   00002A   7419         MOV     A,#0x19
   \   00002C   12....       LCALL   ?XSTACK_DISP0_8
   \   00002F   12....       LCALL   ?Subroutine27 & 0xFFFF
   1394            uint8 *buf;
   1395            uint8 *pBuf;
   1396            byte len = 1+1+1+1;  // Status + NetworkCount + StartIndex + NetworkCountList.
   1397            byte idx;
   1398          
   1399            (void)SecurityEnable;  // Intentionally unreferenced parameter
   1400          
   1401            len += (NetworkListCount * ( ZDP_NETWORK_EXTENDED_DISCRIPTOR_SIZE - 2 ));
   \                     ??CrossCallReturnLabel_28:
   \   000032   75F00C       MOV     B,#0xc
   \   000035   E5..         MOV     A,?V0 + 4
   \   000037   A4           MUL     AB
   \   000038   2404         ADD     A,#0x4
   \   00003A   F5..         MOV     ?V0 + 5,A
   1402          
   1403            buf = osal_mem_alloc( len+1 );
   \   00003C                ; Setup parameters for call to function osal_mem_alloc
   \   00003C   12....       LCALL   ?Subroutine80 & 0xFFFF
   \                     ??CrossCallReturnLabel_109:
   \   00003F   8A..         MOV     ?V0 + 0,R2
   \   000041   8B..         MOV     ?V0 + 1,R3
   1404            if ( buf == NULL )
   \   000043   EA           MOV     A,R2
   \   000044   45..         ORL     A,?V0 + 1
   \   000046   7005         JNZ     ??ZDP_MgmtNwkDiscRsp_0
   1405            {
   1406              return afStatus_MEM_FAIL;
   \   000048   7910         MOV     R1,#0x10
   \   00004A   02....       LJMP    ??CrossCallReturnLabel_170 & 0xFFFF
   1407            }
   1408          
   1409            pBuf = buf+1;
   \                     ??ZDP_MgmtNwkDiscRsp_0:
   \   00004D   8A82         MOV     DPL,R2
   \   00004F   8B83         MOV     DPH,R3
   \   000051   A3           INC     DPTR
   \   000052   8582..       MOV     ?V0 + 8,DPL
   \   000055   8583..       MOV     ?V0 + 9,DPH
   1410          
   1411            *pBuf++ = Status;
   \   000058   E5..         MOV     A,?V0 + 10
   \   00005A   F0           MOVX    @DPTR,A
   \   00005B   A3           INC     DPTR
   1412            *pBuf++ = NetworkCount;
   \   00005C   E5..         MOV     A,?V0 + 7
   \   00005E   F0           MOVX    @DPTR,A
   \   00005F   A3           INC     DPTR
   1413            *pBuf++ = StartIndex;
   \   000060   E5..         MOV     A,?V0 + 6
   \   000062   F0           MOVX    @DPTR,A
   \   000063   A3           INC     DPTR
   1414            *pBuf++ = NetworkListCount;
   \   000064   E5..         MOV     A,?V0 + 4
   \   000066   12....       LCALL   ??Subroutine100_0 & 0xFFFF
   1415          
   1416            for ( idx = 0; idx < NetworkListCount; idx++ )
   \                     ??CrossCallReturnLabel_164:
   \   000069   75..00       MOV     ?V0 + 6,#0x0
   \   00006C   8015         SJMP    ??ZDP_MgmtNwkDiscRsp_1
   1417            {
   1418              osal_cpyExtAddr( pBuf, NetworkList->extendedPANID);
   1419              pBuf += Z_EXTADDR_LEN;
   1420          
   1421              *pBuf++  = NetworkList->logicalChannel;                // LogicalChannel
   1422              *pBuf    = NetworkList->stackProfile;                  // Stack profile
   1423              *pBuf++ |= (byte)(NetworkList->version << 4);          // ZigBee Version
   1424              *pBuf    = NetworkList->beaconOrder;                   // Beacon Order
   1425              *pBuf++ |= (byte)(NetworkList->superFrameOrder << 4);  // Superframe Order
   1426          
   1427              if ( NetworkList->chosenRouter != INVALID_NODE_ADDR )
   1428              {
   1429                *pBuf++ = TRUE;                         // Permit Joining
   1430              }
   1431              else
   1432              {
   1433                *pBuf++ = FALSE;
   \                     ??ZDP_MgmtNwkDiscRsp_2:
   \   00006E   E4           CLR     A
   \                     ??ZDP_MgmtNwkDiscRsp_3:
   \   00006F   F0           MOVX    @DPTR,A
   \   000070   0E           INC     R6
   \   000071   E9           MOV     A,R1
   \   000072   FF           MOV     R7,A
   1434              }
   1435          
   1436              NetworkList = NetworkList->nextDesc;    // Move to next list entry
   \   000073   E5..         MOV     A,?V0 + 2
   \   000075   2416         ADD     A,#0x16
   \   000077   F582         MOV     DPL,A
   \   000079   E5..         MOV     A,?V0 + 3
   \   00007B   12....       LCALL   ??Subroutine115_0 & 0xFFFF
   \                     ??CrossCallReturnLabel_252:
   \   00007E   12....       LCALL   ?Subroutine27 & 0xFFFF
   \                     ??CrossCallReturnLabel_29:
   \   000081   05..         INC     ?V0 + 6
   \                     ??ZDP_MgmtNwkDiscRsp_1:
   \   000083   E5..         MOV     A,?V0 + 6
   \   000085   C3           CLR     C
   \   000086   95..         SUBB    A,?V0 + 4
   \   000088   4003         JC      $+5
   \   00008A   02....       LJMP    ??ZDP_MgmtNwkDiscRsp_4 & 0xFFFF
   \   00008D                ; Setup parameters for call to function sAddrExtCpy
   \   00008D   E5..         MOV     A,?V0 + 2
   \   00008F   240D         ADD     A,#0xd
   \   000091   FC           MOV     R4,A
   \   000092   E5..         MOV     A,?V0 + 3
   \   000094   12....       LCALL   ?Subroutine67 & 0xFFFF
   \                     ??CrossCallReturnLabel_92:
   \   000097   EE           MOV     A,R6
   \   000098   2408         ADD     A,#0x8
   \   00009A   FE           MOV     R6,A
   \   00009B   EF           MOV     A,R7
   \   00009C   3400         ADDC    A,#0x0
   \   00009E   FF           MOV     R7,A
   \   00009F   85..82       MOV     DPL,?V0 + 2
   \   0000A2   85..83       MOV     DPH,?V0 + 3
   \   0000A5   12....       LCALL   ??Subroutine103_0 & 0xFFFF
   \                     ??CrossCallReturnLabel_175:
   \   0000A8   A3           INC     DPTR
   \   0000A9   AE82         MOV     R6,DPL
   \   0000AB   AF83         MOV     R7,DPH
   \   0000AD   85..82       MOV     DPL,?V0 + 2
   \   0000B0   85..83       MOV     DPH,?V0 + 3
   \   0000B3   A3           INC     DPTR
   \   0000B4   A3           INC     DPTR
   \   0000B5   A3           INC     DPTR
   \   0000B6   A3           INC     DPTR
   \   0000B7   A3           INC     DPTR
   \   0000B8   12....       LCALL   ?Subroutine38 & 0xFFFF
   \                     ??CrossCallReturnLabel_176:
   \   0000BB   EE           MOV     A,R6
   \   0000BC   F8           MOV     R0,A
   \   0000BD   EF           MOV     A,R7
   \   0000BE   F9           MOV     R1,A
   \   0000BF   A3           INC     DPTR
   \   0000C0   0E           INC     R6
   \   0000C1   AF83         MOV     R7,DPH
   \   0000C3   85..82       MOV     DPL,?V0 + 2
   \   0000C6   85..83       MOV     DPH,?V0 + 3
   \   0000C9   A3           INC     DPTR
   \   0000CA   A3           INC     DPTR
   \   0000CB   A3           INC     DPTR
   \   0000CC   12....       LCALL   ?Subroutine16 & 0xFFFF
   \                     ??CrossCallReturnLabel_166:
   \   0000CF   85..82       MOV     DPL,?V0 + 2
   \   0000D2   85..83       MOV     DPH,?V0 + 3
   \   0000D5   12....       LCALL   ?Subroutine38 & 0xFFFF
   \                     ??CrossCallReturnLabel_177:
   \   0000D8   08           INC     R0
   \   0000D9   EF           MOV     A,R7
   \   0000DA   F9           MOV     R1,A
   \   0000DB   A3           INC     DPTR
   \   0000DC   0E           INC     R6
   \   0000DD   AF83         MOV     R7,DPH
   \   0000DF   85..82       MOV     DPL,?V0 + 2
   \   0000E2   85..83       MOV     DPH,?V0 + 3
   \   0000E5   12....       LCALL   ?Subroutine16 & 0xFFFF
   \                     ??CrossCallReturnLabel_167:
   \   0000E8   8E82         MOV     DPL,R6
   \   0000EA   8F83         MOV     DPH,R7
   \   0000EC   A3           INC     DPTR
   \   0000ED   A983         MOV     R1,DPH
   \   0000EF   85..82       MOV     DPL,?V0 + 2
   \   0000F2   85..83       MOV     DPH,?V0 + 3
   \   0000F5   A3           INC     DPTR
   \   0000F6   A3           INC     DPTR
   \   0000F7   A3           INC     DPTR
   \   0000F8   A3           INC     DPTR
   \   0000F9   A3           INC     DPTR
   \   0000FA   A3           INC     DPTR
   \   0000FB   A3           INC     DPTR
   \   0000FC   A3           INC     DPTR
   \   0000FD   A3           INC     DPTR
   \   0000FE   E0           MOVX    A,@DPTR
   \   0000FF   64FE         XRL     A,#0xfe
   \   000101   7003         JNZ     ??ZDP_MgmtNwkDiscRsp_5
   \   000103   A3           INC     DPTR
   \   000104   E0           MOVX    A,@DPTR
   \   000105   F4           CPL     A
   \                     ??ZDP_MgmtNwkDiscRsp_5:
   \   000106   8E82         MOV     DPL,R6
   \   000108   8F83         MOV     DPH,R7
   \   00010A   7003         JNZ     $+5
   \   00010C   02....       LJMP    ??ZDP_MgmtNwkDiscRsp_2 & 0xFFFF
   \   00010F   7401         MOV     A,#0x1
   \   000111   02....       LJMP    ??ZDP_MgmtNwkDiscRsp_3 & 0xFFFF
   1437            }
   1438          
   1439            FillAndSendBuffer( &TransSeq, dstAddr, Mgmt_NWK_Disc_rsp, len, buf );
   \                     ??ZDP_MgmtNwkDiscRsp_4:
   \   000114   90....       MOV     DPTR,#ZDP_TmpBuf
   \   000117   E5..         MOV     A,?V0 + 8
   \   000119   F0           MOVX    @DPTR,A
   \   00011A   A3           INC     DPTR
   \   00011B   E5..         MOV     A,?V0 + 9
   \   00011D   F0           MOVX    @DPTR,A
   \   00011E                ; Setup parameters for call to function fillAndSend
   \   00011E   75..30       MOV     ?V0 + 2,#0x30
   \   000121   75..80       MOV     ?V0 + 3,#-0x80
   \   000124   78..         MOV     R0,#?V0 + 2
   \   000126   12....       LCALL   ?PUSH_XSTACK_I_TWO
   \   000129   A9..         MOV     R1,?V0 + 5
   \   00012B   AC..         MOV     R4,?V0 + 12
   \   00012D   AD..         MOV     R5,?V0 + 13
   \   00012F   7402         MOV     A,#0x2
   \   000131   12....       LCALL   ?XSTACK_DISP0_8
   \   000134   AA82         MOV     R2,DPL
   \   000136   AB83         MOV     R3,DPH
   \   000138   12....       LCALL   ??Subroutine112_0 & 0xFFFF
   \                     ??CrossCallReturnLabel_230:
   \   00013B   12....       LCALL   ?DEALLOC_XSTACK8
   \   00013E   E9           MOV     A,R1
   \   00013F   FE           MOV     R6,A
   \   000140                ; Setup parameters for call to function osal_mem_free
   \   000140   AA..         MOV     R2,?V0 + 0
   \   000142   AB..         MOV     R3,?V0 + 1
   \   000144   12....       LCALL   ??Subroutine102_0 & 0xFFFF
   \                     ??CrossCallReturnLabel_170:
   \   000147                REQUIRE ?Subroutine6
   \   000147                ; // Fall through to label ?Subroutine6
   1440          }

   \                                 In  segment BANKED_CODE, align 1, keep-with-next
   \                     ?Subroutine6:
   \   000000   7401         MOV     A,#0x1
   \   000002   12....       LCALL   ?DEALLOC_XSTACK8
   \   000005                REQUIRE ??Subroutine99_0
   \   000005                ; // Fall through to label ??Subroutine99_0

   \                                 In  segment BANKED_CODE, align 1, keep-with-next
   \                     ?Subroutine16:
   \   000000   A3           INC     DPTR
   \   000001   A3           INC     DPTR
   \   000002   A3           INC     DPTR
   \   000003   A3           INC     DPTR
   \   000004                REQUIRE ??Subroutine101_0
   \   000004                ; // Fall through to label ??Subroutine101_0

   \                                 In  segment BANKED_CODE, align 1, keep-with-next
   \                     ??Subroutine101_0:
   \   000000   E0           MOVX    A,@DPTR
   \   000001   C4           SWAP    A
   \   000002   54F0         ANL     A,#0xf0
   \   000004   FA           MOV     R2,A
   \   000005   8882         MOV     DPL,R0
   \   000007   8983         MOV     DPH,R1
   \   000009   E0           MOVX    A,@DPTR
   \   00000A   4A           ORL     A,R2
   \   00000B   F0           MOVX    @DPTR,A
   \   00000C   22           RET

   \                                 In  segment BANKED_CODE, align 1, keep-with-next
   \                     ?Subroutine67:
   \   000000   3400         ADDC    A,#0x0
   \   000002   FD           MOV     R5,A
   \   000003   EE           MOV     A,R6
   \   000004   FA           MOV     R2,A
   \   000005   EF           MOV     A,R7
   \   000006   FB           MOV     R3,A
   \   000007   12....       LCALL   ??sAddrExtCpy?relay
   \   00000A   22           RET

   \                                 In  segment BANKED_CODE, align 1, keep-with-next
   \                     ??Subroutine102_0:
   \   000000   12....       LCALL   ?Subroutine81 & 0xFFFF
   \                     ??CrossCallReturnLabel_171:
   \   000003   EE           MOV     A,R6
   \   000004   F9           MOV     R1,A
   \   000005   22           RET

   \                                 In  segment BANKED_CODE, align 1, keep-with-next
   \                     ?Subroutine38:
   \   000000   A3           INC     DPTR
   \   000001                REQUIRE ??Subroutine103_0
   \   000001                ; // Fall through to label ??Subroutine103_0

   \                                 In  segment BANKED_CODE, align 1, keep-with-next
   \                     ??Subroutine103_0:
   \   000000   A3           INC     DPTR
   \   000001   A3           INC     DPTR
   \   000002                REQUIRE ??Subroutine104_0
   \   000002                ; // Fall through to label ??Subroutine104_0

   \                                 In  segment BANKED_CODE, align 1, keep-with-next
   \                     ?Subroutine81:
   \   000000   12....       LCALL   ??osal_mem_free?relay
   \   000003   90....       MOV     DPTR,#ZDP_TmpBuf
   \   000006   74..         MOV     A,#(ZDP_Buf + 1) & 0xff
   \   000008   F0           MOVX    @DPTR,A
   \   000009   A3           INC     DPTR
   \   00000A   74..         MOV     A,#((ZDP_Buf + 1) >> 8) & 0xff
   \   00000C   F0           MOVX    @DPTR,A
   \   00000D   22           RET

   \                                 In  segment BANKED_CODE, align 1, keep-with-next
   \                     ?Subroutine80:
   \   000000   2401         ADD     A,#0x1
   \   000002   FA           MOV     R2,A
   \   000003   E4           CLR     A
   \   000004   3400         ADDC    A,#0x0
   \   000006   FB           MOV     R3,A
   \   000007   12....       LCALL   ??osal_mem_alloc?relay
   \   00000A   22           RET
   1441          
   1442          /*********************************************************************
   1443           * @fn          ZDP_MgmtLqiRsp
   1444           *
   1445           * @brief       This builds and send a Mgmt_Lqi_rsp message. This
   1446           *              function sends a unicast message.
   1447           *
   1448           * @param       dstAddr - destination address of the message
   1449           * @param       Status - message status (ZDP_SUCCESS or other)
   1450           * @param       NeighborLqiEntries - Total number of entries found
   1451           * @param       StartIndex - Starting index within the reporting list
   1452           * @param       NeighborLqiCount - number of lists included
   1453           *                                 in this message
   1454           * @param       NeighborLqiList - List of NeighborLqiItems.  This list
   1455           *                is the list to be sent, not the entire list
   1456           * @param       SecurityEnable - true if secure
   1457           *
   1458           * @return      ZStatus_t
   1459           */

   \                                 In  segment BANKED_CODE, align 1, keep-with-next
   1460          ZStatus_t ZDP_MgmtLqiRsp( byte TransSeq, zAddrType_t *dstAddr,
   \                     ZDP_MgmtLqiRsp:
   1461                                    byte Status,
   1462                                    byte NeighborLqiEntries,
   1463                                    byte StartIndex,
   1464                                    byte NeighborLqiCount,
   1465                                    ZDP_MgmtLqiItem_t* NeighborList,
   1466                                    byte SecurityEnable )
   1467          {
   \   000000   74E9         MOV     A,#-0x17
   \   000002   12....       LCALL   ?BANKED_ENTER_XDATA
   \   000005                ; Saved register size: 23
   \   000005                ; Auto size: 1
   \   000005   74FF         MOV     A,#-0x1
   \   000007   12....       LCALL   ?ALLOC_XSTACK8
   \   00000A   E9           MOV     A,R1
   \   00000B   85..82       MOV     DPL,?XSP + 0
   \   00000E   85..83       MOV     DPH,?XSP + 1
   \   000011   F0           MOVX    @DPTR,A
   \   000012   8A..         MOV     ?V0 + 12,R2
   \   000014   8B..         MOV     ?V0 + 13,R3
   \   000016   8D..         MOV     ?V0 + 14,R5
   \   000018   7418         MOV     A,#0x18
   \   00001A   12....       LCALL   ?XSTACK_DISP0_8
   \   00001D   E0           MOVX    A,@DPTR
   \   00001E   F5..         MOV     ?V0 + 4,A
   \   000020   7419         MOV     A,#0x19
   \   000022   12....       LCALL   ?XSTACK_DISP0_8
   \   000025   E0           MOVX    A,@DPTR
   \   000026   F5..         MOV     ?V0 + 5,A
   \   000028   741A         MOV     A,#0x1a
   \   00002A   12....       LCALL   ?XSTACK_DISP0_8
   \   00002D   12....       LCALL   ??Subroutine106_0 & 0xFFFF
   1468            ZDP_MgmtLqiItem_t* list = NeighborList;
   1469            uint8 *buf, *pBuf;
   1470            byte len, x;
   1471          
   1472            (void)SecurityEnable;  // Intentionally unreferenced parameter
   1473          
   1474            if ( ZSuccess != Status )
   \                     ??CrossCallReturnLabel_192:
   \   000030   EC           MOV     A,R4
   \   000031   6022         JZ      ??ZDP_MgmtLqiRsp_0
   1475            {
   1476              ZDP_TmpBuf[0] = Status;
   \   000033   12....       LCALL   ?Subroutine32 & 0xFFFF
   1477              return fillAndSend( &TransSeq, dstAddr, Mgmt_Lqi_rsp, 1 );
   1478            }
   \                     ??CrossCallReturnLabel_146:
   \   000036   EC           MOV     A,R4
   \   000037   12....       LCALL   ?Subroutine58 & 0xFFFF
   \                     ??CrossCallReturnLabel_82:
   \   00003A   12....       LCALL   ?PUSH_XSTACK_I_TWO
   \   00003D   7901         MOV     R1,#0x1
   \   00003F   AC..         MOV     R4,?V0 + 12
   \   000041   AD..         MOV     R5,?V0 + 13
   \   000043   7402         MOV     A,#0x2
   \   000045   12....       LCALL   ?XSTACK_DISP0_8
   \   000048   AA82         MOV     R2,DPL
   \   00004A   AB83         MOV     R3,DPH
   \   00004C   12....       LCALL   ??Subroutine112_0 & 0xFFFF
   \                     ??CrossCallReturnLabel_231:
   \   00004F   12....       LCALL   ?DEALLOC_XSTACK8
   \   000052   02....       LJMP    ??CrossCallReturnLabel_168 & 0xFFFF
   1479          
   1480            // (Status + NeighborLqiEntries + StartIndex + NeighborLqiCount) +
   1481            //  neighbor LQI data.
   1482            len = (1 + 1 + 1 + 1) + (NeighborLqiCount * ZDP_MGMTLQI_EXTENDED_SIZE);
   \                     ??ZDP_MgmtLqiRsp_0:
   \   000055   75F016       MOV     B,#0x16
   \   000058   E5..         MOV     A,?V0 + 5
   \   00005A   A4           MUL     AB
   \   00005B   2404         ADD     A,#0x4
   \   00005D   F5..         MOV     ?V0 + 6,A
   1483          
   1484            buf = osal_mem_alloc( len+1 );
   \   00005F                ; Setup parameters for call to function osal_mem_alloc
   \   00005F   2401         ADD     A,#0x1
   \   000061   12....       LCALL   ?Subroutine65 & 0xFFFF
   1485            if ( buf == NULL )
   \                     ??CrossCallReturnLabel_90:
   \   000064   7005         JNZ     ??ZDP_MgmtLqiRsp_1
   1486            {
   1487              return afStatus_MEM_FAIL;
   \   000066   7910         MOV     R1,#0x10
   \   000068   02....       LJMP    ??CrossCallReturnLabel_168 & 0xFFFF
   1488            }
   1489          
   1490            pBuf = buf+1;
   \                     ??ZDP_MgmtLqiRsp_1:
   \   00006B   8A82         MOV     DPL,R2
   \   00006D   8B83         MOV     DPH,R3
   \   00006F   A3           INC     DPTR
   \   000070   8582..       MOV     ?V0 + 8,DPL
   \   000073   8583..       MOV     ?V0 + 9,DPH
   1491          
   1492            *pBuf++ = Status;
   \   000076   E4           CLR     A
   \   000077   F0           MOVX    @DPTR,A
   \   000078   A3           INC     DPTR
   1493            *pBuf++ = NeighborLqiEntries;
   \   000079   E5..         MOV     A,?V0 + 14
   \   00007B   F0           MOVX    @DPTR,A
   \   00007C   A3           INC     DPTR
   1494            *pBuf++ = StartIndex;
   \   00007D   12....       LCALL   ?Subroutine54 & 0xFFFF
   1495            *pBuf++ = NeighborLqiCount;
   1496          
   1497            for ( x = 0; x < NeighborLqiCount; x++ )
   \                     ??CrossCallReturnLabel_162:
   \   000080   75..00       MOV     ?V0 + 4,#0x0
   \   000083   02....       LJMP    ??ZDP_MgmtLqiRsp_2 & 0xFFFF
   1498            {
   1499              osal_cpyExtAddr( pBuf, list->extPanID);         // Extended PanID
   \                     ??ZDP_MgmtLqiRsp_3:
   \   000086                ; Setup parameters for call to function sAddrExtCpy
   \   000086   E5..         MOV     A,?V0 + 0
   \   000088   2402         ADD     A,#0x2
   \   00008A   FC           MOV     R4,A
   \   00008B   E5..         MOV     A,?V0 + 1
   \   00008D   12....       LCALL   ?Subroutine67 & 0xFFFF
   1500              pBuf += Z_EXTADDR_LEN;
   1501          
   1502              // EXTADDR
   1503              pBuf = osal_cpyExtAddr( pBuf, list->extAddr );
   \                     ??CrossCallReturnLabel_93:
   \   000090                ; Setup parameters for call to function sAddrExtCpy
   \   000090   E5..         MOV     A,?V0 + 0
   \   000092   240A         ADD     A,#0xa
   \   000094   FC           MOV     R4,A
   \   000095   E5..         MOV     A,?V0 + 1
   \   000097   3400         ADDC    A,#0x0
   \   000099   FD           MOV     R5,A
   \   00009A   EE           MOV     A,R6
   \   00009B   2408         ADD     A,#0x8
   \   00009D   FA           MOV     R2,A
   \   00009E   EF           MOV     A,R7
   \   00009F   3400         ADDC    A,#0x0
   \   0000A1   FB           MOV     R3,A
   \   0000A2   12....       LCALL   ??sAddrExtCpy?relay
   \   0000A5   8A..         MOV     ?V0 + 10,R2
   \   0000A7   8B..         MOV     ?V0 + 11,R3
   \   0000A9   AE..         MOV     R6,?V0 + 10
   \   0000AB   AF..         MOV     R7,?V0 + 11
   1504          
   1505              // NWKADDR
   1506              *pBuf++ = LO_UINT16( list->nwkAddr );
   \   0000AD   E5..         MOV     A,?V0 + 0
   \   0000AF   2412         ADD     A,#0x12
   \   0000B1   F8           MOV     R0,A
   \   0000B2   E5..         MOV     A,?V0 + 1
   \   0000B4   3400         ADDC    A,#0x0
   \   0000B6   12....       LCALL   ?Subroutine25 & 0xFFFF
   1507              *pBuf++ = HI_UINT16( list->nwkAddr );
   \                     ??CrossCallReturnLabel_24:
   \   0000B9   12....       LCALL   ??Subroutine105_0 & 0xFFFF
   1508          
   1509              // DEVICETYPE
   1510              *pBuf = list->devType;
   \                     ??CrossCallReturnLabel_181:
   \   0000BC   2414         ADD     A,#0x14
   \   0000BE   F582         MOV     DPL,A
   \   0000C0   E5..         MOV     A,?V0 + 1
   \   0000C2   12....       LCALL   ??Subroutine115_0 & 0xFFFF
   \                     ??CrossCallReturnLabel_253:
   \   0000C5   12....       LCALL   ??Subroutine104_0 & 0xFFFF
   1511          
   1512              // RXONIDLE
   1513              *pBuf |= (uint8)(list->rxOnIdle << 2);
   \                     ??CrossCallReturnLabel_174:
   \   0000C8   E5..         MOV     A,?V0 + 0
   \   0000CA   2415         ADD     A,#0x15
   \   0000CC   F582         MOV     DPL,A
   \   0000CE   E5..         MOV     A,?V0 + 1
   \   0000D0   12....       LCALL   ??Subroutine116_0 & 0xFFFF
   \                     ??CrossCallReturnLabel_263:
   \   0000D3   33           RLC     A
   \   0000D4   33           RLC     A
   \   0000D5   54FC         ANL     A,#0xfc
   \   0000D7   F8           MOV     R0,A
   \   0000D8   8E82         MOV     DPL,R6
   \   0000DA   8F83         MOV     DPH,R7
   \   0000DC   E0           MOVX    A,@DPTR
   \   0000DD   48           ORL     A,R0
   \   0000DE   F0           MOVX    @DPTR,A
   1514          
   1515              // RELATIONSHIP
   1516              *pBuf++ |= (uint8)(list->relation << 4);
   \   0000DF   EE           MOV     A,R6
   \   0000E0   F8           MOV     R0,A
   \   0000E1   EF           MOV     A,R7
   \   0000E2   F9           MOV     R1,A
   \   0000E3   A3           INC     DPTR
   \   0000E4   0E           INC     R6
   \   0000E5   AF83         MOV     R7,DPH
   \   0000E7   E5..         MOV     A,?V0 + 0
   \   0000E9   2416         ADD     A,#0x16
   \   0000EB   F582         MOV     DPL,A
   \   0000ED   E5..         MOV     A,?V0 + 1
   \   0000EF   12....       LCALL   ??Subroutine115_0 & 0xFFFF
   \                     ??CrossCallReturnLabel_254:
   \   0000F2   12....       LCALL   ??Subroutine101_0 & 0xFFFF
   1517          
   1518              // PERMITJOINING
   1519              *pBuf++ = (uint8)(list->permit);
   \                     ??CrossCallReturnLabel_165:
   \   0000F5   E5..         MOV     A,?V0 + 0
   \   0000F7   2417         ADD     A,#0x17
   \   0000F9   12....       LCALL   ?Subroutine12 & 0xFFFF
   1520          
   1521              // DEPTH
   1522              *pBuf++ = list->depth;
   1523          
   1524              // LQI
   1525              *pBuf++ = list->lqi;
   1526          
   1527              list++; // next list entry
   1528            }
   \                     ??CrossCallReturnLabel_178:
   \   0000FC   2418         ADD     A,#0x18
   \   0000FE   12....       LCALL   ?Subroutine12 & 0xFFFF
   \                     ??CrossCallReturnLabel_179:
   \   000101   2419         ADD     A,#0x19
   \   000103   12....       LCALL   ?Subroutine12 & 0xFFFF
   \                     ??CrossCallReturnLabel_180:
   \   000106   241A         ADD     A,#0x1a
   \   000108   F5..         MOV     ?V0 + 0,A
   \   00010A   E5..         MOV     A,?V0 + 1
   \   00010C   3400         ADDC    A,#0x0
   \   00010E   F5..         MOV     ?V0 + 1,A
   \   000110   05..         INC     ?V0 + 4
   \                     ??ZDP_MgmtLqiRsp_2:
   \   000112   E5..         MOV     A,?V0 + 4
   \   000114   C3           CLR     C
   \   000115   95..         SUBB    A,?V0 + 5
   \   000117   5003         JNC     $+5
   \   000119   02....       LJMP    ??ZDP_MgmtLqiRsp_3 & 0xFFFF
   1529          
   1530            FillAndSendBuffer( &TransSeq, dstAddr, Mgmt_Lqi_rsp, len, buf );
   \   00011C   90....       MOV     DPTR,#ZDP_TmpBuf
   \   00011F   E5..         MOV     A,?V0 + 8
   \   000121   F0           MOVX    @DPTR,A
   \   000122   A3           INC     DPTR
   \   000123   E5..         MOV     A,?V0 + 9
   \   000125   12....       LCALL   ?Subroutine58 & 0xFFFF
   \                     ??CrossCallReturnLabel_83:
   \   000128   12....       LCALL   ?PUSH_XSTACK_I_TWO
   \   00012B   A9..         MOV     R1,?V0 + 6
   \   00012D   AC..         MOV     R4,?V0 + 12
   \   00012F   AD..         MOV     R5,?V0 + 13
   \   000131   7402         MOV     A,#0x2
   \   000133   12....       LCALL   ?XSTACK_DISP0_8
   \   000136   AA82         MOV     R2,DPL
   \   000138   AB83         MOV     R3,DPH
   \   00013A   12....       LCALL   ??Subroutine112_0 & 0xFFFF
   \                     ??CrossCallReturnLabel_232:
   \   00013D   12....       LCALL   ?DEALLOC_XSTACK8
   \   000140   12....       LCALL   ?Subroutine56 & 0xFFFF
   \                     ??CrossCallReturnLabel_168:
   \   000143   7401         MOV     A,#0x1
   \   000145   12....       LCALL   ?DEALLOC_XSTACK8
   \   000148   7F0F         MOV     R7,#0xf
   \   00014A   02....       LJMP    ?BANKED_LEAVE_XDATA
   1531          }

   \                                 In  segment BANKED_CODE, align 1, keep-with-next
   \                     ?Subroutine58:
   \   000000   F0           MOVX    @DPTR,A
   \   000001                ; Setup parameters for call to function fillAndSend
   \   000001                ; Setup parameters for call to function fillAndSend
   \   000001   75..31       MOV     ?V0 + 0,#0x31
   \   000004   75..80       MOV     ?V0 + 1,#-0x80
   \   000007   78..         MOV     R0,#?V0 + 0
   \   000009   22           RET

   \                                 In  segment BANKED_CODE, align 1, keep-with-next
   \                     ?Subroutine56:
   \   000000   E9           MOV     A,R1
   \   000001   FE           MOV     R6,A
   \   000002                ; Setup parameters for call to function osal_mem_free
   \   000002                ; Setup parameters for call to function osal_mem_free
   \   000002   AA..         MOV     R2,?V0 + 2
   \   000004   AB..         MOV     R3,?V0 + 3
   \   000006                REQUIRE ??Subroutine102_0
   \   000006                ; // Fall through to label ??Subroutine102_0

   \                                 In  segment BANKED_CODE, align 1, keep-with-next
   \                     ?Subroutine12:
   \   000000   F582         MOV     DPL,A
   \   000002   E5..         MOV     A,?V0 + 1
   \   000004   3400         ADDC    A,#0x0
   \   000006   F583         MOV     DPH,A
   \   000008                REQUIRE ??Subroutine105_0
   \   000008                ; // Fall through to label ??Subroutine105_0

   \                                 In  segment BANKED_CODE, align 1, keep-with-next
   \                     ??Subroutine105_0:
   \   000000   12....       LCALL   ?Subroutine78 & 0xFFFF
   \                     ??CrossCallReturnLabel_183:
   \   000003   E5..         MOV     A,?V0 + 0
   \   000005   22           RET

   \                                 In  segment BANKED_CODE, align 1, keep-with-next
   \                     ?Subroutine65:
   \   000000   FA           MOV     R2,A
   \   000001   E4           CLR     A
   \   000002   3400         ADDC    A,#0x0
   \   000004   FB           MOV     R3,A
   \   000005   12....       LCALL   ??osal_mem_alloc?relay
   \   000008   8A..         MOV     ?V0 + 2,R2
   \   00000A   8B..         MOV     ?V0 + 3,R3
   \   00000C   EA           MOV     A,R2
   \   00000D   45..         ORL     A,?V0 + 3
   \   00000F   22           RET
   1532          
   1533          /*********************************************************************
   1534           * @fn          ZDP_MgmtRtgRsp
   1535           *
   1536           * @brief       This builds and send a Mgmt_Rtg_rsp message. This
   1537           *              function sends a unicast message.
   1538           *
   1539           * @param       dstAddr - destination address of the message
   1540           * @param       Status - message status (ZDP_SUCCESS or other)
   1541           * @param       RoutingTableEntries - Total number of entries
   1542           * @param       StartIndex - Starting index within the reporting list
   1543           * @param       RoutingTableListCount - number of entries included
   1544           *                                      in this message
   1545           * @param       RoutingTableList - List of Routing Table entries
   1546           * @param       SecurityEnable - true to enable security for this message
   1547           *
   1548           * @return      ZStatus_t
   1549           */

   \                                 In  segment BANKED_CODE, align 1, keep-with-next
   1550          ZStatus_t ZDP_MgmtRtgRsp( byte TransSeq, zAddrType_t *dstAddr,
   \                     ZDP_MgmtRtgRsp:
   1551                                      byte Status,
   1552                                      byte RoutingTableEntries,
   1553                                      byte StartIndex,
   1554                                      byte RoutingListCount,
   1555                                      rtgItem_t *RoutingTableList,
   1556                                      byte SecurityEnable )
   1557          {
   \   000000   74EC         MOV     A,#-0x14
   \   000002   12....       LCALL   ?BANKED_ENTER_XDATA
   \   000005                ; Saved register size: 20
   \   000005                ; Auto size: 1
   \   000005   74FF         MOV     A,#-0x1
   \   000007   12....       LCALL   ?ALLOC_XSTACK8
   \   00000A   E9           MOV     A,R1
   \   00000B   85..82       MOV     DPL,?XSP + 0
   \   00000E   85..83       MOV     DPH,?XSP + 1
   \   000011   F0           MOVX    @DPTR,A
   \   000012   8A..         MOV     ?V0 + 6,R2
   \   000014   8B..         MOV     ?V0 + 7,R3
   \   000016   8C..         MOV     ?V0 + 1,R4
   \   000018   8D..         MOV     ?V0 + 0,R5
   \   00001A   7415         MOV     A,#0x15
   \   00001C   12....       LCALL   ?XSTACK_DISP0_8
   \   00001F   E0           MOVX    A,@DPTR
   \   000020   F5..         MOV     ?V0 + 10,A
   \   000022   7416         MOV     A,#0x16
   \   000024   12....       LCALL   ?XSTACK_DISP0_8
   \   000027   E0           MOVX    A,@DPTR
   \   000028   F5..         MOV     ?V0 + 5,A
   \   00002A   7417         MOV     A,#0x17
   \   00002C   12....       LCALL   ?XSTACK_DISP0_8
   \   00002F   12....       LCALL   ?Subroutine27 & 0xFFFF
   1558            uint8 *buf;
   1559            uint8 *pBuf;
   1560            // Status + RoutingTableEntries + StartIndex + RoutingListCount.
   1561            byte len = 1 + 1 + 1 + 1;
   1562            byte x;
   1563          
   1564            (void)SecurityEnable;  // Intentionally unreferenced parameter
   1565          
   1566            // Add an array for Routing List data
   1567            len += (RoutingListCount * ZDP_ROUTINGENTRY_SIZE);
   \                     ??CrossCallReturnLabel_30:
   \   000032   75F005       MOV     B,#0x5
   \   000035   E5..         MOV     A,?V0 + 5
   \   000037   A4           MUL     AB
   \   000038   2404         ADD     A,#0x4
   \   00003A   F5..         MOV     ?V0 + 4,A
   1568          
   1569            buf = osal_mem_alloc( (short)(len+1) );
   \   00003C                ; Setup parameters for call to function osal_mem_alloc
   \   00003C   12....       LCALL   ?Subroutine63 & 0xFFFF
   \                     ??CrossCallReturnLabel_86:
   \   00003F   AE..         MOV     R6,?V0 + 8
   \   000041   AF..         MOV     R7,?V0 + 9
   1570            if ( buf == NULL )
   \   000043   EE           MOV     A,R6
   \   000044   4F           ORL     A,R7
   \   000045   7005         JNZ     ??ZDP_MgmtRtgRsp_0
   1571            {
   1572              return afStatus_MEM_FAIL;
   \   000047   7910         MOV     R1,#0x10
   \   000049   02....       LJMP    ??ZDP_MgmtRtgRsp_1 & 0xFFFF
   1573            }
   1574          
   1575            pBuf = buf+1;
   \                     ??ZDP_MgmtRtgRsp_0:
   \   00004C   8E82         MOV     DPL,R6
   \   00004E   8F83         MOV     DPH,R7
   \   000050   A3           INC     DPTR
   \   000051   AA82         MOV     R2,DPL
   \   000053   AB83         MOV     R3,DPH
   1576          
   1577            *pBuf++ = Status;
   \   000055   E5..         MOV     A,?V0 + 1
   \   000057   12....       LCALL   ??Subroutine90_0 & 0xFFFF
   1578            *pBuf++ = RoutingTableEntries;
   1579            *pBuf++ = StartIndex;
   \                     ??CrossCallReturnLabel_117:
   \   00005A   E5..         MOV     A,?V0 + 10
   \   00005C   F0           MOVX    @DPTR,A
   \   00005D   A3           INC     DPTR
   1580            *pBuf++ = RoutingListCount;
   \   00005E   E5..         MOV     A,?V0 + 5
   \   000060   12....       LCALL   ??Subroutine98_0 & 0xFFFF
   1581          
   1582            for ( x = 0; x < RoutingListCount; x++ )
   \                     ??CrossCallReturnLabel_154:
   \   000063   75..00       MOV     ?V0 + 8,#0x0
   \   000066   8031         SJMP    ??ZDP_MgmtRtgRsp_2
   1583            {
   1584              *pBuf++ = LO_UINT16( RoutingTableList->dstAddress );  // Destination Address
   \                     ??ZDP_MgmtRtgRsp_3:
   \   000068   85..82       MOV     DPL,?V0 + 2
   \   00006B   85..83       MOV     DPH,?V0 + 3
   \   00006E   12....       LCALL   ?Subroutine22 & 0xFFFF
   1585              *pBuf++ = HI_UINT16( RoutingTableList->dstAddress );
   \                     ??CrossCallReturnLabel_18:
   \   000071   12....       LCALL   ?Subroutine35 & 0xFFFF
   1586              *pBuf++ = RoutingTableList->status;
   \                     ??CrossCallReturnLabel_201:
   \   000074   85..82       MOV     DPL,?V0 + 2
   \   000077   85..83       MOV     DPH,?V0 + 3
   \   00007A   A3           INC     DPTR
   \   00007B   A3           INC     DPTR
   \   00007C   A3           INC     DPTR
   \   00007D   A3           INC     DPTR
   \   00007E   12....       LCALL   ?Subroutine35 & 0xFFFF
   1587              *pBuf++ = LO_UINT16( RoutingTableList->nextHopAddress );  // Next hop
   \                     ??CrossCallReturnLabel_202:
   \   000081   E5..         MOV     A,?V0 + 2
   \   000083   2402         ADD     A,#0x2
   \   000085   FC           MOV     R4,A
   \   000086   E5..         MOV     A,?V0 + 3
   \   000088   12....       LCALL   ?Subroutine14 & 0xFFFF
   1588              *pBuf++ = HI_UINT16( RoutingTableList->nextHopAddress );
   1589              RoutingTableList++;    // Move to next list entry
   \                     ??CrossCallReturnLabel_5:
   \   00008B   E5..         MOV     A,?V0 + 2
   \   00008D   2406         ADD     A,#0x6
   \   00008F   F5..         MOV     ?V0 + 2,A
   \   000091   E5..         MOV     A,?V0 + 3
   \   000093   3400         ADDC    A,#0x0
   \   000095   F5..         MOV     ?V0 + 3,A
   1590            }
   \   000097   05..         INC     ?V0 + 8
   \                     ??ZDP_MgmtRtgRsp_2:
   \   000099   E5..         MOV     A,?V0 + 8
   \   00009B   C3           CLR     C
   \   00009C   95..         SUBB    A,?V0 + 5
   \   00009E   40C8         JC      ??ZDP_MgmtRtgRsp_3
   1591          
   1592            FillAndSendBuffer( &TransSeq, dstAddr, Mgmt_Rtg_rsp, len, buf );
   \   0000A0   90....       MOV     DPTR,#ZDP_TmpBuf
   \   0000A3   EA           MOV     A,R2
   \   0000A4   12....       LCALL   ??Subroutine114_0 & 0xFFFF
   \                     ??CrossCallReturnLabel_248:
   \   0000A7                ; Setup parameters for call to function fillAndSend
   \   0000A7   75..32       MOV     ?V0 + 2,#0x32
   \   0000AA   75..80       MOV     ?V0 + 3,#-0x80
   \   0000AD   78..         MOV     R0,#?V0 + 2
   \   0000AF   12....       LCALL   ?PUSH_XSTACK_I_TWO
   \   0000B2   A9..         MOV     R1,?V0 + 4
   \   0000B4   AC..         MOV     R4,?V0 + 6
   \   0000B6   AD..         MOV     R5,?V0 + 7
   \   0000B8   7402         MOV     A,#0x2
   \   0000BA   12....       LCALL   ?XSTACK_DISP0_8
   \   0000BD   AA82         MOV     R2,DPL
   \   0000BF   AB83         MOV     R3,DPH
   \   0000C1   12....       LCALL   ??Subroutine112_0 & 0xFFFF
   \                     ??CrossCallReturnLabel_233:
   \   0000C4   12....       LCALL   ?DEALLOC_XSTACK8
   \   0000C7   E9           MOV     A,R1
   \   0000C8   F5..         MOV     ?V0 + 2,A
   \   0000CA                ; Setup parameters for call to function osal_mem_free
   \   0000CA   EE           MOV     A,R6
   \   0000CB   FA           MOV     R2,A
   \   0000CC   EF           MOV     A,R7
   \   0000CD   FB           MOV     R3,A
   \   0000CE   12....       LCALL   ?Subroutine71 & 0xFFFF
   \                     ??CrossCallReturnLabel_100:
   \   0000D1   A9..         MOV     R1,?V0 + 2
   \                     ??ZDP_MgmtRtgRsp_1:
   \   0000D3   7401         MOV     A,#0x1
   \   0000D5   12....       LCALL   ?DEALLOC_XSTACK8
   \   0000D8   02....       LJMP    ?Subroutine4 & 0xFFFF
   1593          }

   \                                 In  segment BANKED_CODE, align 1, keep-with-next
   \                     ?Subroutine35:
   \   000000   A3           INC     DPTR
   \   000001                REQUIRE ??Subroutine107_0
   \   000001                ; // Fall through to label ??Subroutine107_0

   \                                 In  segment BANKED_CODE, align 1, keep-with-next
   \                     ?Subroutine71:
   \   000000   12....       LCALL   ?Subroutine81 & 0xFFFF
   \                     ??CrossCallReturnLabel_172:
   \   000003   22           RET

   \                                 In  segment BANKED_CODE, align 1, keep-with-next
   \                     ?Subroutine63:
   \   000000   12....       LCALL   ?Subroutine80 & 0xFFFF
   \                     ??CrossCallReturnLabel_110:
   \   000003   8A..         MOV     ?V0 + 8,R2
   \   000005   8B..         MOV     ?V0 + 9,R3
   \   000007   22           RET
   1594          
   1595          /*********************************************************************
   1596           * @fn          ZDP_MgmtBindRsp
   1597           *
   1598           * @brief       This builds and send a Mgmt_Bind_rsp message. This
   1599           *              function sends a unicast message.
   1600           *
   1601           * @param       dstAddr - destination address of the message
   1602           * @param       Status - message status (ZDP_SUCCESS or other)
   1603           * @param       BindingTableEntries - Total number of entries
   1604           * @param       StartIndex - Starting index within the reporting list
   1605           * @param       BindingTableListCount - number of entries included
   1606           *                                 in this message
   1607           * @param       BindingTableList - List of Binding Table entries
   1608           * @param       SecurityEnable - Security Options
   1609           *
   1610           * @return      ZStatus_t
   1611           */

   \                                 In  segment BANKED_CODE, align 1, keep-with-next
   1612          ZStatus_t ZDP_MgmtBindRsp( byte TransSeq, zAddrType_t *dstAddr,
   \                     ZDP_MgmtBindRsp:
   1613                                      byte Status,
   1614                                      byte BindingTableEntries,
   1615                                      byte StartIndex,
   1616                                      byte BindingTableListCount,
   1617                                      apsBindingItem_t *BindingTableList,
   1618                                      byte SecurityEnable )
   1619          {
   \   000000   74EA         MOV     A,#-0x16
   \   000002   12....       LCALL   ?BANKED_ENTER_XDATA
   \   000005                ; Saved register size: 22
   \   000005                ; Auto size: 1
   \   000005   74FF         MOV     A,#-0x1
   \   000007   12....       LCALL   ?ALLOC_XSTACK8
   \   00000A   E9           MOV     A,R1
   \   00000B   85..82       MOV     DPL,?XSP + 0
   \   00000E   85..83       MOV     DPH,?XSP + 1
   \   000011   F0           MOVX    @DPTR,A
   \   000012   8A..         MOV     ?V0 + 12,R2
   \   000014   8B..         MOV     ?V0 + 13,R3
   \   000016   8C..         MOV     ?V0 + 10,R4
   \   000018   8D..         MOV     ?V0 + 5,R5
   \   00001A   7417         MOV     A,#0x17
   \   00001C   12....       LCALL   ?XSTACK_DISP0_8
   \   00001F   E0           MOVX    A,@DPTR
   \   000020   F5..         MOV     ?V0 + 0,A
   \   000022   7418         MOV     A,#0x18
   \   000024   12....       LCALL   ?XSTACK_DISP0_8
   \   000027   E0           MOVX    A,@DPTR
   \   000028   F5..         MOV     ?V0 + 4,A
   \   00002A   7419         MOV     A,#0x19
   \   00002C   12....       LCALL   ?XSTACK_DISP0_8
   \   00002F   12....       LCALL   ??Subroutine113_0 & 0xFFFF
   1620            uint8 *buf;
   1621            uint8 *pBuf;
   1622            uint8 maxLen; // maxLen is the maximum packet length to allocate enough memory space
   1623            uint8 len;    // Actual length varies due to different addrMode
   1624            uint8 x;
   1625            byte extZdpBindEntrySize = ZDP_BINDINGENTRY_SIZE + 1 + 1; // One more byte for cluserID and DstAddrMode
   1626            byte shortZdpBindEntrySize = ZDP_BINDINGENTRY_SIZE + 1 + 1 + 2 - 8 - 1; // clusterID + DstAddrMode + shortAddr - ExtAddr - DstEndpoint
   1627          
   1628            (void)SecurityEnable;  // Intentionally unreferenced parameter
   1629          
   1630            // Status + BindingTableEntries + StartIndex + BindingTableListCount.
   1631            maxLen = 1 + 1 + 1 + 1;
   1632            maxLen += (BindingTableListCount * extZdpBindEntrySize );  //max length
   1633            buf = osal_mem_alloc( maxLen + 1 );  // +1 for transaction ID
   \                     ??CrossCallReturnLabel_240:
   \   000032                ; Setup parameters for call to function osal_mem_alloc
   \   000032   75F015       MOV     B,#0x15
   \   000035   E5..         MOV     A,?V0 + 4
   \   000037   A4           MUL     AB
   \   000038   2405         ADD     A,#0x5
   \   00003A   12....       LCALL   ?Subroutine65 & 0xFFFF
   1634          
   1635            if ( buf == NULL )
   \                     ??CrossCallReturnLabel_91:
   \   00003D   7005         JNZ     ??ZDP_MgmtBindRsp_0
   1636            {
   1637              return afStatus_MEM_FAIL;
   \   00003F   7910         MOV     R1,#0x10
   \   000041   02....       LJMP    ??CrossCallReturnLabel_169 & 0xFFFF
   1638            }
   1639          
   1640            pBuf = buf+1;
   \                     ??ZDP_MgmtBindRsp_0:
   \   000044   8A82         MOV     DPL,R2
   \   000046   8B83         MOV     DPH,R3
   \   000048   A3           INC     DPTR
   \   000049   8582..       MOV     ?V0 + 6,DPL
   \   00004C   8583..       MOV     ?V0 + 7,DPH
   1641          
   1642            *pBuf++ = Status;
   \   00004F   E5..         MOV     A,?V0 + 10
   \   000051   F0           MOVX    @DPTR,A
   \   000052   A3           INC     DPTR
   1643            *pBuf++ = BindingTableEntries;
   \   000053   E5..         MOV     A,?V0 + 5
   \   000055   12....       LCALL   ??Subroutine90_0 & 0xFFFF
   1644            *pBuf++ = StartIndex;
   1645            *pBuf++ = BindingTableListCount;
   \                     ??CrossCallReturnLabel_118:
   \   000058   E5..         MOV     A,?V0 + 4
   \   00005A   12....       LCALL   ?Subroutine48 & 0xFFFF
   1646          
   1647            // Initial length = Status + BindingTableEntries + StartIndex + BindingTableListCount.
   1648            // length += ZDP_BINDINGENTRY_SIZE   -- Version 1.0
   1649            //           extZdpBindEntrySize     -- Version 1.1 extended address mode
   1650            //           shortZdpBindEntrySize   -- Version 1.1 group address mode
   1651          
   1652            len = 1 + 1 + 1 + 1;
   \                     ??CrossCallReturnLabel_67:
   \   00005D   75..04       MOV     ?V0 + 0,#0x4
   1653            for ( x = 0; x < BindingTableListCount; x++ )
   \   000060   75..00       MOV     ?V0 + 1,#0x0
   \   000063   8021         SJMP    ??ZDP_MgmtBindRsp_1
   1654            {
   1655              pBuf = osal_cpyExtAddr( pBuf, BindingTableList->srcAddr );
   1656              *pBuf++ = BindingTableList->srcEP;
   1657          
   1658              // Cluster ID
   1659              *pBuf++ = LO_UINT16( BindingTableList->clusterID );
   1660              *pBuf++ = HI_UINT16( BindingTableList->clusterID );
   1661          
   1662              *pBuf++ = BindingTableList->dstAddr.addrMode;
   1663              if ( BindingTableList->dstAddr.addrMode == Addr64Bit )
   1664              {
   1665                len += extZdpBindEntrySize;
   1666                pBuf = osal_cpyExtAddr( pBuf, BindingTableList->dstAddr.addr.extAddr );
   1667                *pBuf++ = BindingTableList->dstEP;
   1668              }
   1669              else
   1670              {
   1671                len += shortZdpBindEntrySize;
   \                     ??ZDP_MgmtBindRsp_2:
   \   000065   740E         MOV     A,#0xe
   \   000067   25..         ADD     A,?V0 + 0
   \   000069   F5..         MOV     ?V0 + 0,A
   1672                *pBuf++ = LO_UINT16( BindingTableList->dstAddr.addr.shortAddr );
   \   00006B   8C82         MOV     DPL,R4
   \   00006D   8D83         MOV     DPH,R5
   \   00006F   12....       LCALL   ?Subroutine40 & 0xFFFF
   1673                *pBuf++ = HI_UINT16( BindingTableList->dstAddr.addr.shortAddr );
   \                     ??CrossCallReturnLabel_51:
   \   000072   8C82         MOV     DPL,R4
   \   000074   8D83         MOV     DPH,R5
   \   000076   A3           INC     DPTR
   \   000077   12....       LCALL   ?Subroutine85 & 0xFFFF
   1674              }
   \                     ??CrossCallReturnLabel_113:
   \   00007A   AB83         MOV     R3,DPH
   1675              BindingTableList++;    // Move to next list entry
   \   00007C   EE           MOV     A,R6
   \   00007D   2415         ADD     A,#0x15
   \   00007F   FE           MOV     R6,A
   \   000080   EF           MOV     A,R7
   \   000081   3400         ADDC    A,#0x0
   \   000083   FF           MOV     R7,A
   \   000084   05..         INC     ?V0 + 1
   \                     ??ZDP_MgmtBindRsp_1:
   \   000086   E5..         MOV     A,?V0 + 1
   \   000088   C3           CLR     C
   \   000089   95..         SUBB    A,?V0 + 4
   \   00008B   5055         JNC     ??ZDP_MgmtBindRsp_3
   \   00008D                ; Setup parameters for call to function sAddrExtCpy
   \   00008D   EE           MOV     A,R6
   \   00008E   FC           MOV     R4,A
   \   00008F   EF           MOV     A,R7
   \   000090   FD           MOV     R5,A
   \   000091   12....       LCALL   ??sAddrExtCpy?relay
   \   000094   8E82         MOV     DPL,R6
   \   000096   8F83         MOV     DPH,R7
   \   000098   A3           INC     DPTR
   \   000099   A3           INC     DPTR
   \   00009A   A3           INC     DPTR
   \   00009B   A3           INC     DPTR
   \   00009C   A3           INC     DPTR
   \   00009D   A3           INC     DPTR
   \   00009E   A3           INC     DPTR
   \   00009F   A3           INC     DPTR
   \   0000A0   12....       LCALL   ?Subroutine46 & 0xFFFF
   \                     ??CrossCallReturnLabel_59:
   \   0000A3   AB83         MOV     R3,DPH
   \   0000A5   EE           MOV     A,R6
   \   0000A6   2409         ADD     A,#0x9
   \   0000A8   F8           MOV     R0,A
   \   0000A9   EF           MOV     A,R7
   \   0000AA   3400         ADDC    A,#0x0
   \   0000AC   F9           MOV     R1,A
   \   0000AD   12....       LCALL   ?Subroutine28 & 0xFFFF
   \                     ??CrossCallReturnLabel_32:
   \   0000B0   A3           INC     DPTR
   \   0000B1   12....       LCALL   ?Subroutine39 & 0xFFFF
   \                     ??CrossCallReturnLabel_47:
   \   0000B4   2413         ADD     A,#0x13
   \   0000B6   F8           MOV     R0,A
   \   0000B7   EF           MOV     A,R7
   \   0000B8   12....       LCALL   ?Subroutine68 & 0xFFFF
   \                     ??CrossCallReturnLabel_95:
   \   0000BB   12....       LCALL   ?Subroutine39 & 0xFFFF
   \                     ??CrossCallReturnLabel_48:
   \   0000BE   240B         ADD     A,#0xb
   \   0000C0   FC           MOV     R4,A
   \   0000C1   EF           MOV     A,R7
   \   0000C2   3400         ADDC    A,#0x0
   \   0000C4   FD           MOV     R5,A
   \   0000C5   8882         MOV     DPL,R0
   \   0000C7   8983         MOV     DPH,R1
   \   0000C9   E0           MOVX    A,@DPTR
   \   0000CA   6403         XRL     A,#0x3
   \   0000CC   7097         JNZ     ??ZDP_MgmtBindRsp_2
   \   0000CE   7415         MOV     A,#0x15
   \   0000D0   25..         ADD     A,?V0 + 0
   \   0000D2   F5..         MOV     ?V0 + 0,A
   \   0000D4                ; Setup parameters for call to function sAddrExtCpy
   \   0000D4   12....       LCALL   ??sAddrExtCpy?relay
   \   0000D7   EE           MOV     A,R6
   \   0000D8   2414         ADD     A,#0x14
   \   0000DA   12....       LCALL   ?Subroutine66 & 0xFFFF
   1676            }
   \                     ??CrossCallReturnLabel_259:
   \   0000DD   12....       LCALL   ?Subroutine46 & 0xFFFF
   \                     ??CrossCallReturnLabel_60:
   \   0000E0   8098         SJMP    ??CrossCallReturnLabel_113
   1677          
   1678            FillAndSendBuffer( &TransSeq, dstAddr, Mgmt_Bind_rsp, len, buf );
   \                     ??ZDP_MgmtBindRsp_3:
   \   0000E2   90....       MOV     DPTR,#ZDP_TmpBuf
   \   0000E5   E5..         MOV     A,?V0 + 6
   \   0000E7   F0           MOVX    @DPTR,A
   \   0000E8   A3           INC     DPTR
   \   0000E9   E5..         MOV     A,?V0 + 7
   \   0000EB   F0           MOVX    @DPTR,A
   \   0000EC                ; Setup parameters for call to function fillAndSend
   \   0000EC   75..33       MOV     ?V0 + 6,#0x33
   \   0000EF   75..80       MOV     ?V0 + 7,#-0x80
   \   0000F2   78..         MOV     R0,#?V0 + 6
   \   0000F4   12....       LCALL   ?PUSH_XSTACK_I_TWO
   \   0000F7   A9..         MOV     R1,?V0 + 0
   \   0000F9   AC..         MOV     R4,?V0 + 12
   \   0000FB   AD..         MOV     R5,?V0 + 13
   \   0000FD   7402         MOV     A,#0x2
   \   0000FF   12....       LCALL   ?XSTACK_DISP0_8
   \   000102   AA82         MOV     R2,DPL
   \   000104   AB83         MOV     R3,DPH
   \   000106   12....       LCALL   ??Subroutine112_0 & 0xFFFF
   \                     ??CrossCallReturnLabel_234:
   \   000109   12....       LCALL   ?DEALLOC_XSTACK8
   \   00010C   12....       LCALL   ?Subroutine56 & 0xFFFF
   \                     ??CrossCallReturnLabel_169:
   \   00010F   02....       LJMP    ?Subroutine6 & 0xFFFF
   1679          }

   \                                 In  segment BANKED_CODE, align 1, keep-with-next
   \                     ?Subroutine46:
   \   000000   E0           MOVX    A,@DPTR
   \   000001   8A82         MOV     DPL,R2
   \   000003   8B83         MOV     DPH,R3
   \   000005   F0           MOVX    @DPTR,A
   \   000006   A3           INC     DPTR
   \   000007   AA82         MOV     R2,DPL
   \   000009   22           RET

   \                                 In  segment BANKED_CODE, align 1, keep-with-next
   \                     ?Subroutine39:
   \   000000   12....       LCALL   ?Subroutine76 & 0xFFFF
   \                     ??CrossCallReturnLabel_107:
   \   000003   EE           MOV     A,R6
   \   000004   22           RET
   1680          
   1681          /*********************************************************************
   1682           * @fn          ZDP_MgmtNwkUpdateNotify
   1683           *
   1684           * @brief       This builds and send a Mgmt_NWK_Update_notify message. This
   1685           *              function sends a unicast message.
   1686           *
   1687           * @param       dstAddr - destination address of the message
   1688           * @param       status - message status (ZDP_SUCCESS or other)
   1689           * @param       scannedChannels - List of channels scanned by the request
   1690           * @param       totalTransmissions - Total transmissions
   1691           * @param       transmissionFailures - Sum of transmission failures
   1692           * @param       listCount - Number of records contained in the energyValues list
   1693           * @param       energyValues - List of descriptors, one for each of ListCount,
   1694           *                             of the enegry detect descriptors
   1695           * @param       txOptions - Transmit options
   1696           * @param       securityEnable - Security options
   1697           *
   1698           * @return      afStatus_t
   1699           */

   \                                 In  segment BANKED_CODE, align 1, keep-with-next
   1700          afStatus_t ZDP_MgmtNwkUpdateNotify( uint8 TransSeq, zAddrType_t *dstAddr,
   \                     ZDP_MgmtNwkUpdateNotify:
   1701                                              uint8 status, uint32 scannedChannels,
   1702                                              uint16 totalTransmissions, uint16 transmissionFailures,
   1703                                              uint8 listCount, uint8 *energyValues, uint8 txOptions,
   1704                                              uint8 securityEnable )
   1705          {
   \   000000   74E8         MOV     A,#-0x18
   \   000002   12....       LCALL   ?BANKED_ENTER_XDATA
   \   000005                ; Saved register size: 24
   \   000005                ; Auto size: 3
   \   000005   74FD         MOV     A,#-0x3
   \   000007   12....       LCALL   ?ALLOC_XSTACK8
   \   00000A   E9           MOV     A,R1
   \   00000B   85..82       MOV     DPL,?XSP + 0
   \   00000E   85..83       MOV     DPH,?XSP + 1
   \   000011   F0           MOVX    @DPTR,A
   \   000012   7401         MOV     A,#0x1
   \   000014   12....       LCALL   ?XSTACK_DISP0_8
   \   000017   EA           MOV     A,R2
   \   000018   12....       LCALL   ??Subroutine114_0 & 0xFFFF
   \                     ??CrossCallReturnLabel_249:
   \   00001B   8C..         MOV     ?V0 + 13,R4
   \   00001D   8D..         MOV     ?V0 + 2,R5
   \   00001F   741B         MOV     A,#0x1b
   \   000021   12....       LCALL   ?XSTACK_DISP0_8
   \   000024   78..         MOV     R0,#?V0 + 4
   \   000026   12....       LCALL   ?L_MOV_X
   \   000029   741F         MOV     A,#0x1f
   \   00002B   12....       LCALL   ?XSTACK_DISP0_8
   \   00002E   12....       LCALL   ??Subroutine113_0 & 0xFFFF
   \                     ??CrossCallReturnLabel_241:
   \   000031   7421         MOV     A,#0x21
   \   000033   12....       LCALL   ?XSTACK_DISP0_8
   \   000036   12....       LCALL   ??Subroutine106_0 & 0xFFFF
   \                     ??CrossCallReturnLabel_193:
   \   000039   7423         MOV     A,#0x23
   \   00003B   12....       LCALL   ?XSTACK_DISP0_8
   \   00003E   E0           MOVX    A,@DPTR
   \   00003F   F5..         MOV     ?V0 + 14,A
   \   000041   A3           INC     DPTR
   \   000042   E0           MOVX    A,@DPTR
   \   000043   F5..         MOV     ?V0 + 15,A
   \   000045   7425         MOV     A,#0x25
   \   000047   12....       LCALL   ?XSTACK_DISP0_8
   \   00004A   E0           MOVX    A,@DPTR
   \   00004B   F5..         MOV     ?V0 + 12,A
   1706            uint8 *buf;
   1707            uint8 *pBuf;
   1708            uint8 len;
   1709          
   1710            (void)securityEnable;  // Intentionally unreferenced parameter
   1711          
   1712            // Status + ScannedChannels + totalTransmissions + transmissionFailures + ListCount + energyValues
   1713            len = 1 + 4 + 2 + 2 + 1 + listCount;
   \   00004D   740A         MOV     A,#0xa
   \   00004F   25..         ADD     A,?V0 + 2
   \   000051   F5..         MOV     ?V0 + 3,A
   1714          
   1715            buf = osal_mem_alloc( len+1 ); // +1 for transaction ID
   \   000053                ; Setup parameters for call to function osal_mem_alloc
   \   000053   12....       LCALL   ?Subroutine63 & 0xFFFF
   1716            if ( buf == NULL )
   \                     ??CrossCallReturnLabel_87:
   \   000056   EA           MOV     A,R2
   \   000057   45..         ORL     A,?V0 + 9
   \   000059   7005         JNZ     ??ZDP_MgmtNwkUpdateNotify_0
   1717            {
   1718              return afStatus_MEM_FAIL;
   \   00005B   7910         MOV     R1,#0x10
   \   00005D   02....       LJMP    ??ZDP_MgmtNwkUpdateNotify_1 & 0xFFFF
   1719            }
   1720          
   1721            pBuf = buf+1;
   \                     ??ZDP_MgmtNwkUpdateNotify_0:
   \   000060   8A82         MOV     DPL,R2
   \   000062   8B83         MOV     DPH,R3
   \   000064   A3           INC     DPTR
   \   000065   8582..       MOV     ?V0 + 10,DPL
   \   000068   8583..       MOV     ?V0 + 11,DPH
   1722          
   1723            *pBuf++ = status;
   \   00006B   E5..         MOV     A,?V0 + 13
   \   00006D   12....       LCALL   ?Subroutine48 & 0xFFFF
   1724          
   1725            pBuf = osal_buffer_uint32( pBuf, scannedChannels );
   \                     ??CrossCallReturnLabel_68:
   \   000070                ; Setup parameters for call to function osal_buffer_uint32
   \   000070   78..         MOV     R0,#?V0 + 4
   \   000072   12....       LCALL   ?PUSH_XSTACK_I_FOUR
   \   000075   12....       LCALL   ??osal_buffer_uint32?relay
   \   000078   7404         MOV     A,#0x4
   \   00007A   12....       LCALL   ?DEALLOC_XSTACK8
   1726          
   1727            *pBuf++ = LO_UINT16( totalTransmissions );
   \   00007D   EE           MOV     A,R6
   \   00007E   8A82         MOV     DPL,R2
   \   000080   8B83         MOV     DPH,R3
   \   000082   F0           MOVX    @DPTR,A
   \   000083   A3           INC     DPTR
   1728            *pBuf++ = HI_UINT16( totalTransmissions );
   \   000084   EF           MOV     A,R7
   \   000085   12....       LCALL   ?Subroutine51 & 0xFFFF
   1729          
   1730            *pBuf++ = LO_UINT16( transmissionFailures );
   1731            *pBuf++ = HI_UINT16( transmissionFailures );
   1732          
   1733            *pBuf++ = listCount;
   \                     ??CrossCallReturnLabel_73:
   \   000088   12....       LCALL   ?Subroutine48 & 0xFFFF
   1734          
   1735            if ( listCount > 0 )
   \                     ??CrossCallReturnLabel_69:
   \   00008B   6019         JZ      ??ZDP_MgmtNwkUpdateNotify_2
   1736              osal_memcpy( pBuf, energyValues, listCount );
   \   00008D                ; Setup parameters for call to function osal_memcpy
   \   00008D   85....       MOV     ?V0 + 4,?V0 + 14
   \   000090   85....       MOV     ?V0 + 5,?V0 + 15
   \   000093   75..00       MOV     ?V0 + 6,#0x0
   \   000096   78..         MOV     R0,#?V0 + 4
   \   000098   12....       LCALL   ?PUSH_XSTACK_I_THREE
   \   00009B   85....       MOV     ?V0 + 0,?V0 + 2
   \   00009E   AC..         MOV     R4,?V0 + 0
   \   0000A0   12....       LCALL   ?Subroutine69 & 0xFFFF
   \                     ??CrossCallReturnLabel_138:
   \   0000A3   12....       LCALL   ?DEALLOC_XSTACK8
   1737          
   1738            FillAndSendBufferTxOptions( &TransSeq, dstAddr, Mgmt_NWK_Update_notify, len, buf, txOptions );
   \                     ??ZDP_MgmtNwkUpdateNotify_2:
   \   0000A6   90....       MOV     DPTR,#ZDP_TmpBuf
   \   0000A9   E5..         MOV     A,?V0 + 10
   \   0000AB   F0           MOVX    @DPTR,A
   \   0000AC   A3           INC     DPTR
   \   0000AD   E5..         MOV     A,?V0 + 11
   \   0000AF   F0           MOVX    @DPTR,A
   \   0000B0   E5..         MOV     A,?V0 + 12
   \   0000B2   90....       MOV     DPTR,#ZDP_TxOptions
   \   0000B5   F0           MOVX    @DPTR,A
   \   0000B6                ; Setup parameters for call to function fillAndSend
   \   0000B6   75..38       MOV     ?V0 + 0,#0x38
   \   0000B9   75..80       MOV     ?V0 + 1,#-0x80
   \   0000BC   78..         MOV     R0,#?V0 + 0
   \   0000BE   12....       LCALL   ?PUSH_XSTACK_I_TWO
   \   0000C1   A9..         MOV     R1,?V0 + 3
   \   0000C3   7403         MOV     A,#0x3
   \   0000C5   12....       LCALL   ?XSTACK_DISP0_8
   \   0000C8   E0           MOVX    A,@DPTR
   \   0000C9   FC           MOV     R4,A
   \   0000CA   A3           INC     DPTR
   \   0000CB   E0           MOVX    A,@DPTR
   \   0000CC   FD           MOV     R5,A
   \   0000CD   7402         MOV     A,#0x2
   \   0000CF   12....       LCALL   ?XSTACK_DISP0_8
   \   0000D2   AA82         MOV     R2,DPL
   \   0000D4   AB83         MOV     R3,DPH
   \   0000D6   12....       LCALL   ??Subroutine112_0 & 0xFFFF
   \                     ??CrossCallReturnLabel_235:
   \   0000D9   12....       LCALL   ?DEALLOC_XSTACK8
   \   0000DC   E9           MOV     A,R1
   \   0000DD   FE           MOV     R6,A
   \   0000DE                ; Setup parameters for call to function osal_mem_free
   \   0000DE   AA..         MOV     R2,?V0 + 8
   \   0000E0   AB..         MOV     R3,?V0 + 9
   \   0000E2   12....       LCALL   ?Subroutine71 & 0xFFFF
   \                     ??CrossCallReturnLabel_101:
   \   0000E5   90....       MOV     DPTR,#ZDP_TxOptions
   \   0000E8   E4           CLR     A
   \   0000E9   F0           MOVX    @DPTR,A
   \   0000EA   EE           MOV     A,R6
   \   0000EB   F9           MOV     R1,A
   \                     ??ZDP_MgmtNwkUpdateNotify_1:
   \   0000EC   7403         MOV     A,#0x3
   \   0000EE   12....       LCALL   ?DEALLOC_XSTACK8
   \   0000F1   02....       LJMP    ?Subroutine5 & 0xFFFF
   1739          }
   1740          
   1741          /*********************************************************************
   1742           * Functions to register for ZDO Over-the-air messages
   1743           */
   1744          
   1745          /*********************************************************************
   1746           * @fn          ZDO_RegisterForZDOMsg
   1747           *
   1748           * @brief       Call this function to register of an incoming over
   1749           *              the air ZDO message - probably a response message
   1750           *              but requests can also be received.
   1751           *              Messages are delivered to the task with ZDO_CB_MSG
   1752           *              as the message ID.
   1753           *
   1754           * @param       taskID - Where you would like the message delivered
   1755           * @param       clusterID - What message?
   1756           *
   1757           * @return      ZSuccess - successful, ZMemError if not
   1758           */

   \                                 In  segment BANKED_CODE, align 1, keep-with-next
   1759          ZStatus_t ZDO_RegisterForZDOMsg( uint8 taskID, uint16 clusterID )
   \                     ZDO_RegisterForZDOMsg:
   1760          {
   \   000000   74F2         MOV     A,#-0xe
   \   000002   12....       LCALL   ?BANKED_ENTER_XDATA
   \   000005                ; Saved register size: 14
   \   000005                ; Auto size: 0
   \   000005   89..         MOV     ?V0 + 2,R1
   \   000007   8A..         MOV     ?V0 + 0,R2
   \   000009   8B..         MOV     ?V0 + 1,R3
   1761            ZDO_MsgCB_t *pList;
   1762            ZDO_MsgCB_t *pLast;
   1763            ZDO_MsgCB_t *pNew;
   1764          
   1765            // Look for duplicate
   1766            pList = pLast = zdoMsgCBs;
   \   00000B   90....       MOV     DPTR,#zdoMsgCBs
   \   00000E   12....       LCALL   ??Subroutine113_0 & 0xFFFF
   \                     ??CrossCallReturnLabel_242:
   \   000011   EE           MOV     A,R6
   \   000012   F8           MOV     R0,A
   \   000013   EF           MOV     A,R7
   \   000014   800C         SJMP    ??ZDO_RegisterForZDOMsg_0
   1767            while ( pList )
   1768            {
   1769              if ( pList->taskID == taskID && pList->clusterID == clusterID )
   1770                return ( ZSuccess );
   1771              pLast = pList;
   \                     ??ZDO_RegisterForZDOMsg_1:
   \   000016   E8           MOV     A,R0
   \   000017   FE           MOV     R6,A
   \   000018   E9           MOV     A,R1
   \   000019   FF           MOV     R7,A
   1772              pList = (ZDO_MsgCB_t *)pList->next;
   \   00001A   8882         MOV     DPL,R0
   \   00001C   8983         MOV     DPH,R1
   \   00001E   E0           MOVX    A,@DPTR
   \   00001F   F8           MOV     R0,A
   \   000020   A3           INC     DPTR
   \   000021   E0           MOVX    A,@DPTR
   \                     ??ZDO_RegisterForZDOMsg_0:
   \   000022   F9           MOV     R1,A
   \   000023   E8           MOV     A,R0
   \   000024   49           ORL     A,R1
   \   000025   6021         JZ      ??ZDO_RegisterForZDOMsg_2
   \   000027   8882         MOV     DPL,R0
   \   000029   8983         MOV     DPH,R1
   \   00002B   A3           INC     DPTR
   \   00002C   A3           INC     DPTR
   \   00002D   E0           MOVX    A,@DPTR
   \   00002E   65..         XRL     A,?V0 + 2
   \   000030   70E4         JNZ     ??ZDO_RegisterForZDOMsg_1
   \   000032   8882         MOV     DPL,R0
   \   000034   8983         MOV     DPH,R1
   \   000036   A3           INC     DPTR
   \   000037   A3           INC     DPTR
   \   000038   A3           INC     DPTR
   \   000039   E0           MOVX    A,@DPTR
   \   00003A   65..         XRL     A,?V0 + 0
   \   00003C   7004         JNZ     ??ZDO_RegisterForZDOMsg_3
   \   00003E   A3           INC     DPTR
   \   00003F   E0           MOVX    A,@DPTR
   \   000040   65..         XRL     A,?V0 + 1
   \                     ??ZDO_RegisterForZDOMsg_3:
   \   000042   70D2         JNZ     ??ZDO_RegisterForZDOMsg_1
   \                     ??ZDO_RegisterForZDOMsg_4:
   \   000044   7900         MOV     R1,#0x0
   \   000046   804E         SJMP    ??ZDO_RegisterForZDOMsg_5
   1773            }
   1774          
   1775            // Add to the list
   1776            pNew = (ZDO_MsgCB_t *)osal_mem_alloc( sizeof ( ZDO_MsgCB_t ) );
   \                     ??ZDO_RegisterForZDOMsg_2:
   \   000048                ; Setup parameters for call to function osal_mem_alloc
   \   000048   7A05         MOV     R2,#0x5
   \   00004A   7B00         MOV     R3,#0x0
   \   00004C   12....       LCALL   ??osal_mem_alloc?relay
   \   00004F   8A..         MOV     ?V0 + 4,R2
   \   000051   8B..         MOV     ?V0 + 5,R3
   \   000053   A8..         MOV     R0,?V0 + 4
   \   000055   A9..         MOV     R1,?V0 + 5
   1777            if ( pNew )
   \   000057   E8           MOV     A,R0
   \   000058   49           ORL     A,R1
   \   000059   6039         JZ      ??ZDO_RegisterForZDOMsg_6
   1778            {
   1779              pNew->taskID = taskID;
   \   00005B   8882         MOV     DPL,R0
   \   00005D   8983         MOV     DPH,R1
   \   00005F   A3           INC     DPTR
   \   000060   A3           INC     DPTR
   \   000061   E5..         MOV     A,?V0 + 2
   \   000063   F0           MOVX    @DPTR,A
   1780              pNew->clusterID = clusterID;
   \   000064   8882         MOV     DPL,R0
   \   000066   8983         MOV     DPH,R1
   \   000068   A3           INC     DPTR
   \   000069   A3           INC     DPTR
   \   00006A   A3           INC     DPTR
   \   00006B   E5..         MOV     A,?V0 + 0
   \   00006D   F0           MOVX    @DPTR,A
   \   00006E   A3           INC     DPTR
   \   00006F   E5..         MOV     A,?V0 + 1
   \   000071   F0           MOVX    @DPTR,A
   1781              pNew->next = NULL;
   \   000072   8882         MOV     DPL,R0
   \   000074   8983         MOV     DPH,R1
   \   000076   E4           CLR     A
   \   000077   F0           MOVX    @DPTR,A
   \   000078   A3           INC     DPTR
   \   000079   F0           MOVX    @DPTR,A
   1782              if ( zdoMsgCBs )
   \   00007A   90....       MOV     DPTR,#zdoMsgCBs
   \   00007D   12....       LCALL   ??Subroutine93_0 & 0xFFFF
   \                     ??CrossCallReturnLabel_130:
   \   000080   EA           MOV     A,R2
   \   000081   4B           ORL     A,R3
   \   000082   600B         JZ      ??ZDO_RegisterForZDOMsg_7
   1783              {
   1784                pLast->next = pNew;
   \   000084   8E82         MOV     DPL,R6
   \   000086   8F83         MOV     DPH,R7
   \                     ??ZDO_RegisterForZDOMsg_8:
   \   000088   E8           MOV     A,R0
   \   000089   F0           MOVX    @DPTR,A
   \   00008A   A3           INC     DPTR
   \   00008B   E9           MOV     A,R1
   \   00008C   F0           MOVX    @DPTR,A
   \   00008D   80B5         SJMP    ??ZDO_RegisterForZDOMsg_4
   1785              }
   1786              else
   1787                zdoMsgCBs = pNew;
   \                     ??ZDO_RegisterForZDOMsg_7:
   \   00008F   90....       MOV     DPTR,#zdoMsgCBs
   \   000092   80F4         SJMP    ??ZDO_RegisterForZDOMsg_8
   1788              return ( ZSuccess );
   1789            }
   1790            else
   1791              return ( ZMemError );
   \                     ??ZDO_RegisterForZDOMsg_6:
   \   000094   7910         MOV     R1,#0x10
   \                     ??ZDO_RegisterForZDOMsg_5:
   \   000096   02....       LJMP    ?Subroutine1 & 0xFFFF
   1792          }
   1793          
   1794          /*********************************************************************
   1795           * @fn          ZDO_RemoveRegisteredCB
   1796           *
   1797           * @brief       Call this function if you don't want to receive the
   1798           *              incoming message.
   1799           *
   1800           * @param       taskID - Where the messages are being delivered.
   1801           * @param       clusterID - What message?
   1802           *
   1803           * @return      ZSuccess - successful, ZFailure if not found
   1804           */

   \                                 In  segment BANKED_CODE, align 1, keep-with-next
   1805          ZStatus_t ZDO_RemoveRegisteredCB( uint8 taskID, uint16 clusterID )
   \                     ZDO_RemoveRegisteredCB:
   1806          {
   \   000000   74F7         MOV     A,#-0x9
   \   000002   12....       LCALL   ?BANKED_ENTER_XDATA
   \   000005                ; Saved register size: 9
   \   000005                ; Auto size: 0
   \   000005   E9           MOV     A,R1
   \   000006   FE           MOV     R6,A
   1807            ZDO_MsgCB_t *pList;
   1808            ZDO_MsgCB_t *pLast = NULL;
   \   000007   7C00         MOV     R4,#0x0
   \   000009   7D00         MOV     R5,#0x0
   1809          
   1810            pList = zdoMsgCBs;
   \   00000B   90....       MOV     DPTR,#zdoMsgCBs
   \   00000E   8008         SJMP    ??ZDO_RemoveRegisteredCB_0
   1811            while ( pList )
   1812            {
   1813              if ( pList->taskID == taskID && pList->clusterID == clusterID )
   1814              {
   1815                if ( pLast )
   1816                {
   1817                  // remove this one from the linked list
   1818                  pLast->next = pList->next;
   1819                }
   1820                else if ( pList->next )
   1821                {
   1822                  // remove the first one from the linked list
   1823                  zdoMsgCBs = pList->next;
   1824                }
   1825                else
   1826                {
   1827                  // remove the only item from the list
   1828                  zdoMsgCBs = (ZDO_MsgCB_t *)NULL;
   1829                }
   1830                osal_mem_free( pList );
   1831                return ( ZSuccess );
   1832              }
   1833              pLast = pList;
   \                     ??ZDO_RemoveRegisteredCB_1:
   \   000010   E8           MOV     A,R0
   \   000011   FC           MOV     R4,A
   \   000012   E9           MOV     A,R1
   \   000013   FD           MOV     R5,A
   1834              pList = pList->next;
   \   000014   8882         MOV     DPL,R0
   \   000016   8983         MOV     DPH,R1
   \                     ??ZDO_RemoveRegisteredCB_0:
   \   000018   12....       LCALL   ?Subroutine29 & 0xFFFF
   \                     ??CrossCallReturnLabel_33:
   \   00001B   49           ORL     A,R1
   \   00001C   6045         JZ      ??ZDO_RemoveRegisteredCB_2
   \   00001E   8882         MOV     DPL,R0
   \   000020   8983         MOV     DPH,R1
   \   000022   A3           INC     DPTR
   \   000023   A3           INC     DPTR
   \   000024   E0           MOVX    A,@DPTR
   \   000025   6E           XRL     A,R6
   \   000026   70E8         JNZ     ??ZDO_RemoveRegisteredCB_1
   \   000028   8882         MOV     DPL,R0
   \   00002A   8983         MOV     DPH,R1
   \   00002C   A3           INC     DPTR
   \   00002D   A3           INC     DPTR
   \   00002E   A3           INC     DPTR
   \   00002F   E0           MOVX    A,@DPTR
   \   000030   6A           XRL     A,R2
   \   000031   7003         JNZ     ??ZDO_RemoveRegisteredCB_3
   \   000033   A3           INC     DPTR
   \   000034   E0           MOVX    A,@DPTR
   \   000035   6B           XRL     A,R3
   \                     ??ZDO_RemoveRegisteredCB_3:
   \   000036   70D8         JNZ     ??ZDO_RemoveRegisteredCB_1
   \   000038   8882         MOV     DPL,R0
   \   00003A   8983         MOV     DPH,R1
   \   00003C   12....       LCALL   ??Subroutine93_0 & 0xFFFF
   \                     ??CrossCallReturnLabel_131:
   \   00003F   EC           MOV     A,R4
   \   000040   4D           ORL     A,R5
   \   000041   600A         JZ      ??ZDO_RemoveRegisteredCB_4
   \   000043   8C82         MOV     DPL,R4
   \   000045   8D83         MOV     DPH,R5
   \                     ??ZDO_RemoveRegisteredCB_5:
   \   000047   EA           MOV     A,R2
   \   000048   F0           MOVX    @DPTR,A
   \   000049   A3           INC     DPTR
   \   00004A   EB           MOV     A,R3
   \   00004B   800A         SJMP    ??ZDO_RemoveRegisteredCB_6
   \                     ??ZDO_RemoveRegisteredCB_4:
   \   00004D   EA           MOV     A,R2
   \   00004E   4B           ORL     A,R3
   \   00004F   90....       MOV     DPTR,#zdoMsgCBs
   \   000052   70F3         JNZ     ??ZDO_RemoveRegisteredCB_5
   \   000054   E4           CLR     A
   \   000055   F0           MOVX    @DPTR,A
   \   000056   A3           INC     DPTR
   \                     ??ZDO_RemoveRegisteredCB_6:
   \   000057   F0           MOVX    @DPTR,A
   \   000058                ; Setup parameters for call to function osal_mem_free
   \   000058   E8           MOV     A,R0
   \   000059   FA           MOV     R2,A
   \   00005A   E9           MOV     A,R1
   \   00005B   FB           MOV     R3,A
   \   00005C   12....       LCALL   ??osal_mem_free?relay
   \   00005F   7900         MOV     R1,#0x0
   \   000061   8002         SJMP    ??ZDO_RemoveRegisteredCB_7
   1835            }
   1836          
   1837            return ( ZFailure );
   \                     ??ZDO_RemoveRegisteredCB_2:
   \   000063   7901         MOV     R1,#0x1
   \                     ??ZDO_RemoveRegisteredCB_7:
   \   000065   7F01         MOV     R7,#0x1
   \   000067   02....       LJMP    ?BANKED_LEAVE_XDATA
   1838          }
   1839          
   1840          /*********************************************************************
   1841           * @fn          ZDO_SendMsgCBs
   1842           *
   1843           * @brief       This function sends messages to registered tasks.
   1844           *              Local to ZDO and shouldn't be called outside of ZDO.
   1845           *
   1846           * @param       inMsg - incoming message
   1847           *
   1848           * @return      TRUE if sent to at least 1 task, FALSE if not
   1849           */

   \                                 In  segment BANKED_CODE, align 1, keep-with-next
   1850          uint8 ZDO_SendMsgCBs( zdoIncomingMsg_t *inMsg )
   \                     ZDO_SendMsgCBs:
   1851          {
   \   000000   74EE         MOV     A,#-0x12
   \   000002   12....       LCALL   ?BANKED_ENTER_XDATA
   \   000005                ; Saved register size: 18
   \   000005                ; Auto size: 0
   \   000005   8A..         MOV     ?V0 + 2,R2
   \   000007   8B..         MOV     ?V0 + 3,R3
   1852            uint8 ret = FALSE;
   \   000009   75..00       MOV     ?V0 + 4,#0x0
   1853            ZDO_MsgCB_t *pList = zdoMsgCBs;
   \   00000C   90....       MOV     DPTR,#zdoMsgCBs
   \   00000F   12....       LCALL   ??Subroutine106_0 & 0xFFFF
   \                     ??CrossCallReturnLabel_194:
   \   000012   EA           MOV     A,R2
   \   000013   2410         ADD     A,#0x10
   \   000015   F5..         MOV     ?V0 + 8,A
   \   000017   EB           MOV     A,R3
   \   000018   3400         ADDC    A,#0x0
   \   00001A   F5..         MOV     ?V0 + 9,A
   \   00001C   02....       LJMP    ??CrossCallReturnLabel_195 & 0xFFFF
   1854            while ( pList )
   1855            {
   1856              if ( pList->clusterID == inMsg->clusterID )
   \                     ??ZDO_SendMsgCBs_0:
   \   00001F   85..82       MOV     DPL,?V0 + 0
   \   000022   85..83       MOV     DPH,?V0 + 1
   \   000025   A3           INC     DPTR
   \   000026   A3           INC     DPTR
   \   000027   A3           INC     DPTR
   \   000028   12....       LCALL   ??Subroutine118_0 & 0xFFFF
   \                     ??CrossCallReturnLabel_277:
   \   00002B   E5..         MOV     A,?V0 + 2
   \   00002D   240C         ADD     A,#0xc
   \   00002F   F582         MOV     DPL,A
   \   000031   E5..         MOV     A,?V0 + 3
   \   000033   12....       LCALL   ??Subroutine116_0 & 0xFFFF
   \                     ??CrossCallReturnLabel_264:
   \   000036   68           XRL     A,R0
   \   000037   7003         JNZ     ??ZDO_SendMsgCBs_1
   \   000039   A3           INC     DPTR
   \   00003A   E0           MOVX    A,@DPTR
   \   00003B   69           XRL     A,R1
   \                     ??ZDO_SendMsgCBs_1:
   \   00003C   6003         JZ      $+5
   \   00003E   02....       LJMP    ??ZDO_SendMsgCBs_2 & 0xFFFF
   1857              {
   1858                zdoIncomingMsg_t *msgPtr;
   1859          
   1860                // Send the address to the task
   1861                msgPtr = (zdoIncomingMsg_t *)osal_msg_allocate( sizeof( zdoIncomingMsg_t ) + inMsg->asduLen );
   \   000041                ; Setup parameters for call to function osal_msg_allocate
   \   000041   85..82       MOV     DPL,?V0 + 8
   \   000044   85..83       MOV     DPH,?V0 + 9
   \   000047   E0           MOVX    A,@DPTR
   \   000048   2415         ADD     A,#0x15
   \   00004A   FA           MOV     R2,A
   \   00004B   E4           CLR     A
   \   00004C   3400         ADDC    A,#0x0
   \   00004E   FB           MOV     R3,A
   \   00004F   12....       LCALL   ??osal_msg_allocate?relay
   \   000052   8A..         MOV     ?V0 + 6,R2
   \   000054   8B..         MOV     ?V0 + 7,R3
   \   000056   AE..         MOV     R6,?V0 + 6
   \   000058   AF..         MOV     R7,?V0 + 7
   1862                if ( msgPtr )
   \   00005A   EE           MOV     A,R6
   \   00005B   4F           ORL     A,R7
   \   00005C   606D         JZ      ??ZDO_SendMsgCBs_2
   1863                {
   1864                  // copy struct
   1865                  osal_memcpy( msgPtr, inMsg, sizeof( zdoIncomingMsg_t ));
   \   00005E                ; Setup parameters for call to function osal_memcpy
   \   00005E   85....       MOV     ?V0 + 4,?V0 + 2
   \   000061   85....       MOV     ?V0 + 5,?V0 + 3
   \   000064   75..00       MOV     ?V0 + 6,#0x0
   \   000067   78..         MOV     R0,#?V0 + 4
   \   000069   12....       LCALL   ?PUSH_XSTACK_I_THREE
   \   00006C   7C15         MOV     R4,#0x15
   \   00006E   12....       LCALL   ?Subroutine69 & 0xFFFF
   \                     ??CrossCallReturnLabel_139:
   \   000071   12....       LCALL   ?DEALLOC_XSTACK8
   1866          
   1867                  if ( inMsg->asduLen )
   \   000074   85..82       MOV     DPL,?V0 + 8
   \   000077   85..83       MOV     DPH,?V0 + 9
   \   00007A   E0           MOVX    A,@DPTR
   \   00007B   6033         JZ      ??ZDO_SendMsgCBs_3
   1868                  {
   1869                    msgPtr->asdu = (byte*)(((byte*)msgPtr) + sizeof( zdoIncomingMsg_t ));
   \   00007D   EE           MOV     A,R6
   \   00007E   2415         ADD     A,#0x15
   \   000080   FA           MOV     R2,A
   \   000081   EF           MOV     A,R7
   \   000082   3400         ADDC    A,#0x0
   \   000084   FB           MOV     R3,A
   \   000085   EE           MOV     A,R6
   \   000086   2413         ADD     A,#0x13
   \   000088   12....       LCALL   ?Subroutine66 & 0xFFFF
   \                     ??CrossCallReturnLabel_260:
   \   00008B   EA           MOV     A,R2
   \   00008C   12....       LCALL   ??Subroutine114_0 & 0xFFFF
   1870                    osal_memcpy( msgPtr->asdu, inMsg->asdu, inMsg->asduLen );
   \                     ??CrossCallReturnLabel_250:
   \   00008F                ; Setup parameters for call to function osal_memcpy
   \   00008F   E5..         MOV     A,?V0 + 2
   \   000091   2413         ADD     A,#0x13
   \   000093   F582         MOV     DPL,A
   \   000095   E5..         MOV     A,?V0 + 3
   \   000097   12....       LCALL   ??Subroutine115_0 & 0xFFFF
   1871                  }
   \                     ??CrossCallReturnLabel_255:
   \   00009A   12....       LCALL   ?Subroutine18 & 0xFFFF
   \                     ??CrossCallReturnLabel_14:
   \   00009D   78..         MOV     R0,#?V0 + 4
   \   00009F   12....       LCALL   ?PUSH_XSTACK_I_THREE
   \   0000A2   85..82       MOV     DPL,?V0 + 8
   \   0000A5   85..83       MOV     DPH,?V0 + 9
   \   0000A8   E0           MOVX    A,@DPTR
   \   0000A9   FC           MOV     R4,A
   \   0000AA   12....       LCALL   ?Subroutine69 & 0xFFFF
   \                     ??CrossCallReturnLabel_140:
   \   0000AD   12....       LCALL   ?DEALLOC_XSTACK8
   1872          
   1873                  msgPtr->hdr.event = ZDO_CB_MSG;
   \                     ??ZDO_SendMsgCBs_3:
   \   0000B0   8E82         MOV     DPL,R6
   \   0000B2   8F83         MOV     DPH,R7
   \   0000B4   74D3         MOV     A,#-0x2d
   \   0000B6   F0           MOVX    @DPTR,A
   1874                  osal_msg_send( pList->taskID, (uint8 *)msgPtr );
   \   0000B7                ; Setup parameters for call to function osal_msg_send
   \   0000B7   EE           MOV     A,R6
   \   0000B8   FA           MOV     R2,A
   \   0000B9   EF           MOV     A,R7
   \   0000BA   FB           MOV     R3,A
   \   0000BB   85..82       MOV     DPL,?V0 + 0
   \   0000BE   85..83       MOV     DPH,?V0 + 1
   \   0000C1   A3           INC     DPTR
   \   0000C2   A3           INC     DPTR
   \   0000C3   E0           MOVX    A,@DPTR
   \   0000C4   F9           MOV     R1,A
   \   0000C5   12....       LCALL   ??osal_msg_send?relay
   1875                  ret = TRUE;
   \   0000C8   75..01       MOV     ?V0 + 4,#0x1
   1876                }
   1877              }
   1878              pList = (ZDO_MsgCB_t *)pList->next;
   \                     ??ZDO_SendMsgCBs_2:
   \   0000CB   85..82       MOV     DPL,?V0 + 0
   \   0000CE   85..83       MOV     DPH,?V0 + 1
   \   0000D1   12....       LCALL   ??Subroutine106_0 & 0xFFFF
   1879            }
   \                     ??CrossCallReturnLabel_195:
   \   0000D4   E5..         MOV     A,?V0 + 0
   \   0000D6   45..         ORL     A,?V0 + 1
   \   0000D8   6003         JZ      $+5
   \   0000DA   02....       LJMP    ??ZDO_SendMsgCBs_0 & 0xFFFF
   1880            return ( ret );
   \   0000DD   A9..         MOV     R1,?V0 + 4
   \   0000DF   02....       LJMP    ??Subroutine97_0 & 0xFFFF
   1881          }
   1882          
   1883          /*********************************************************************
   1884           * Incoming message processor
   1885           */
   1886          
   1887          /*********************************************************************
   1888           * @fn          ZDP_IncomingData
   1889           *
   1890           * @brief       This function indicates the transfer of a data PDU (ASDU)
   1891           *              from the APS sub-layer to the ZDO.
   1892           *
   1893           * @param       pData - Incoming Message
   1894           *
   1895           * @return      none
   1896           */

   \                                 In  segment BANKED_CODE, align 1, keep-with-next
   \                     ?Subroutine62:
   \   000000   F582         MOV     DPL,A
   \   000002   EB           MOV     A,R3
   \   000003                REQUIRE ??Subroutine116_0
   \   000003                ; // Fall through to label ??Subroutine116_0

   \                                 In  segment BANKED_CODE, align 1, keep-with-next
   1897          void ZDP_IncomingData( afIncomingMSGPacket_t *pData )
   \                     ZDP_IncomingData:
   1898          {
   \   000000   74F6         MOV     A,#-0xa
   \   000002   12....       LCALL   ?BANKED_ENTER_XDATA
   \   000005                ; Saved register size: 10
   \   000005                ; Auto size: 21
   \   000005   74EB         MOV     A,#-0x15
   \   000007   12....       LCALL   ?ALLOC_XSTACK8
   1899            uint8 x = 0;
   \   00000A   7E00         MOV     R6,#0x0
   1900            uint8 handled;
   1901            zdoIncomingMsg_t inMsg;
   1902          
   1903            inMsg.srcAddr.addrMode = Addr16Bit;
   \   00000C   740A         MOV     A,#0xa
   \   00000E   12....       LCALL   ?XSTACK_DISP0_8
   \   000011   7402         MOV     A,#0x2
   \   000013   12....       LCALL   ?Subroutine59 & 0xFFFF
   1904            inMsg.srcAddr.addr.shortAddr = pData->srcAddr.addr.shortAddr;
   \                     ??CrossCallReturnLabel_84:
   \   000016   A3           INC     DPTR
   \   000017   A3           INC     DPTR
   \   000018   12....       LCALL   ??Subroutine118_0 & 0xFFFF
   \                     ??CrossCallReturnLabel_278:
   \   00001B   7402         MOV     A,#0x2
   \   00001D   12....       LCALL   ?XSTACK_DISP0_8
   \   000020   E8           MOV     A,R0
   \   000021   F0           MOVX    @DPTR,A
   \   000022   A3           INC     DPTR
   \   000023   E9           MOV     A,R1
   \   000024   F0           MOVX    @DPTR,A
   1905            inMsg.wasBroadcast = pData->wasBroadcast;
   \   000025   EA           MOV     A,R2
   \   000026   2415         ADD     A,#0x15
   \   000028   12....       LCALL   ?Subroutine62 & 0xFFFF
   \                     ??CrossCallReturnLabel_265:
   \   00002B   C0E0         PUSH    A
   \   00002D   740B         MOV     A,#0xb
   \   00002F   12....       LCALL   ?XSTACK_DISP0_8
   \   000032   D0E0         POP     A
   \   000034   12....       LCALL   ?Subroutine59 & 0xFFFF
   1906            inMsg.clusterID = pData->clusterId;
   \                     ??CrossCallReturnLabel_85:
   \   000037   12....       LCALL   ??Subroutine118_0 & 0xFFFF
   \                     ??CrossCallReturnLabel_279:
   \   00003A   740C         MOV     A,#0xc
   \   00003C   12....       LCALL   ?XSTACK_DISP0_8
   \   00003F   E8           MOV     A,R0
   \   000040   F0           MOVX    @DPTR,A
   \   000041   A3           INC     DPTR
   \   000042   E9           MOV     A,R1
   \   000043   F0           MOVX    @DPTR,A
   1907            inMsg.SecurityUse = pData->SecurityUse;
   \   000044   EA           MOV     A,R2
   \   000045   2419         ADD     A,#0x19
   \   000047   12....       LCALL   ?Subroutine62 & 0xFFFF
   \                     ??CrossCallReturnLabel_266:
   \   00004A   C0E0         PUSH    A
   \   00004C   740E         MOV     A,#0xe
   \   00004E   12....       LCALL   ?XSTACK_DISP0_8
   \   000051   D0E0         POP     A
   \   000053   F0           MOVX    @DPTR,A
   1908          
   1909            inMsg.asduLen = pData->cmd.DataLength-1;
   \   000054   EA           MOV     A,R2
   \   000055   241F         ADD     A,#0x1f
   \   000057   12....       LCALL   ?Subroutine62 & 0xFFFF
   \                     ??CrossCallReturnLabel_267:
   \   00005A   14           DEC     A
   \   00005B   C0E0         PUSH    A
   \   00005D   7410         MOV     A,#0x10
   \   00005F   12....       LCALL   ?XSTACK_DISP0_8
   \   000062   D0E0         POP     A
   \   000064   F0           MOVX    @DPTR,A
   1910            inMsg.asdu = pData->cmd.Data+1;
   \   000065   EA           MOV     A,R2
   \   000066   2421         ADD     A,#0x21
   \   000068   F8           MOV     R0,A
   \   000069   EB           MOV     A,R3
   \   00006A   12....       LCALL   ?Subroutine68 & 0xFFFF
   \                     ??CrossCallReturnLabel_96:
   \   00006D   E0           MOVX    A,@DPTR
   \   00006E   2401         ADD     A,#0x1
   \   000070   FC           MOV     R4,A
   \   000071   A3           INC     DPTR
   \   000072   E0           MOVX    A,@DPTR
   \   000073   3400         ADDC    A,#0x0
   \   000075   FD           MOV     R5,A
   \   000076   7413         MOV     A,#0x13
   \   000078   12....       LCALL   ?XSTACK_DISP0_8
   \   00007B   EC           MOV     A,R4
   \   00007C   F0           MOVX    @DPTR,A
   \   00007D   A3           INC     DPTR
   \   00007E   ED           MOV     A,R5
   \   00007F   F0           MOVX    @DPTR,A
   1911            inMsg.TransSeq = pData->cmd.Data[0];
   \   000080   8882         MOV     DPL,R0
   \   000082   8983         MOV     DPH,R1
   \   000084   12....       LCALL   ??Subroutine96_0 & 0xFFFF
   \                     ??CrossCallReturnLabel_143:
   \   000087   E0           MOVX    A,@DPTR
   \   000088   C0E0         PUSH    A
   \   00008A   740F         MOV     A,#0xf
   \   00008C   12....       LCALL   ?XSTACK_DISP0_8
   \   00008F   D0E0         POP     A
   \   000091   F0           MOVX    @DPTR,A
   1912            inMsg.macDestAddr = pData->macDestAddr;
   \   000092   EA           MOV     A,R2
   \   000093   2412         ADD     A,#0x12
   \   000095   F582         MOV     DPL,A
   \   000097   EB           MOV     A,R3
   \   000098   12....       LCALL   ??Subroutine115_0 & 0xFFFF
   \                     ??CrossCallReturnLabel_256:
   \   00009B   12....       LCALL   ??Subroutine118_0 & 0xFFFF
   \                     ??CrossCallReturnLabel_280:
   \   00009E   7411         MOV     A,#0x11
   \   0000A0   12....       LCALL   ?XSTACK_DISP0_8
   \   0000A3   E8           MOV     A,R0
   \   0000A4   F0           MOVX    @DPTR,A
   \   0000A5   A3           INC     DPTR
   \   0000A6   E9           MOV     A,R1
   \   0000A7   12....       LCALL   ?Subroutine55 & 0xFFFF
   1913          
   1914            handled = ZDO_SendMsgCBs( &inMsg );
   \                     ??CrossCallReturnLabel_78:
   \   0000AA   AA82         MOV     R2,DPL
   \   0000AC   AB83         MOV     R3,DPH
   \   0000AE   12....       LCALL   ??ZDO_SendMsgCBs?relay
   \   0000B1   E9           MOV     A,R1
   \   0000B2   FC           MOV     R4,A
   \   0000B3   8001         SJMP    ??ZDP_IncomingData_0
   1915          
   1916          #if (defined MT_ZDO_CB_FUNC)
   1917          #if !defined MT_TASK
   1918            if (zgZdoDirectCB)
   1919          #endif
   1920            {
   1921              MT_ZdoDirectCB( pData, &inMsg );
   1922            }
   1923          #endif
   1924          
   1925            while ( zdpMsgProcs[x].clusterID != 0xFFFF )
   1926            {
   1927              if ( zdpMsgProcs[x].clusterID == inMsg.clusterID )
   1928              {
   1929                zdpMsgProcs[x].pFn( &inMsg );
   1930                return;
   1931              }
   1932              x++;
   \                     ??ZDP_IncomingData_1:
   \   0000B5   0E           INC     R6
   \                     ??ZDP_IncomingData_0:
   \   0000B6   8E..         MOV     ?V0 + 0,R6
   \   0000B8   75..00       MOV     ?V0 + 1,#0x0
   \   0000BB   7402         MOV     A,#0x2
   \   0000BD   78..         MOV     R0,#?V0 + 0
   \   0000BF   12....       LCALL   ?S_SHL
   \   0000C2   74..         MOV     A,#zdpMsgProcs & 0xff
   \   0000C4   25..         ADD     A,?V0 + 0
   \   0000C6   F8           MOV     R0,A
   \   0000C7   74..         MOV     A,#(zdpMsgProcs >> 8) & 0xff
   \   0000C9   35..         ADDC    A,?V0 + 1
   \   0000CB   F9           MOV     R1,A
   \   0000CC   8882         MOV     DPL,R0
   \   0000CE   8983         MOV     DPH,R1
   \   0000D0   E4           CLR     A
   \   0000D1   93           MOVC    A,@A+DPTR
   \   0000D2   C0E0         PUSH    A
   \   0000D4   7401         MOV     A,#0x1
   \   0000D6   93           MOVC    A,@A+DPTR
   \   0000D7   F583         MOV     DPH,A
   \   0000D9   D082         POP     DPL
   \   0000DB   AA82         MOV     R2,DPL
   \   0000DD   AB83         MOV     R3,DPH
   \   0000DF   74FF         MOV     A,#-0x1
   \   0000E1   6A           XRL     A,R2
   \   0000E2   7003         JNZ     ??ZDP_IncomingData_2
   \   0000E4   74FF         MOV     A,#-0x1
   \   0000E6   6B           XRL     A,R3
   \                     ??ZDP_IncomingData_2:
   \   0000E7   602E         JZ      ??ZDP_IncomingData_3
   \   0000E9   740C         MOV     A,#0xc
   \   0000EB   12....       LCALL   ?XSTACK_DISP0_8
   \   0000EE   E0           MOVX    A,@DPTR
   \   0000EF   6A           XRL     A,R2
   \   0000F0   7003         JNZ     ??ZDP_IncomingData_4
   \   0000F2   A3           INC     DPTR
   \   0000F3   E0           MOVX    A,@DPTR
   \   0000F4   6B           XRL     A,R3
   \                     ??ZDP_IncomingData_4:
   \   0000F5   70BE         JNZ     ??ZDP_IncomingData_1
   \   0000F7                ; Setup parameters for indirect call
   \   0000F7   85..82       MOV     DPL,?XSP + 0
   \   0000FA   85..83       MOV     DPH,?XSP + 1
   \   0000FD   AA82         MOV     R2,DPL
   \   0000FF   AB83         MOV     R3,DPH
   \   000101   8882         MOV     DPL,R0
   \   000103   8983         MOV     DPH,R1
   \   000105   A3           INC     DPTR
   \   000106   A3           INC     DPTR
   \   000107   E4           CLR     A
   \   000108   93           MOVC    A,@A+DPTR
   \   000109   C0E0         PUSH    A
   \   00010B   7401         MOV     A,#0x1
   \   00010D   93           MOVC    A,@A+DPTR
   \   00010E   F583         MOV     DPH,A
   \   000110   D082         POP     DPL
   \   000112   12....       LCALL   ?CALL_IND
   \   000115   8010         SJMP    ??ZDP_IncomingData_5
   1933            }
   1934          
   1935            // Handle unhandled messages
   1936            if ( !handled )
   \                     ??ZDP_IncomingData_3:
   \   000117   EC           MOV     A,R4
   \   000118   700D         JNZ     ??ZDP_IncomingData_5
   1937              ZDApp_InMsgCB( &inMsg );
   \   00011A                ; Setup parameters for call to function ZDApp_InMsgCB
   \   00011A   85..82       MOV     DPL,?XSP + 0
   \   00011D   85..83       MOV     DPH,?XSP + 1
   \   000120   AA82         MOV     R2,DPL
   \   000122   AB83         MOV     R3,DPH
   \   000124   12....       LCALL   ??ZDApp_InMsgCB?relay
   \                     ??ZDP_IncomingData_5:
   \   000127   7415         MOV     A,#0x15
   \   000129   02....       LJMP    ??Subroutine89_0 & 0xFFFF
   1938          }

   \                                 In  segment BANKED_CODE, align 1, keep-with-next
   \                     ?Subroutine59:
   \   000000   F0           MOVX    @DPTR,A
   \   000001   8A82         MOV     DPL,R2
   \   000003   8B83         MOV     DPH,R3
   \   000005   A3           INC     DPTR
   \   000006   A3           INC     DPTR
   \   000007   A3           INC     DPTR
   \   000008   A3           INC     DPTR
   \   000009   22           RET

   \                                 In  segment XDATA_ID, align 1, keep-with-next
   \                     `?<Initializer for ZDP_TmpBuf>`:
   \   000000   ....         DW ZDP_Buf + 1H

   \                                 In  segment BANK_RELAYS, align 1
   \                     ??fillAndSend?relay:
   \   000000   12....       LCALL   ?BDISPATCH
   \   000003   ......       DC24    fillAndSend

   \                                 In  segment BANK_RELAYS, align 1
   \                     ??ZDP_SendData?relay:
   \   000000   12....       LCALL   ?BDISPATCH
   \   000003   ......       DC24    ZDP_SendData

   \                                 In  segment BANK_RELAYS, align 1
   \                     ??ZDP_NWKAddrOfInterestReq?relay:
   \   000000   12....       LCALL   ?BDISPATCH
   \   000003   ......       DC24    ZDP_NWKAddrOfInterestReq

   \                                 In  segment BANK_RELAYS, align 1
   \                     ??ZDP_NwkAddrReq?relay:
   \   000000   12....       LCALL   ?BDISPATCH
   \   000003   ......       DC24    ZDP_NwkAddrReq

   \                                 In  segment BANK_RELAYS, align 1
   \                     ??ZDP_IEEEAddrReq?relay:
   \   000000   12....       LCALL   ?BDISPATCH
   \   000003   ......       DC24    ZDP_IEEEAddrReq

   \                                 In  segment BANK_RELAYS, align 1
   \                     ??ZDP_MatchDescReq?relay:
   \   000000   12....       LCALL   ?BDISPATCH
   \   000003   ......       DC24    ZDP_MatchDescReq

   \                                 In  segment BANK_RELAYS, align 1
   \                     ??ZDP_SimpleDescReq?relay:
   \   000000   12....       LCALL   ?BDISPATCH
   \   000003   ......       DC24    ZDP_SimpleDescReq

   \                                 In  segment BANK_RELAYS, align 1
   \                     ??ZDP_UserDescSet?relay:
   \   000000   12....       LCALL   ?BDISPATCH
   \   000003   ......       DC24    ZDP_UserDescSet

   \                                 In  segment BANK_RELAYS, align 1
   \                     ??ZDP_ServerDiscReq?relay:
   \   000000   12....       LCALL   ?BDISPATCH
   \   000003   ......       DC24    ZDP_ServerDiscReq

   \                                 In  segment BANK_RELAYS, align 1
   \                     ??ZDP_DeviceAnnce?relay:
   \   000000   12....       LCALL   ?BDISPATCH
   \   000003   ......       DC24    ZDP_DeviceAnnce

   \                                 In  segment BANK_RELAYS, align 1
   \                     ??zdpProcessAddrReq?relay:
   \   000000   12....       LCALL   ?BDISPATCH
   \   000003   ......       DC24    zdpProcessAddrReq

   \                                 In  segment BANK_RELAYS, align 1
   \                     ??ZDP_NodeDescMsg?relay:
   \   000000   12....       LCALL   ?BDISPATCH
   \   000003   ......       DC24    ZDP_NodeDescMsg

   \                                 In  segment BANK_RELAYS, align 1
   \                     ??ZDP_PowerDescMsg?relay:
   \   000000   12....       LCALL   ?BDISPATCH
   \   000003   ......       DC24    ZDP_PowerDescMsg

   \                                 In  segment BANK_RELAYS, align 1
   \                     ??ZDP_SimpleDescMsg?relay:
   \   000000   12....       LCALL   ?BDISPATCH
   \   000003   ......       DC24    ZDP_SimpleDescMsg

   \                                 In  segment BANK_RELAYS, align 1
   \                     ??ZDP_EPRsp?relay:
   \   000000   12....       LCALL   ?BDISPATCH
   \   000003   ......       DC24    ZDP_EPRsp

   \                                 In  segment BANK_RELAYS, align 1
   \                     ??ZDP_UserDescRsp?relay:
   \   000000   12....       LCALL   ?BDISPATCH
   \   000003   ......       DC24    ZDP_UserDescRsp

   \                                 In  segment BANK_RELAYS, align 1
   \                     ??ZDP_ServerDiscRsp?relay:
   \   000000   12....       LCALL   ?BDISPATCH
   \   000003   ......       DC24    ZDP_ServerDiscRsp

   \                                 In  segment BANK_RELAYS, align 1
   \                     ??ZDP_GenericRsp?relay:
   \   000000   12....       LCALL   ?BDISPATCH
   \   000003   ......       DC24    ZDP_GenericRsp

   \                                 In  segment BANK_RELAYS, align 1
   \                     ??ZDP_EndDeviceBindReq?relay:
   \   000000   12....       LCALL   ?BDISPATCH
   \   000003   ......       DC24    ZDP_EndDeviceBindReq

   \                                 In  segment BANK_RELAYS, align 1
   \                     ??ZDP_BindUnbindReq?relay:
   \   000000   12....       LCALL   ?BDISPATCH
   \   000003   ......       DC24    ZDP_BindUnbindReq

   \                                 In  segment BANK_RELAYS, align 1
   \                     ??ZDP_MgmtNwkDiscReq?relay:
   \   000000   12....       LCALL   ?BDISPATCH
   \   000003   ......       DC24    ZDP_MgmtNwkDiscReq

   \                                 In  segment BANK_RELAYS, align 1
   \                     ??ZDP_MgmtDirectJoinReq?relay:
   \   000000   12....       LCALL   ?BDISPATCH
   \   000003   ......       DC24    ZDP_MgmtDirectJoinReq

   \                                 In  segment BANK_RELAYS, align 1
   \                     ??ZDP_MgmtPermitJoinReq?relay:
   \   000000   12....       LCALL   ?BDISPATCH
   \   000003   ......       DC24    ZDP_MgmtPermitJoinReq

   \                                 In  segment BANK_RELAYS, align 1
   \                     ??ZDP_MgmtLeaveReq?relay:
   \   000000   12....       LCALL   ?BDISPATCH
   \   000003   ......       DC24    ZDP_MgmtLeaveReq

   \                                 In  segment BANK_RELAYS, align 1
   \                     ??ZDP_MgmtNwkUpdateReq?relay:
   \   000000   12....       LCALL   ?BDISPATCH
   \   000003   ......       DC24    ZDP_MgmtNwkUpdateReq

   \                                 In  segment BANK_RELAYS, align 1
   \                     ??ZDP_MgmtNwkDiscRsp?relay:
   \   000000   12....       LCALL   ?BDISPATCH
   \   000003   ......       DC24    ZDP_MgmtNwkDiscRsp

   \                                 In  segment BANK_RELAYS, align 1
   \                     ??ZDP_MgmtLqiRsp?relay:
   \   000000   12....       LCALL   ?BDISPATCH
   \   000003   ......       DC24    ZDP_MgmtLqiRsp

   \                                 In  segment BANK_RELAYS, align 1
   \                     ??ZDP_MgmtRtgRsp?relay:
   \   000000   12....       LCALL   ?BDISPATCH
   \   000003   ......       DC24    ZDP_MgmtRtgRsp

   \                                 In  segment BANK_RELAYS, align 1
   \                     ??ZDP_MgmtBindRsp?relay:
   \   000000   12....       LCALL   ?BDISPATCH
   \   000003   ......       DC24    ZDP_MgmtBindRsp

   \                                 In  segment BANK_RELAYS, align 1
   \                     ??ZDP_MgmtNwkUpdateNotify?relay:
   \   000000   12....       LCALL   ?BDISPATCH
   \   000003   ......       DC24    ZDP_MgmtNwkUpdateNotify

   \                                 In  segment BANK_RELAYS, align 1
   \                     ??ZDO_RegisterForZDOMsg?relay:
   \   000000   12....       LCALL   ?BDISPATCH
   \   000003   ......       DC24    ZDO_RegisterForZDOMsg

   \                                 In  segment BANK_RELAYS, align 1
   \                     ??ZDO_RemoveRegisteredCB?relay:
   \   000000   12....       LCALL   ?BDISPATCH
   \   000003   ......       DC24    ZDO_RemoveRegisteredCB

   \                                 In  segment BANK_RELAYS, align 1
   \                     ??ZDO_SendMsgCBs?relay:
   \   000000   12....       LCALL   ?BDISPATCH
   \   000003   ......       DC24    ZDO_SendMsgCBs

   \                                 In  segment BANK_RELAYS, align 1
   \                     ??ZDP_IncomingData?relay:
   \   000000   12....       LCALL   ?BDISPATCH
   \   000003   ......       DC24    ZDP_IncomingData
   1939          
   1940          /*********************************************************************
   1941          *********************************************************************/
   1942          

   Maximum stack usage in bytes:

     Function                 ISTACK PSTACK XSTACK
     --------                 ------ ------ ------
     ZDO_RegisterForZDOMsg        1      0     14
       -> osal_mem_alloc          0      0     28
     ZDO_RemoveRegisteredCB       0      0      9
       -> osal_mem_free           0      0     18
     ZDO_SendMsgCBs               0      0     52
       -> osal_msg_allocate       0      0     36
       -> osal_memcpy             0      0     42
       -> osal_memcpy             0      0     42
       -> osal_msg_send           0      0     36
     ZDP_BindUnbindReq            1      0     32
       -> sAddrExtCpy             0      0     44
       -> sAddrExtCpy             2      0     44
       -> fillAndSend             0      0     48
     ZDP_DeviceAnnce              1      0     22
       -> sAddrExtCpy             0      0     38
       -> fillAndSend             0      0     42
     ZDP_EPRsp                    1      0     29
       -> osal_memcpy             0      0     44
       -> fillAndSend             0      0     42
     ZDP_EndDeviceBindReq         1      0     35
       -> NLME_GetShortAddr       0      0     48
       -> NLME_GetExtAddr         0      0     48
       -> sAddrExtCpy             0      0     48
       -> fillAndSend             0      0     52
     ZDP_GenericRsp               1      0     17
       -> fillAndSend             0      0     26
     ZDP_IEEEAddrReq              1      0     21
       -> fillAndSend             0      0     42
     ZDP_IncomingData             1      0     31
       -> ZDO_SendMsgCBs          0      0     62
       -> ZDApp_InMsgCB           0      0     62
     ZDP_MatchDescReq             1      0     28
       -> fillAndSend             0      0     40
     ZDP_MgmtBindRsp              1      0     30
       -> osal_mem_alloc          0      0     46
       -> sAddrExtCpy             0      0     46
       -> sAddrExtCpy             0      0     46
       -> fillAndSend             0      0     50
       -> osal_mem_free           0      0     46
     ZDP_MgmtDirectJoinReq        1      0     15
       -> sAddrExtCpy             0      0     24
       -> fillAndSend             0      0     28
     ZDP_MgmtLeaveReq             0      0     16
       -> sAddrExtCpy             0      0     24
       -> fillAndSend             0      0     28
     ZDP_MgmtLqiRsp               1      0     31
       -> fillAndSend             0      0     52
       -> osal_mem_alloc          0      0     48
       -> sAddrExtCpy             0      0     48
       -> sAddrExtCpy             0      0     48
       -> fillAndSend             0      0     52
       -> osal_mem_free           0      0     48
     ZDP_MgmtNwkDiscReq           1      0     24
       -> osal_buffer_uint32      0      0     40
       -> fillAndSend             0      0     36
     ZDP_MgmtNwkDiscRsp           1      0     30
       -> osal_mem_alloc          0      0     46
       -> sAddrExtCpy             0      0     46
       -> fillAndSend             0      0     50
       -> osal_mem_free           0      0     46
     ZDP_MgmtNwkUpdateNotify      1      0     43
       -> osal_mem_alloc          0      0     54
       -> osal_buffer_uint32      0      0     62
       -> osal_memcpy             0      0     60
       -> fillAndSend             0      0     58
       -> osal_mem_free           0      0     54
     ZDP_MgmtNwkUpdateReq         1      0     28
       -> osal_buffer_uint32      0      0     44
       -> fillAndSend             0      0     40
     ZDP_MgmtPermitJoinReq        1      0     12
       -> fillAndSend             0      0     24
     ZDP_MgmtRtgRsp               1      0     28
       -> osal_mem_alloc          0      0     42
       -> fillAndSend             0      0     46
       -> osal_mem_free           0      0     42
     ZDP_NWKAddrOfInterestReq     1      0     13
       -> fillAndSend             0      0     24
     ZDP_NodeDescMsg              1      0     14
       -> fillAndSend             0      0     24
     ZDP_NwkAddrReq               1      0     25
       -> sAddrExtCmp             0      0     46
       -> sAddrExtCpy             0      0     46
       -> fillAndSend             0      0     50
     ZDP_PowerDescMsg             1      0     14
       -> fillAndSend             0      0     24
     ZDP_SendData                 1      0     21
       -> fillAndSend             0      0     32
     ZDP_ServerDiscReq            1      0     21
       -> fillAndSend             0      0     42
     ZDP_ServerDiscRsp            1      0     17
       -> fillAndSend             0      0     26
     ZDP_SimpleDescMsg            2      0     22
       -> fillAndSend             0      0     44
     ZDP_SimpleDescReq            1      0     13
       -> fillAndSend             0      0     24
     ZDP_UserDescRsp              1      0     25
       -> osal_memcpy             0      0     44
       -> fillAndSend             0      0     42
     ZDP_UserDescSet              1      0     24
       -> osal_memcpy             2      0     44
       -> osal_memset             0      0     38
       -> fillAndSend             0      0     42
     fillAndSend                  1      0     66
       -> osal_memset             0      0     56
       -> AF_DataRequest          0      0     74
     zdpProcessAddrReq            1      0     17
       -> sAddrExtCmp             0      0     30
       -> sAddrExtCpy             0      0     30
       -> fillAndSend             0      0     34


   Segment part sizes:

     Function/Label                   Bytes
     --------------                   -----
     ZDP_AF_ENDPOINT                     1
     ZDP_TransID                         1
     ZDP_Buf                            80
     ZDP_TmpBuf                          2
     ZDP_TxOptions                       1
     zdoMsgCBs                           2
     zdpMsgProcs                        40
     fillAndSend                       183
     ?Subroutine0                        8
     ?Subroutine26                      16
     ??Subroutine106_0                   8
     ZDP_SendData                      114
     ?Subroutine1                        5
     ?Subroutine45                       7
     ?Subroutine18                       8
     ?Subroutine27                       8
     ??Subroutine112_0                   6
     ??Subroutine117_0                   3
     ??Subroutine118_0                   6
     ZDP_NWKAddrOfInterestReq           15
     ?Subroutine2                       10
     ??Subroutine87_0                    8
     ??Subroutine88_0                    3
     ??Subroutine89_0                    8
     ?Subroutine15                      14
     ?Subroutine77                       8
     ?Subroutine79                       4
     ?Subroutine84                       9
     ZDP_NwkAddrReq                    117
     ?Subroutine55                       8
     ?Subroutine70                       8
     ?Subroutine10                       3
     ?Subroutine61                       4
     ??Subroutine111_0                   4
     ZDP_IEEEAddrReq                    53
     ?Subroutine8                       11
     ??Subroutine86_0                    4
     ?Subroutine60                       5
     ??Subroutine114_0                   5
     ZDP_MatchDescReq                  228
     ?Subroutine52                       3
     ??Subroutine90_0                    7
     ?Subroutine11                      18
     ?Subroutine73                       5
     ??Subroutine94_0                    7
     ??Subroutine97_0                    5
     ?Subroutine49                       4
     ??Subroutine98_0                    4
     ?Subroutine75                       4
     ??Subroutine108_0                   1
     ??Subroutine109_0                   1
     ??Subroutine110_0                  10
     ZDP_SimpleDescReq                  27
     ?Subroutine30                       7
     ZDP_UserDescSet                   153
     ?Subroutine29                       7
     ??Subroutine95_0                    6
     ZDP_ServerDiscReq                  67
     ?Subroutine50                      17
     ?Subroutine43                       2
     ZDP_DeviceAnnce                    63
     ?Subroutine31                       1
     ??Subroutine91_0                    4
     ?Subroutine23                      15
     ?Subroutine32                       3
     ??Subroutine96_0                    4
     zdpProcessAddrReq                 296
     ?Subroutine42                       3
     ??Subroutine93_0                    6
     ?Subroutine64                      21
     ?Subroutine48                       7
     ?Subroutine20                       3
     ??Subroutine113_0                   6
     ??Subroutine115_0                   5
     ??Subroutine116_0                   6
     ZDP_NodeDescMsg                   124
     ?Subroutine9                        6
     ?Subroutine24                       6
     ?Subroutine74                       4
     ?Subroutine82                      15
     ?Subroutine21                       4
     ?Subroutine72                       8
     ?Subroutine19                       1
     ??Subroutine92_0                    5
     ?Subroutine17                       6
     ?Subroutine57                       8
     ?Subroutine14                      14
     ?Subroutine66                       3
     ZDP_PowerDescMsg                   84
     ?Subroutine76                       6
     ?Subroutine85                       9
     ?Subroutine28                      12
     ZDP_SimpleDescMsg                 337
     ?Subroutine4                        5
     ?Subroutine44                      11
     ?Subroutine36                       4
     ?Subroutine34                       5
     ?Subroutine33                      19
     ?Subroutine13                      13
     ??Subroutine107_0                   4
     ?Subroutine22                      10
     ZDP_EPRsp                         168
     ?Subroutine69                       2
     ?Subroutine3                        3
     ZDP_UserDescRsp                   142
     ?Subroutine53                      13
     ZDP_ServerDiscRsp                  95
     ZDP_GenericRsp                     88
     ?Subroutine47                      12
     ZDP_EndDeviceBindReq              265
     ?Subroutine5                        5
     ?Subroutine37                       5
     ?Subroutine54                       6
     ??Subroutine100_0                   7
     ??Subroutine104_0                   4
     ?Subroutine83                       7
     ?Subroutine25                      19
     ?Subroutine78                       8
     ?Subroutine51                      13
     ZDP_BindUnbindReq                 197
     ??Subroutine99_0                    5
     ?Subroutine40                       4
     ZDP_MgmtNwkDiscReq                 68
     ?Subroutine41                      14
     ZDP_MgmtDirectJoinReq              27
     ?Subroutine7                       25
     ZDP_MgmtPermitJoinReq              20
     ZDP_MgmtLeaveReq                   63
     ?Subroutine68                       8
     ZDP_MgmtNwkUpdateReq              146
     ZDP_MgmtNwkDiscRsp                327
     ?Subroutine6                        5
     ?Subroutine16                       4
     ??Subroutine101_0                  13
     ?Subroutine67                      11
     ??Subroutine102_0                   6
     ?Subroutine38                       1
     ??Subroutine103_0                   2
     ?Subroutine81                      14
     ?Subroutine80                      11
     ZDP_MgmtLqiRsp                    333
     ?Subroutine58                      10
     ?Subroutine56                       6
     ?Subroutine12                       8
     ??Subroutine105_0                   6
     ?Subroutine65                      16
     ZDP_MgmtRtgRsp                    219
     ?Subroutine35                       1
     ?Subroutine71                       4
     ?Subroutine63                       8
     ZDP_MgmtBindRsp                   274
     ?Subroutine46                      10
     ?Subroutine39                       5
     ZDP_MgmtNwkUpdateNotify           244
     ZDO_RegisterForZDOMsg             153
     ZDO_RemoveRegisteredCB            106
     ZDO_SendMsgCBs                    226
     ?Subroutine62                       3
     ZDP_IncomingData                  300
     ?Subroutine59                      10
     ?<Initializer for ZDP_TmpBuf>       2
     ??fillAndSend?relay                 6
     ??ZDP_SendData?relay                6
     ??ZDP_NWKAddrOfInterestReq?relay    6
     ??ZDP_NwkAddrReq?relay              6
     ??ZDP_IEEEAddrReq?relay             6
     ??ZDP_MatchDescReq?relay            6
     ??ZDP_SimpleDescReq?relay           6
     ??ZDP_UserDescSet?relay             6
     ??ZDP_ServerDiscReq?relay           6
     ??ZDP_DeviceAnnce?relay             6
     ??zdpProcessAddrReq?relay           6
     ??ZDP_NodeDescMsg?relay             6
     ??ZDP_PowerDescMsg?relay            6
     ??ZDP_SimpleDescMsg?relay           6
     ??ZDP_EPRsp?relay                   6
     ??ZDP_UserDescRsp?relay             6
     ??ZDP_ServerDiscRsp?relay           6
     ??ZDP_GenericRsp?relay              6
     ??ZDP_EndDeviceBindReq?relay        6
     ??ZDP_BindUnbindReq?relay           6
     ??ZDP_MgmtNwkDiscReq?relay          6
     ??ZDP_MgmtDirectJoinReq?relay       6
     ??ZDP_MgmtPermitJoinReq?relay       6
     ??ZDP_MgmtLeaveReq?relay            6
     ??ZDP_MgmtNwkUpdateReq?relay        6
     ??ZDP_MgmtNwkDiscRsp?relay          6
     ??ZDP_MgmtLqiRsp?relay              6
     ??ZDP_MgmtRtgRsp?relay              6
     ??ZDP_MgmtBindRsp?relay             6
     ??ZDP_MgmtNwkUpdateNotify?relay     6
     ??ZDO_RegisterForZDOMsg?relay       6
     ??ZDO_RemoveRegisteredCB?relay      6
     ??ZDO_SendMsgCBs?relay              6
     ??ZDP_IncomingData?relay            6

 
 6 197 bytes in segment BANKED_CODE
   204 bytes in segment BANK_RELAYS
    41 bytes in segment CODE_C
     2 bytes in segment XDATA_I
     2 bytes in segment XDATA_ID
    84 bytes in segment XDATA_Z
 
 6 444 bytes of CODE  memory
    86 bytes of XDATA memory

Errors: none
Warnings: none
