///////////////////////////////////////////////////////////////////////////////
//                                                                            /
// IAR C/C++ Compiler V8.10.3.10338/W32 for 8051        03/May/2014  10:02:02 /
// Copyright 2004-2011 IAR Systems AB.                                        /
//                                                                            /
//    Core               =  plain                                             /
//    Code model         =  banked                                            /
//    Data model         =  large                                             /
//    Calling convention =  xdata reentrant                                   /
//    Constant location  =  data_rom                                          /
//    Dptr setup         =  1,16                                              /
//    Source file        =  H:\zigbeesrc\8.ÎÞÏß´«¸ÐÆ÷ÍøÂç£¨×Ô×éÍøÓëÊý¾Ý´«Êä£© /
//                          \Components\stack\af\AF.c                         /
//    Command line       =  -f H:\zigbeesrc\8.ÎÞÏß´«¸ÐÆ÷ÍøÂç£¨×Ô×éÍøÓëÊý¾Ý´«Ê /
//                          ä£©\Projects\zstack\Samples\ÎÞÏß´«¸ÐÆ÷ÍøÂç£¨×Ô×éÍ /
//                          ø£©\CC2530DB\..\..\..\Tools\CC2530DB\f8wEndev.cfg /
//                           (-DCPU32MHZ -DROOT=__near_func -DBLINK_LEDS) -f  /
//                          H:\zigbeesrc\8.ÎÞÏß´«¸ÐÆ÷ÍøÂç£¨×Ô×éÍøÓëÊý¾Ý´«Êä£© /
//                          \Projects\zstack\Samples\ÎÞÏß´«¸ÐÆ÷ÍøÂç£¨×Ô×éÍø£© /
//                          \CC2530DB\..\..\..\Tools\CC2530DB\f8wConfig.cfg   /
//                          (-DSECURE=0 -DZG_SECURE_DYNAMIC=0 -DREFLECTOR     /
//                          -DDEFAULT_CHANLIST=0x00000800                     /
//                          -DZDAPP_CONFIG_PAN_ID=0xFFF0                      /
//                          -DNWK_START_DELAY=100 -DEXTENDED_JOINING_RANDOM_M /
//                          ASK=0x007F -DBEACON_REQUEST_DELAY=100             /
//                          -DBEACON_REQ_DELAY_MASK=0x00FF                    /
//                          -DROUTE_EXPIRY_TIME=30 -DAPSC_ACK_WAIT_DURATION_P /
//                          OLLED=3000 -DNWK_INDIRECT_MSG_TIMEOUT=7           /
//                          -DMAX_RREQ_ENTRIES=8 -DAPSC_MAX_FRAME_RETRIES=3   /
//                          -DNWK_MAX_DATA_RETRIES=2                          /
//                          -DMAX_POLL_FAILURE_RETRIES=2 -DMAX_BCAST=9        /
//                          -DAPS_MAX_GROUPS=16 -DMAX_RTG_ENTRIES=40          /
//                          -DNWK_MAX_BINDING_ENTRIES=4                       /
//                          -DMAX_BINDING_CLUSTER_IDS=4                       /
//                          "-DDEFAULT_KEY={0x01, 0x03, 0x05, 0x07, 0x09,     /
//                          0x0B, 0x0D, 0x0F, 0x00, 0x02, 0x04, 0x06, 0x08,   /
//                          0x0A, 0x0C, 0x0D}" -DMAC_MAX_FRAME_SIZE=116       /
//                          "-DCONST=const __code" -DGENERIC=__generic        /
//                          -DRFD_RCVC_ALWAYS_ON=FALSE -DPOLL_RATE=1000       /
//                          -DQUEUED_POLL_RATE=100 -DRESPONSE_POLL_RATE=100)  /
//                          -DREJOIN_POLL_RATE=440 H:\zigbeesrc\8.ÎÞÏß´«¸ÐÆ÷Í /
//                          øÂç£¨×Ô×éÍøÓëÊý¾Ý´«Êä£©\Components\stack\af\AF.c  /
//                          -D NWK_AUTO_POLL -D ZTOOL_P1 -D MT_TASK -D        /
//                          MT_SYS_FUNC -D MT_ZDO_FUNC -D                     /
//                          LCD_SUPPORTED=DEBUG -lC                           /
//                          H:\zigbeesrc\8.ÎÞÏß´«¸ÐÆ÷ÍøÂç£¨×Ô×éÍøÓëÊý¾Ý´«Êä£© /
//                          \Projects\zstack\Samples\ÎÞÏß´«¸ÐÆ÷ÍøÂç£¨×Ô×éÍø£© /
//                          \CC2530DB\EndDeviceEB\List\ -lA                   /
//                          H:\zigbeesrc\8.ÎÞÏß´«¸ÐÆ÷ÍøÂç£¨×Ô×éÍøÓëÊý¾Ý´«Êä£© /
//                          \Projects\zstack\Samples\ÎÞÏß´«¸ÐÆ÷ÍøÂç£¨×Ô×éÍø£© /
//                          \CC2530DB\EndDeviceEB\List\ --diag_suppress       /
//                          Pe001,Pa010 -o H:\zigbeesrc\8.ÎÞÏß´«¸ÐÆ÷ÍøÂç£¨×Ô× /
//                          éÍøÓëÊý¾Ý´«Êä£©\Projects\zstack\Samples\ÎÞÏß´«¸ÐÆ /
//                          ÷ÍøÂç£¨×Ô×éÍø£©\CC2530DB\EndDeviceEB\Obj\ -e      /
//                          --debug --core=plain --dptr=16,1                  /
//                          --data_model=large --code_model=banked            /
//                          --calling_convention=xdata_reentrant              /
//                          --place_constants=data_rom --nr_virtual_regs 16   /
//                          -I H:\zigbeesrc\8.ÎÞÏß´«¸ÐÆ÷ÍøÂç£¨×Ô×éÍøÓëÊý¾Ý´«Ê /
//                          ä£©\Projects\zstack\Samples\ÎÞÏß´«¸ÐÆ÷ÍøÂç£¨×Ô×éÍ /
//                          ø£©\CC2530DB\ -I H:\zigbeesrc\8.ÎÞÏß´«¸ÐÆ÷ÍøÂç£¨× /
//                          Ô×éÍøÓëÊý¾Ý´«Êä£©\Projects\zstack\Samples\ÎÞÏß´«¸ /
//                          ÐÆ÷ÍøÂç£¨×Ô×éÍø£©\CC2530DB\..\SOURCE\ -I          /
//                          H:\zigbeesrc\8.ÎÞÏß´«¸ÐÆ÷ÍøÂç£¨×Ô×éÍøÓëÊý¾Ý´«Êä£© /
//                          \Projects\zstack\Samples\ÎÞÏß´«¸ÐÆ÷ÍøÂç£¨×Ô×éÍø£© /
//                          \CC2530DB\..\..\..\ZMAIN\TI2530DB\ -I             /
//                          H:\zigbeesrc\8.ÎÞÏß´«¸ÐÆ÷ÍøÂç£¨×Ô×éÍøÓëÊý¾Ý´«Êä£© /
//                          \Projects\zstack\Samples\ÎÞÏß´«¸ÐÆ÷ÍøÂç£¨×Ô×éÍø£© /
//                          \CC2530DB\..\..\..\..\..\COMPONENTS\MT\ -I        /
//                          H:\zigbeesrc\8.ÎÞÏß´«¸ÐÆ÷ÍøÂç£¨×Ô×éÍøÓëÊý¾Ý´«Êä£© /
//                          \Projects\zstack\Samples\ÎÞÏß´«¸ÐÆ÷ÍøÂç£¨×Ô×éÍø£© /
//                          \CC2530DB\..\..\..\..\..\COMPONENTS\HAL\INCLUDE\  /
//                          -I H:\zigbeesrc\8.ÎÞÏß´«¸ÐÆ÷ÍøÂç£¨×Ô×éÍøÓëÊý¾Ý´«Ê /
//                          ä£©\Projects\zstack\Samples\ÎÞÏß´«¸ÐÆ÷ÍøÂç£¨×Ô×éÍ /
//                          ø£©\CC2530DB\..\..\..\..\..\COMPONENTS\HAL\TARGET /
//                          \CC2530EB\ -I H:\zigbeesrc\8.ÎÞÏß´«¸ÐÆ÷ÍøÂç£¨×Ô×é /
//                          ÍøÓëÊý¾Ý´«Êä£©\Projects\zstack\Samples\ÎÞÏß´«¸ÐÆ÷ /
//                          ÍøÂç£¨×Ô×éÍø£©\CC2530DB\..\..\..\..\..\COMPONENTS /
//                          \OSAL\MCU\CCSOC\ -I H:\zigbeesrc\8.ÎÞÏß´«¸ÐÆ÷ÍøÂç /
//                          £¨×Ô×éÍøÓëÊý¾Ý´«Êä£©\Projects\zstack\Samples\ÎÞÏß /
//                          ´«¸ÐÆ÷ÍøÂç£¨×Ô×éÍø£©\CC2530DB\..\..\..\..\..\COMP /
//                          ONENTS\OSAL\INCLUDE\ -I                           /
//                          H:\zigbeesrc\8.ÎÞÏß´«¸ÐÆ÷ÍøÂç£¨×Ô×éÍøÓëÊý¾Ý´«Êä£© /
//                          \Projects\zstack\Samples\ÎÞÏß´«¸ÐÆ÷ÍøÂç£¨×Ô×éÍø£© /
//                          \CC2530DB\..\..\..\..\..\COMPONENTS\STACK\AF\ -I  /
//                          H:\zigbeesrc\8.ÎÞÏß´«¸ÐÆ÷ÍøÂç£¨×Ô×éÍøÓëÊý¾Ý´«Êä£© /
//                          \Projects\zstack\Samples\ÎÞÏß´«¸ÐÆ÷ÍøÂç£¨×Ô×éÍø£© /
//                          \CC2530DB\..\..\..\..\..\COMPONENTS\STACK\NWK\    /
//                          -I H:\zigbeesrc\8.ÎÞÏß´«¸ÐÆ÷ÍøÂç£¨×Ô×éÍøÓëÊý¾Ý´«Ê /
//                          ä£©\Projects\zstack\Samples\ÎÞÏß´«¸ÐÆ÷ÍøÂç£¨×Ô×éÍ /
//                          ø£©\CC2530DB\..\..\..\..\..\COMPONENTS\STACK\SEC\ /
//                           -I H:\zigbeesrc\8.ÎÞÏß´«¸ÐÆ÷ÍøÂç£¨×Ô×éÍøÓëÊý¾Ý´« /
//                          Êä£©\Projects\zstack\Samples\ÎÞÏß´«¸ÐÆ÷ÍøÂç£¨×Ô×é /
//                          Íø£©\CC2530DB\..\..\..\..\..\COMPONENTS\STACK\SAP /
//                          I\ -I H:\zigbeesrc\8.ÎÞÏß´«¸ÐÆ÷ÍøÂç£¨×Ô×éÍøÓëÊý¾Ý /
//                          ´«Êä£©\Projects\zstack\Samples\ÎÞÏß´«¸ÐÆ÷ÍøÂç£¨×Ô /
//                          ×éÍø£©\CC2530DB\..\..\..\..\..\COMPONENTS\STACK\S /
//                          YS\ -I H:\zigbeesrc\8.ÎÞÏß´«¸ÐÆ÷ÍøÂç£¨×Ô×éÍøÓëÊý¾ /
//                          Ý´«Êä£©\Projects\zstack\Samples\ÎÞÏß´«¸ÐÆ÷ÍøÂç£¨× /
//                          Ô×éÍø£©\CC2530DB\..\..\..\..\..\COMPONENTS\STACK\ /
//                          ZDO\ -I H:\zigbeesrc\8.ÎÞÏß´«¸ÐÆ÷ÍøÂç£¨×Ô×éÍøÓëÊý /
//                          ¾Ý´«Êä£©\Projects\zstack\Samples\ÎÞÏß´«¸ÐÆ÷ÍøÂç£¨ /
//                          ×Ô×éÍø£©\CC2530DB\..\..\..\..\..\COMPONENTS\ZMAC\ /
//                          F8W\ -I H:\zigbeesrc\8.ÎÞÏß´«¸ÐÆ÷ÍøÂç£¨×Ô×éÍøÓëÊý /
//                          ¾Ý´«Êä£©\Projects\zstack\Samples\ÎÞÏß´«¸ÐÆ÷ÍøÂç£¨ /
//                          ×Ô×éÍø£©\CC2530DB\..\..\..\..\..\COMPONENTS\ZMAC\ /
//                           -I H:\zigbeesrc\8.ÎÞÏß´«¸ÐÆ÷ÍøÂç£¨×Ô×éÍøÓëÊý¾Ý´« /
//                          Êä£©\Projects\zstack\Samples\ÎÞÏß´«¸ÐÆ÷ÍøÂç£¨×Ô×é /
//                          Íø£©\CC2530DB\..\..\..\..\..\COMPONENTS\SERVICES\ /
//                          SADDR\ -I H:\zigbeesrc\8.ÎÞÏß´«¸ÐÆ÷ÍøÂç£¨×Ô×éÍøÓë /
//                          Êý¾Ý´«Êä£©\Projects\zstack\Samples\ÎÞÏß´«¸ÐÆ÷ÍøÂç /
//                          £¨×Ô×éÍø£©\CC2530DB\..\..\..\..\..\COMPONENTS\SER /
//                          VICES\SDATA\ -I H:\zigbeesrc\8.ÎÞÏß´«¸ÐÆ÷ÍøÂç£¨×Ô /
//                          ×éÍøÓëÊý¾Ý´«Êä£©\Projects\zstack\Samples\ÎÞÏß´«¸Ð /
//                          Æ÷ÍøÂç£¨×Ô×éÍø£©\CC2530DB\..\..\..\..\..\COMPONEN /
//                          TS\MAC\INCLUDE\ -I H:\zigbeesrc\8.ÎÞÏß´«¸ÐÆ÷ÍøÂç£ /
//                          ¨×Ô×éÍøÓëÊý¾Ý´«Êä£©\Projects\zstack\Samples\ÎÞÏß´ /
//                          «¸ÐÆ÷ÍøÂç£¨×Ô×éÍø£©\CC2530DB\..\..\..\..\..\COMPO /
//                          NENTS\MAC\HIGH_LEVEL\ -I                          /
//                          H:\zigbeesrc\8.ÎÞÏß´«¸ÐÆ÷ÍøÂç£¨×Ô×éÍøÓëÊý¾Ý´«Êä£© /
//                          \Projects\zstack\Samples\ÎÞÏß´«¸ÐÆ÷ÍøÂç£¨×Ô×éÍø£© /
//                          \CC2530DB\..\..\..\..\..\COMPONENTS\MAC\LOW_LEVEL /
//                          \srf04\ -I H:\zigbeesrc\8.ÎÞÏß´«¸ÐÆ÷ÍøÂç£¨×Ô×éÍøÓ /
//                          ëÊý¾Ý´«Êä£©\Projects\zstack\Samples\ÎÞÏß´«¸ÐÆ÷ÍøÂ /
//                          ç£¨×Ô×éÍø£©\CC2530DB\..\..\..\..\..\COMPONENTS\MA /
//                          C\LOW_LEVEL\srf04\SINGLE_CHIP\ -Ohz               /
//    List file          =  H:\zigbeesrc\8.ÎÞÏß´«¸ÐÆ÷ÍøÂç£¨×Ô×éÍøÓëÊý¾Ý´«Êä£© /
//                          \Projects\zstack\Samples\ÎÞÏß´«¸ÐÆ÷ÍøÂç£¨×Ô×éÍø£© /
//                          \CC2530DB\EndDeviceEB\List\AF.s51                 /
//                                                                            /
//                                                                            /
///////////////////////////////////////////////////////////////////////////////

        NAME AF

        RTMODEL "__SystemLibrary", "CLib"
        RTMODEL "__calling_convention", "xdata_reentrant"
        RTMODEL "__code_model", "banked"
        RTMODEL "__core", "plain"
        RTMODEL "__data_model", "large"
        RTMODEL "__dptr_size", "16"
        RTMODEL "__extended_stack", "disabled"
        RTMODEL "__location_for_constants", "data"
        RTMODEL "__number_of_dptrs", "1"
        RTMODEL "__rt_version", "1"

        RSEG DOVERLAY:DATA:NOROOT(0)
        RSEG IOVERLAY:IDATA:NOROOT(0)
        RSEG ISTACK:IDATA:NOROOT(0)
        RSEG PSTACK:XDATA:NOROOT(0)
        RSEG XSTACK:XDATA:NOROOT(0)

        EXTERN ?ALLOC_XSTACK8
        EXTERN ?BANKED_ENTER_XDATA
        EXTERN ?BANKED_LEAVE_XDATA
        EXTERN ?BDISPATCH
        EXTERN ?BRET
        EXTERN ?CALL_IND
        EXTERN ?DEALLOC_XSTACK8
        EXTERN ?L_MOV_TO_X
        EXTERN ?L_MOV_X
        EXTERN ?PUSH_XSTACK8_X_TWO
        EXTERN ?PUSH_XSTACK_I_FOUR
        EXTERN ?PUSH_XSTACK_I_THREE
        EXTERN ?PUSH_XSTACK_I_TWO
        EXTERN ?V0
        EXTERN ?XSP
        EXTERN ?XSTACK_DISP0_8
        EXTERN __INIT_XDATA_I
        EXTERN __INIT_XDATA_Z

        PUBLIC ??AF_DataRequest?relay
        FUNCTION ??AF_DataRequest?relay,0203H
        FUNCTION ??afBuildMSGIncoming?relay,0203H
        PUBLIC ??afCopyAddress?relay
        FUNCTION ??afCopyAddress?relay,0203H
        PUBLIC ??afDataConfirm?relay
        FUNCTION ??afDataConfirm?relay,0203H
        PUBLIC ??afDataReqMTU?relay
        FUNCTION ??afDataReqMTU?relay,0203H
        PUBLIC ??afEndPoints?relay
        FUNCTION ??afEndPoints?relay,0203H
        PUBLIC ??afFindEndPointDesc?relay
        FUNCTION ??afFindEndPointDesc?relay,0203H
        FUNCTION ??afFindEndPointDescList?relay,0203H
        PUBLIC ??afFindSimpleDesc?relay
        FUNCTION ??afFindSimpleDesc?relay,0203H
        PUBLIC ??afGetMatch?relay
        FUNCTION ??afGetMatch?relay,0203H
        PUBLIC ??afIncomingData?relay
        FUNCTION ??afIncomingData?relay,0203H
        PUBLIC ??afInit?relay
        FUNCTION ??afInit?relay,0203H
        PUBLIC ??afNumEndPoints?relay
        FUNCTION ??afNumEndPoints?relay,0203H
        PUBLIC ??afRegister?relay
        FUNCTION ??afRegister?relay,0203H
        PUBLIC ??afRegisterExtended?relay
        FUNCTION ??afRegisterExtended?relay,0203H
        PUBLIC ??afSetMatch?relay
        FUNCTION ??afSetMatch?relay,0203H
        PUBLIC AF_DataRequest
        FUNCTION AF_DataRequest,021203H
        ARGFRAME XSTACK, 9, STACK
        LOCFRAME ISTACK, 1, STACK
        LOCFRAME XSTACK, 52, STACK
        PUBLIC AF_DataRequestDiscoverRoute
        FUNCTION afBuildMSGIncoming,021203H
        ARGFRAME XSTACK, 36, STACK
        ARGFRAME IOVERLAY, 0, STATIC
        ARGFRAME DOVERLAY, 0, STATIC
        LOCFRAME ISTACK, 1, STACK
        LOCFRAME XSTACK, 28, STACK
        PUBLIC afCopyAddress
        FUNCTION afCopyAddress,021203H
        ARGFRAME XSTACK, 25, STACK
        ARGFRAME IOVERLAY, 0, STATIC
        ARGFRAME DOVERLAY, 0, STATIC
        LOCFRAME ISTACK, 1, STACK
        LOCFRAME XSTACK, 9, STACK
        PUBLIC afDataConfirm
        FUNCTION afDataConfirm,021203H
        ARGFRAME XSTACK, 52, STACK
        ARGFRAME IOVERLAY, 0, STATIC
        ARGFRAME DOVERLAY, 0, STATIC
        LOCFRAME ISTACK, 1, STACK
        LOCFRAME XSTACK, 14, STACK
        PUBLIC afDataReqMTU
        FUNCTION afDataReqMTU,021203H
        ARGFRAME XSTACK, 52, STACK
        ARGFRAME IOVERLAY, 0, STATIC
        ARGFRAME DOVERLAY, 0, STATIC
        LOCFRAME XSTACK, 9, STACK
        PUBLIC afEndPoints
        FUNCTION afEndPoints,0203H
        ARGFRAME XSTACK, 0, STACK
        LOCFRAME ISTACK, 3, STACK
        PUBLIC afFindEndPointDesc
        FUNCTION afFindEndPointDesc,021203H
        ARGFRAME XSTACK, 26, STACK
        ARGFRAME IOVERLAY, 0, STATIC
        ARGFRAME DOVERLAY, 0, STATIC
        LOCFRAME XSTACK, 10, STACK
        FUNCTION afFindEndPointDescList,0203H
        ARGFRAME XSTACK, 26, STACK
        ARGFRAME IOVERLAY, 0, STATIC
        ARGFRAME DOVERLAY, 0, STATIC
        LOCFRAME ISTACK, 2, STACK
        PUBLIC afFindSimpleDesc
        FUNCTION afFindSimpleDesc,021203H
        ARGFRAME XSTACK, 0, STACK
        LOCFRAME XSTACK, 12, STACK
        PUBLIC afGetMatch
        FUNCTION afGetMatch,021203H
        ARGFRAME XSTACK, 0, STACK
        LOCFRAME XSTACK, 10, STACK
        PUBLIC afIncomingData
        FUNCTION afIncomingData,021203H
        ARGFRAME XSTACK, 8, STACK
        LOCFRAME XSTACK, 36, STACK
        PUBLIC afInit
        FUNCTION afInit,0203H
        ARGFRAME XSTACK, 0, STACK
        LOCFRAME ISTACK, 2, STACK
        PUBLIC afNumEndPoints
        FUNCTION afNumEndPoints,0203H
        ARGFRAME XSTACK, 0, STACK
        LOCFRAME ISTACK, 2, STACK
        PUBLIC afRegister
        FUNCTION afRegister,021203H
        ARGFRAME XSTACK, 0, STACK
        LOCFRAME XSTACK, 10, STACK
        PUBLIC afRegisterExtended
        FUNCTION afRegisterExtended,021203H
        ARGFRAME XSTACK, 10, STACK
        ARGFRAME IOVERLAY, 0, STATIC
        ARGFRAME DOVERLAY, 0, STATIC
        LOCFRAME XSTACK, 12, STACK
        PUBLIC afSetMatch
        FUNCTION afSetMatch,021203H
        ARGFRAME XSTACK, 0, STACK
        LOCFRAME XSTACK, 10, STACK
        PUBLIC epList
        
        CFI Names cfiNames0
        CFI StackFrame CFA_SP SP IDATA
        CFI StackFrame CFA_PSP16 PSP16 XDATA
        CFI StackFrame CFA_XSP16 XSP16 XDATA
        CFI StaticOverlayFrame CFA_IOVERLAY IOVERLAY
        CFI StaticOverlayFrame CFA_DOVERLAY DOVERLAY
        CFI Resource `PSW.CY`:1, `B.BR0`:1, `B.BR1`:1, `B.BR2`:1, `B.BR3`:1
        CFI Resource `B.BR4`:1, `B.BR5`:1, `B.BR6`:1, `B.BR7`:1, `VB.BR8`:1
        CFI Resource `VB.BR9`:1, `VB.BR10`:1, `VB.BR11`:1, `VB.BR12`:1
        CFI Resource `VB.BR13`:1, `VB.BR14`:1, `VB.BR15`:1, VB:8, B:8, A:8
        CFI Resource PSW:8, DPL0:8, DPH0:8, R0:8, R1:8, R2:8, R3:8, R4:8, R5:8
        CFI Resource R6:8, R7:8, V0:8, V1:8, V2:8, V3:8, V4:8, V5:8, V6:8, V7:8
        CFI Resource V8:8, V9:8, V10:8, V11:8, V12:8, V13:8, V14:8, V15:8, SP:8
        CFI Resource PSPH:8, PSPL:8, PSP16:16, XSPH:8, XSPL:8, XSP16:16
        CFI VirtualResource ?RET:24
        CFI Resource ?BRET_EXT:8
        CFI VirtualResource ?RET_HIGH:8, ?RET_LOW:8
        CFI ResourceParts PSP16 PSPH, PSPL
        CFI ResourceParts XSP16 XSPH, XSPL
        CFI ResourceParts ?RET ?BRET_EXT, ?RET_HIGH, ?RET_LOW
        CFI EndNames cfiNames0
        
        CFI Common cfiCommon0 Using cfiNames0
        CFI CodeAlign 1
        CFI DataAlign -1
        CFI ReturnAddress ?RET CODE
        CFI CFA_DOVERLAY Used
        CFI CFA_IOVERLAY Used
        CFI CFA_SP SP+-3
        CFI CFA_PSP16 PSP16+0
        CFI CFA_XSP16 XSP16+0
        CFI `PSW.CY` SameValue
        CFI `B.BR0` SameValue
        CFI `B.BR1` SameValue
        CFI `B.BR2` SameValue
        CFI `B.BR3` SameValue
        CFI `B.BR4` SameValue
        CFI `B.BR5` SameValue
        CFI `B.BR6` SameValue
        CFI `B.BR7` SameValue
        CFI `VB.BR8` SameValue
        CFI `VB.BR9` SameValue
        CFI `VB.BR10` SameValue
        CFI `VB.BR11` SameValue
        CFI `VB.BR12` SameValue
        CFI `VB.BR13` SameValue
        CFI `VB.BR14` SameValue
        CFI `VB.BR15` SameValue
        CFI VB SameValue
        CFI B Undefined
        CFI A Undefined
        CFI PSW SameValue
        CFI DPL0 SameValue
        CFI DPH0 SameValue
        CFI R0 Undefined
        CFI R1 Undefined
        CFI R2 Undefined
        CFI R3 Undefined
        CFI R4 Undefined
        CFI R5 Undefined
        CFI R6 SameValue
        CFI R7 SameValue
        CFI V0 SameValue
        CFI V1 SameValue
        CFI V2 SameValue
        CFI V3 SameValue
        CFI V4 SameValue
        CFI V5 SameValue
        CFI V6 SameValue
        CFI V7 SameValue
        CFI V8 SameValue
        CFI V9 SameValue
        CFI V10 SameValue
        CFI V11 SameValue
        CFI V12 SameValue
        CFI V13 SameValue
        CFI V14 SameValue
        CFI V15 SameValue
        CFI PSPH Undefined
        CFI PSPL Undefined
        CFI XSPH Undefined
        CFI XSPL Undefined
        CFI ?RET Concat
        CFI ?BRET_EXT Frame(CFA_SP, 3)
        CFI ?RET_HIGH Frame(CFA_SP, 2)
        CFI ?RET_LOW Frame(CFA_SP, 1)
        CFI EndCommon cfiCommon0
        
        
        CFI Common cfiCommon1 Using cfiNames0
        CFI CodeAlign 1
        CFI DataAlign -1
        CFI ReturnAddress ?RET CODE
        CFI CFA_DOVERLAY Used
        CFI CFA_IOVERLAY Used
        CFI CFA_SP SP+-2
        CFI CFA_PSP16 PSP16+0
        CFI CFA_XSP16 XSP16+0
        CFI `PSW.CY` SameValue
        CFI `B.BR0` SameValue
        CFI `B.BR1` SameValue
        CFI `B.BR2` SameValue
        CFI `B.BR3` SameValue
        CFI `B.BR4` SameValue
        CFI `B.BR5` SameValue
        CFI `B.BR6` SameValue
        CFI `B.BR7` SameValue
        CFI `VB.BR8` SameValue
        CFI `VB.BR9` SameValue
        CFI `VB.BR10` SameValue
        CFI `VB.BR11` SameValue
        CFI `VB.BR12` SameValue
        CFI `VB.BR13` SameValue
        CFI `VB.BR14` SameValue
        CFI `VB.BR15` SameValue
        CFI VB SameValue
        CFI B SameValue
        CFI A SameValue
        CFI PSW SameValue
        CFI DPL0 SameValue
        CFI DPH0 SameValue
        CFI R0 SameValue
        CFI R1 SameValue
        CFI R2 SameValue
        CFI R3 SameValue
        CFI R4 SameValue
        CFI R5 SameValue
        CFI R6 SameValue
        CFI R7 SameValue
        CFI V0 SameValue
        CFI V1 SameValue
        CFI V2 SameValue
        CFI V3 SameValue
        CFI V4 SameValue
        CFI V5 SameValue
        CFI V6 SameValue
        CFI V7 SameValue
        CFI V8 SameValue
        CFI V9 SameValue
        CFI V10 SameValue
        CFI V11 SameValue
        CFI V12 SameValue
        CFI V13 SameValue
        CFI V14 SameValue
        CFI V15 SameValue
        CFI PSPH Undefined
        CFI PSPL Undefined
        CFI XSPH Undefined
        CFI XSPL Undefined
        CFI ?RET Concat
        CFI ?BRET_EXT SameValue
        CFI ?RET_HIGH Frame(CFA_SP, 2)
        CFI ?RET_LOW Frame(CFA_SP, 1)
        CFI EndCommon cfiCommon1
        
osal_mem_alloc      SYMBOL "osal_mem_alloc"
osal_msg_allocate   SYMBOL "osal_msg_allocate"
osal_msg_send       SYMBOL "osal_msg_send"
aps_FindGroupForEndpoint SYMBOL "aps_FindGroupForEndpoint"
osal_mem_free       SYMBOL "osal_mem_free"
osal_memcpy         SYMBOL "osal_memcpy"
NLME_IsAddressBroadcast SYMBOL "NLME_IsAddressBroadcast"
sAddrExtCpy         SYMBOL "sAddrExtCpy"
APSDE_DataReq       SYMBOL "APSDE_DataReq"
NLME_GetShortAddr   SYMBOL "NLME_GetShortAddr"
APSDE_DataReqMTU    SYMBOL "APSDE_DataReqMTU"
??APSDE_DataReq?relay SYMBOL "?relay", APSDE_DataReq
??APSDE_DataReqMTU?relay SYMBOL "?relay", APSDE_DataReqMTU
??NLME_GetShortAddr?relay SYMBOL "?relay", NLME_GetShortAddr
??NLME_IsAddressBroadcast?relay SYMBOL "?relay", NLME_IsAddressBroadcast
??aps_FindGroupForEndpoint?relay SYMBOL "?relay", aps_FindGroupForEndpoint
??osal_mem_alloc?relay SYMBOL "?relay", osal_mem_alloc
??osal_mem_free?relay SYMBOL "?relay", osal_mem_free
??osal_memcpy?relay SYMBOL "?relay", osal_memcpy
??osal_msg_allocate?relay SYMBOL "?relay", osal_msg_allocate
??osal_msg_send?relay SYMBOL "?relay", osal_msg_send
??sAddrExtCpy?relay SYMBOL "?relay", sAddrExtCpy
AF_DataRequest      SYMBOL "AF_DataRequest"
??AF_DataRequest?relay SYMBOL "?relay", AF_DataRequest
afCopyAddress       SYMBOL "afCopyAddress"
??afCopyAddress?relay SYMBOL "?relay", afCopyAddress
afDataConfirm       SYMBOL "afDataConfirm"
??afDataConfirm?relay SYMBOL "?relay", afDataConfirm
afDataReqMTU        SYMBOL "afDataReqMTU"
??afDataReqMTU?relay SYMBOL "?relay", afDataReqMTU
afEndPoints         SYMBOL "afEndPoints"
??afEndPoints?relay SYMBOL "?relay", afEndPoints
afFindEndPointDesc  SYMBOL "afFindEndPointDesc"
??afFindEndPointDesc?relay SYMBOL "?relay", afFindEndPointDesc
afFindSimpleDesc    SYMBOL "afFindSimpleDesc"
??afFindSimpleDesc?relay SYMBOL "?relay", afFindSimpleDesc
afGetMatch          SYMBOL "afGetMatch"
??afGetMatch?relay  SYMBOL "?relay", afGetMatch
afIncomingData      SYMBOL "afIncomingData"
??afIncomingData?relay SYMBOL "?relay", afIncomingData
afInit              SYMBOL "afInit"
??afInit?relay      SYMBOL "?relay", afInit
afNumEndPoints      SYMBOL "afNumEndPoints"
??afNumEndPoints?relay SYMBOL "?relay", afNumEndPoints
afRegister          SYMBOL "afRegister"
??afRegister?relay  SYMBOL "?relay", afRegister
afRegisterExtended  SYMBOL "afRegisterExtended"
??afRegisterExtended?relay SYMBOL "?relay", afRegisterExtended
afSetMatch          SYMBOL "afSetMatch"
??afSetMatch?relay  SYMBOL "?relay", afSetMatch

        EXTERN osal_mem_alloc
        FUNCTION osal_mem_alloc,0202H
        ARGFRAME ISTACK, 0, STACK
        ARGFRAME PSTACK, 0, STACK
        ARGFRAME XSTACK, 12, STACK
        ARGFRAME IOVERLAY, 0, STATIC
        ARGFRAME DOVERLAY, 0, STATIC
        EXTERN osal_msg_allocate
        FUNCTION osal_msg_allocate,0202H
        ARGFRAME ISTACK, 0, STACK
        ARGFRAME PSTACK, 0, STACK
        ARGFRAME XSTACK, 25, STACK
        ARGFRAME IOVERLAY, 0, STATIC
        ARGFRAME DOVERLAY, 0, STATIC
        EXTERN osal_msg_send
        FUNCTION osal_msg_send,0202H
        ARGFRAME ISTACK, 0, STACK
        ARGFRAME PSTACK, 0, STACK
        ARGFRAME XSTACK, 25, STACK
        ARGFRAME IOVERLAY, 0, STATIC
        ARGFRAME DOVERLAY, 0, STATIC
        EXTERN aps_FindGroupForEndpoint
        FUNCTION aps_FindGroupForEndpoint,0202H
        ARGFRAME ISTACK, 0, STACK
        ARGFRAME PSTACK, 0, STACK
        ARGFRAME XSTACK, 26, STACK
        ARGFRAME IOVERLAY, 0, STATIC
        ARGFRAME DOVERLAY, 0, STATIC
        EXTERN osal_mem_free
        FUNCTION osal_mem_free,0202H
        ARGFRAME ISTACK, 0, STACK
        ARGFRAME PSTACK, 0, STACK
        ARGFRAME XSTACK, 52, STACK
        ARGFRAME IOVERLAY, 0, STATIC
        ARGFRAME DOVERLAY, 0, STATIC
        EXTERN osal_memcpy
        FUNCTION osal_memcpy,0202H
        ARGFRAME ISTACK, 0, STACK
        ARGFRAME PSTACK, 0, STACK
        ARGFRAME XSTACK, 28, STACK
        ARGFRAME IOVERLAY, 0, STATIC
        ARGFRAME DOVERLAY, 0, STATIC
        EXTERN NLME_IsAddressBroadcast
        FUNCTION NLME_IsAddressBroadcast,0202H
        ARGFRAME ISTACK, 0, STACK
        ARGFRAME PSTACK, 0, STACK
        ARGFRAME XSTACK, 52, STACK
        ARGFRAME IOVERLAY, 0, STATIC
        ARGFRAME DOVERLAY, 0, STATIC
        EXTERN sAddrExtCpy
        FUNCTION sAddrExtCpy,0202H
        ARGFRAME ISTACK, 0, STACK
        ARGFRAME PSTACK, 0, STACK
        ARGFRAME XSTACK, 52, STACK
        ARGFRAME IOVERLAY, 0, STATIC
        ARGFRAME DOVERLAY, 0, STATIC
        EXTERN APSDE_DataReq
        FUNCTION APSDE_DataReq,0202H
        ARGFRAME ISTACK, 0, STACK
        ARGFRAME PSTACK, 0, STACK
        ARGFRAME XSTACK, 52, STACK
        ARGFRAME IOVERLAY, 0, STATIC
        ARGFRAME DOVERLAY, 0, STATIC
        EXTERN NLME_GetShortAddr
        FUNCTION NLME_GetShortAddr,0202H
        ARGFRAME ISTACK, 0, STACK
        ARGFRAME PSTACK, 0, STACK
        ARGFRAME XSTACK, 52, STACK
        ARGFRAME IOVERLAY, 0, STATIC
        ARGFRAME DOVERLAY, 0, STATIC
        EXTERN APSDE_DataReqMTU
        FUNCTION APSDE_DataReqMTU,0202H
        ARGFRAME ISTACK, 0, STACK
        ARGFRAME PSTACK, 0, STACK
        ARGFRAME XSTACK, 9, STACK
        ARGFRAME IOVERLAY, 0, STATIC
        ARGFRAME DOVERLAY, 0, STATIC
        EXTERN ??APSDE_DataReq?relay
        FUNCTION ??APSDE_DataReq?relay,00H
        EXTERN ??APSDE_DataReqMTU?relay
        FUNCTION ??APSDE_DataReqMTU?relay,00H
        EXTERN ??NLME_GetShortAddr?relay
        FUNCTION ??NLME_GetShortAddr?relay,00H
        EXTERN ??NLME_IsAddressBroadcast?relay
        FUNCTION ??NLME_IsAddressBroadcast?relay,00H
        EXTERN ??aps_FindGroupForEndpoint?relay
        FUNCTION ??aps_FindGroupForEndpoint?relay,00H
        EXTERN ??osal_mem_alloc?relay
        FUNCTION ??osal_mem_alloc?relay,00H
        EXTERN ??osal_mem_free?relay
        FUNCTION ??osal_mem_free?relay,00H
        EXTERN ??osal_memcpy?relay
        FUNCTION ??osal_memcpy?relay,00H
        EXTERN ??osal_msg_allocate?relay
        FUNCTION ??osal_msg_allocate?relay,00H
        EXTERN ??osal_msg_send?relay
        FUNCTION ??osal_msg_send?relay,00H
        EXTERN ??sAddrExtCpy?relay
        FUNCTION ??sAddrExtCpy?relay,00H
        EXTERN apsfSendFragmented

// H:\zigbeesrc\8.ÎÞÏß´«¸ÐÆ÷ÍøÂç£¨×Ô×éÍøÓëÊý¾Ý´«Êä£©\Components\stack\af\AF.c
//    1 /**************************************************************************************************
//    2   Filename:       AF.c
//    3   Revised:        $Date: 2009-10-29 00:15:32 -0700 (Thu, 29 Oct 2009) $
//    4   Revision:       $Revision: 21013 $
//    5 
//    6   Description:    Application Framework - Device Description helper functions
//    7 
//    8 
//    9   Copyright 2004-2009 Texas Instruments Incorporated. All rights reserved.
//   10 
//   11   IMPORTANT: Your use of this Software is limited to those specific rights
//   12   granted under the terms of a software license agreement between the user
//   13   who downloaded the software, his/her employer (which must be your employer)
//   14   and Texas Instruments Incorporated (the "License").  You may not use this
//   15   Software unless you agree to abide by the terms of the License. The License
//   16   limits your use, and you acknowledge, that the Software may not be modified,
//   17   copied or distributed unless embedded on a Texas Instruments microcontroller
//   18   or used solely and exclusively in conjunction with a Texas Instruments radio
//   19   frequency transceiver, which is integrated into your product.  Other than for
//   20   the foregoing purpose, you may not use, reproduce, copy, prepare derivative
//   21   works of, modify, distribute, perform, display or sell this Software and/or
//   22   its documentation for any purpose.
//   23 
//   24   YOU FURTHER ACKNOWLEDGE AND AGREE THAT THE SOFTWARE AND DOCUMENTATION ARE
//   25   PROVIDED “AS IS?WITHOUT WARRANTY OF ANY KIND, EITHER EXPRESS OR IMPLIED,
//   26   INCLUDING WITHOUT LIMITATION, ANY WARRANTY OF MERCHANTABILITY, TITLE,
//   27   NON-INFRINGEMENT AND FITNESS FOR A PARTICULAR PURPOSE. IN NO EVENT SHALL
//   28   TEXAS INSTRUMENTS OR ITS LICENSORS BE LIABLE OR OBLIGATED UNDER CONTRACT,
//   29   NEGLIGENCE, STRICT LIABILITY, CONTRIBUTION, BREACH OF WARRANTY, OR OTHER
//   30   LEGAL EQUITABLE THEORY ANY DIRECT OR INDIRECT DAMAGES OR EXPENSES
//   31   INCLUDING BUT NOT LIMITED TO ANY INCIDENTAL, SPECIAL, INDIRECT, PUNITIVE
//   32   OR CONSEQUENTIAL DAMAGES, LOST PROFITS OR LOST DATA, COST OF PROCUREMENT
//   33   OF SUBSTITUTE GOODS, TECHNOLOGY, SERVICES, OR ANY CLAIMS BY THIRD PARTIES
//   34   (INCLUDING BUT NOT LIMITED TO ANY DEFENSE THEREOF), OR OTHER SIMILAR COSTS.
//   35 
//   36   Should you have any questions regarding your right to use this Software,
//   37   contact Texas Instruments Incorporated at www.TI.com.
//   38 **************************************************************************************************/
//   39 
//   40 /*********************************************************************
//   41  * INCLUDES
//   42  */
//   43 
//   44 #include "OSAL.h"
//   45 #include "AF.h"
//   46 #include "nwk_globals.h"
//   47 #include "nwk_util.h"
//   48 #include "aps_groups.h"
//   49 #include "ZDProfile.h"
//   50 #include "aps_frag.h"
//   51 #include "rtg.h"
//   52 
//   53 #if defined ( MT_AF_CB_FUNC )
//   54   #include "MT_AF.h"
//   55 #endif
//   56 
//   57 #if defined ( INTER_PAN )
//   58   #include "stub_aps.h"
//   59 #endif
//   60 
//   61 /*********************************************************************
//   62  * MACROS
//   63  */
//   64 
//   65 /*********************************************************************
//   66  * @fn      afSend
//   67  *
//   68  * @brief   Helper macro for V1 API to invoke V2 API.
//   69  *
//   70  * input parameters
//   71  *
//   72  * @param  *dstAddr - Full ZB destination address: Nwk Addr + End Point.
//   73  * @param   srcEP - Origination (i.e. respond to or ack to) End Point.
//   74  * @param   cID - A valid cluster ID as specified by the Profile.
//   75  * @param   len - Number of bytes of data pointed to by next param.
//   76  * @param  *buf - A pointer to the data bytes to send.
//   77  * @param   options - Valid bit mask of AF Tx Options as defined in AF.h.
//   78  * @param  *transID - A pointer to a byte which can be modified and which will
//   79  *                    be used as the transaction sequence number of the msg.
//   80  *
//   81  * output parameters
//   82  *
//   83  * @param  *transID - Incremented by one if the return value is success.
//   84  *
//   85  * @return  afStatus_t - See previous definition of afStatus_... types.
//   86  */
//   87 #define afSend( dstAddr, srcEP, cID, len, buf, transID, options, radius ) \ 
//   88         AF_DataRequest( (dstAddr), afFindEndPointDesc( (srcEP) ), \ 
//   89                           (cID), (len), (buf), (transID), (options), (radius) )
//   90 
//   91 /*********************************************************************
//   92  * CONSTANTS
//   93  */
//   94 
//   95 /*********************************************************************
//   96  * TYPEDEFS
//   97  */
//   98 
//   99 /*********************************************************************
//  100  * GLOBAL VARIABLES
//  101  */
//  102 

        RSEG XDATA_Z:XDATA:NOROOT(0)
        DATA16
//  103 epList_t *epList;
epList:
        DS 2
        REQUIRE __INIT_XDATA_Z
//  104 
//  105 /*********************************************************************
//  106  * EXTERNAL VARIABLES
//  107  */
//  108 
//  109 /*********************************************************************
//  110  * EXTERNAL FUNCTIONS
//  111  */
//  112 
//  113 /*********************************************************************
//  114  * LOCAL VARIABLES
//  115  */
//  116 
//  117 /*********************************************************************
//  118  * LOCAL FUNCTIONS
//  119  */
//  120 
//  121 static void afBuildMSGIncoming( aps_FrameFormat_t *aff, endPointDesc_t *epDesc,
//  122                 zAddrType_t *SrcAddress, uint16 SrcPanId, NLDE_Signal_t *sig,
//  123                 byte SecurityUse, uint32 timestamp );
//  124 
//  125 static epList_t *afFindEndPointDescList( byte EndPoint );
//  126 
//  127 static pDescCB afGetDescCB( endPointDesc_t *epDesc );
//  128 
//  129 /*********************************************************************
//  130  * NETWORK LAYER CALLBACKS
//  131  */
//  132 
//  133 /*********************************************************************
//  134  * PUBLIC FUNCTIONS
//  135  */
//  136 
//  137 /*********************************************************************
//  138  * @fn      afInit
//  139  *
//  140  * @brief   Initialization function for the AF.
//  141  *
//  142  * @param   none
//  143  *
//  144  * @return  none
//  145  */

        RSEG BANKED_CODE:CODE:NOROOT(0)
//  146 void afInit( void )
afInit:
        CFI Block cfiBlock0 Using cfiCommon0
        CFI Function afInit
        CODE
//  147 {
        PUSH    DPL
        CFI DPL0 Frame(CFA_SP, 4)
        CFI CFA_SP SP+-4
        PUSH    DPH
        CFI DPH0 Frame(CFA_SP, 5)
        CFI CFA_SP SP+-5
        ; Saved register size: 2
        ; Auto size: 0
//  148   // Start with no endpoint defined
//  149   epList = NULL;
        MOV     DPTR,#epList
        CLR     A
        MOVX    @DPTR,A
        INC     DPTR
        MOVX    @DPTR,A
//  150 }
        LJMP    ?Subroutine0 & 0xFFFF
        CFI EndBlock cfiBlock0
//  151 
//  152 /*********************************************************************
//  153  * @fn      afRegisterExtended
//  154  *
//  155  * @brief   Register an Application's EndPoint description.
//  156  *
//  157  * @param   epDesc - pointer to the Application's endpoint descriptor.
//  158  * @param   descFn - pointer to descriptor callback function
//  159  *
//  160  * NOTE:  The memory that epDesc is pointing to must exist after this call.
//  161  *
//  162  * @return  Pointer to epList_t on success, NULL otherwise.
//  163  */

        RSEG BANKED_CODE:CODE:NOROOT(0)
//  164 epList_t *afRegisterExtended( endPointDesc_t *epDesc, pDescCB descFn )
afRegisterExtended:
        CFI Block cfiBlock1 Using cfiCommon0
        CFI Function afRegisterExtended
        CODE
//  165 {
        FUNCALL afRegisterExtended, osal_mem_alloc
        LOCFRAME ISTACK, 0, STACK
        LOCFRAME PSTACK, 0, STACK
        LOCFRAME XSTACK, 12, STACK
        LOCFRAME IOVERLAY, 0, STATIC
        LOCFRAME DOVERLAY, 0, STATIC
        ARGFRAME ISTACK, 0, STACK
        ARGFRAME PSTACK, 0, STACK
        ARGFRAME XSTACK, 12, STACK
        ARGFRAME IOVERLAY, 0, STATIC
        ARGFRAME DOVERLAY, 0, STATIC
        MOV     A,#-0xc
        LCALL   ?BANKED_ENTER_XDATA
        CFI DPH0 load(1, XDATA, add(CFA_XSP16, literal(-1)))
        CFI DPL0 load(1, XDATA, add(CFA_XSP16, literal(-2)))
        CFI ?BRET_EXT load(1, XDATA, add(CFA_XSP16, literal(-3)))
        CFI ?RET_HIGH load(1, XDATA, add(CFA_XSP16, literal(-4)))
        CFI ?RET_LOW load(1, XDATA, add(CFA_XSP16, literal(-5)))
        CFI R7 load(1, XDATA, add(CFA_XSP16, literal(-6)))
        CFI V3 load(1, XDATA, add(CFA_XSP16, literal(-7)))
        CFI V2 load(1, XDATA, add(CFA_XSP16, literal(-8)))
        CFI V1 load(1, XDATA, add(CFA_XSP16, literal(-9)))
        CFI V0 load(1, XDATA, add(CFA_XSP16, literal(-10)))
        CFI VB load(1, XDATA, add(CFA_XSP16, literal(-11)))
        CFI R6 load(1, XDATA, add(CFA_XSP16, literal(-12)))
        CFI CFA_SP SP+0
        CFI CFA_XSP16 add(XSP16, 12)
        ; Saved register size: 12
        ; Auto size: 0
        MOV     A,R2
        MOV     R6,A
        MOV     A,R3
        MOV     R7,A
        MOV     ?V0 + 0,R4
        MOV     ?V0 + 1,R5
//  166   epList_t *ep;
//  167   epList_t *epSearch;
//  168 
//  169   ep = osal_mem_alloc( sizeof ( epList_t ) );
        ; Setup parameters for call to function osal_mem_alloc
        MOV     R2,#0x7
        MOV     R3,#0x0
        LCALL   ??osal_mem_alloc?relay
//  170   if ( ep )
        MOV     A,R2
        ORL     A,R3
        JZ      ??afRegisterExtended_0
//  171   {
//  172     // Fill in the new list entry
//  173     ep->epDesc = epDesc;
        MOV     DPL,R2
        MOV     DPH,R3
        MOV     A,R6
        MOVX    @DPTR,A
        INC     DPTR
        MOV     A,R7
        LCALL   ?Subroutine24 & 0xFFFF
//  174 
//  175     // Default to allow Match Descriptor.
//  176     ep->flags = eEP_AllowMatch;
??CrossCallReturnLabel_41:
        MOV     A,#0x1
        LCALL   ?Subroutine5 & 0xFFFF
//  177     ep->pfnDescCB = descFn;
??CrossCallReturnLabel_0:
        MOV     A,?V0 + 0
        MOVX    @DPTR,A
        INC     DPTR
        MOV     A,?V0 + 1
        LCALL   ?Subroutine5 & 0xFFFF
//  178     ep->nextDesc = NULL;
??CrossCallReturnLabel_1:
        INC     DPTR
        INC     DPTR
        CLR     A
        MOVX    @DPTR,A
        INC     DPTR
        MOVX    @DPTR,A
//  179 
//  180     // Does a list exist?
//  181     if ( epList == NULL )
        MOV     DPTR,#epList
        LCALL   ?Subroutine9 & 0xFFFF
??CrossCallReturnLabel_9:
        JNZ     ??afRegisterExtended_1
//  182       epList = ep;  // Make this the first entry
        MOV     DPTR,#epList
        SJMP    ??afRegisterExtended_2
//  183     else
//  184     {
//  185       // Look for the end of the list
//  186       epSearch = epList;
??afRegisterExtended_1:
        MOVX    A,@DPTR
        MOV     R1,A
//  187       while( epSearch->nextDesc != NULL )
//  188         epSearch = epSearch->nextDesc;
??afRegisterExtended_3:
        MOV     A,R0
        ADD     A,#0x5
        MOV     R0,A
        MOV     A,R1
        ADDC    A,#0x0
        MOV     R1,A
        MOV     A,R0
        MOV     R4,A
        MOV     A,R1
        MOV     R5,A
        MOV     DPL,R4
        MOV     DPH,R5
        LCALL   ?Subroutine9 & 0xFFFF
??CrossCallReturnLabel_10:
        JNZ     ??afRegisterExtended_3
//  189 
//  190       // Add new entry to end of list
//  191       epSearch->nextDesc = ep;
        MOV     DPL,R4
        MOV     DPH,R5
??afRegisterExtended_2:
        MOV     A,R2
        MOVX    @DPTR,A
        INC     DPTR
        MOV     A,R3
        MOVX    @DPTR,A
        CFI EndBlock cfiBlock1
//  192     }
//  193   }
//  194 
//  195   return ep;
??afRegisterExtended_0:
        REQUIRE ?Subroutine1
        ; // Fall through to label ?Subroutine1
//  196 }

        RSEG BANKED_CODE:CODE:NOROOT(0)
?Subroutine1:
        CFI Block cfiBlock2 Using cfiCommon0
        CFI NoFunction
        CFI CFA_SP SP+0
        CFI CFA_XSP16 add(XSP16, 12)
        CFI VB load(1, XDATA, add(CFA_XSP16, literal(-11)))
        CFI DPL0 load(1, XDATA, add(CFA_XSP16, literal(-2)))
        CFI DPH0 load(1, XDATA, add(CFA_XSP16, literal(-1)))
        CFI R6 load(1, XDATA, add(CFA_XSP16, literal(-12)))
        CFI R7 load(1, XDATA, add(CFA_XSP16, literal(-6)))
        CFI V0 load(1, XDATA, add(CFA_XSP16, literal(-10)))
        CFI V1 load(1, XDATA, add(CFA_XSP16, literal(-9)))
        CFI V2 load(1, XDATA, add(CFA_XSP16, literal(-8)))
        CFI V3 load(1, XDATA, add(CFA_XSP16, literal(-7)))
        CFI ?BRET_EXT load(1, XDATA, add(CFA_XSP16, literal(-3)))
        CFI ?RET_HIGH load(1, XDATA, add(CFA_XSP16, literal(-4)))
        CFI ?RET_LOW load(1, XDATA, add(CFA_XSP16, literal(-5)))
        MOV     R7,#0x4
        LJMP    ?BANKED_LEAVE_XDATA
        CFI EndBlock cfiBlock2
//  197 
//  198 /*********************************************************************
//  199  * @fn      afRegister
//  200  *
//  201  * @brief   Register an Application's EndPoint description.
//  202  *
//  203  * @param   epDesc - pointer to the Application's endpoint descriptor.
//  204  *
//  205  * NOTE:  The memory that epDesc is pointing to must exist after this call.
//  206  *
//  207  * @return  afStatus_SUCCESS - Registered
//  208  *          afStatus_MEM_FAIL - not enough memory to add descriptor
//  209  *          afStatus_INVALID_PARAMETER - duplicate endpoint
//  210  */

        RSEG BANKED_CODE:CODE:NOROOT(0)
//  211 afStatus_t afRegister( endPointDesc_t *epDesc )
afRegister:
        CFI Block cfiBlock3 Using cfiCommon0
        CFI Function afRegister
        CODE
//  212 {
        FUNCALL afRegister, afFindEndPointDescList
        LOCFRAME ISTACK, 0, STACK
        LOCFRAME PSTACK, 0, STACK
        LOCFRAME XSTACK, 10, STACK
        LOCFRAME IOVERLAY, 0, STATIC
        LOCFRAME DOVERLAY, 0, STATIC
        ARGFRAME ISTACK, 0, STACK
        ARGFRAME PSTACK, 0, STACK
        ARGFRAME XSTACK, 10, STACK
        ARGFRAME IOVERLAY, 0, STATIC
        ARGFRAME DOVERLAY, 0, STATIC
        FUNCALL afRegister, afRegisterExtended
        LOCFRAME ISTACK, 0, STACK
        LOCFRAME PSTACK, 0, STACK
        LOCFRAME XSTACK, 10, STACK
        LOCFRAME IOVERLAY, 0, STATIC
        LOCFRAME DOVERLAY, 0, STATIC
        ARGFRAME ISTACK, 0, STACK
        ARGFRAME PSTACK, 0, STACK
        ARGFRAME XSTACK, 10, STACK
        ARGFRAME IOVERLAY, 0, STATIC
        ARGFRAME DOVERLAY, 0, STATIC
        MOV     A,#-0xa
        LCALL   ?BANKED_ENTER_XDATA
        CFI DPH0 load(1, XDATA, add(CFA_XSP16, literal(-1)))
        CFI DPL0 load(1, XDATA, add(CFA_XSP16, literal(-2)))
        CFI ?BRET_EXT load(1, XDATA, add(CFA_XSP16, literal(-3)))
        CFI ?RET_HIGH load(1, XDATA, add(CFA_XSP16, literal(-4)))
        CFI ?RET_LOW load(1, XDATA, add(CFA_XSP16, literal(-5)))
        CFI R7 load(1, XDATA, add(CFA_XSP16, literal(-6)))
        CFI V1 load(1, XDATA, add(CFA_XSP16, literal(-7)))
        CFI V0 load(1, XDATA, add(CFA_XSP16, literal(-8)))
        CFI VB load(1, XDATA, add(CFA_XSP16, literal(-9)))
        CFI R6 load(1, XDATA, add(CFA_XSP16, literal(-10)))
        CFI CFA_SP SP+0
        CFI CFA_XSP16 add(XSP16, 10)
        ; Saved register size: 10
        ; Auto size: 0
        MOV     A,R2
        MOV     R6,A
        MOV     A,R3
        MOV     R7,A
//  213   epList_t *ep;
//  214   
//  215   // Look for duplicate endpoint
//  216   if ( afFindEndPointDescList( epDesc->endPoint ) )
        ; Setup parameters for call to function afFindEndPointDescList
        MOV     DPL,R6
        MOV     DPH,R7
        MOVX    A,@DPTR
        MOV     R1,A
        LCALL   ??afFindEndPointDescList?relay
        MOV     ?V0 + 1,R3
        MOV     A,R2
        ORL     A,?V0 + 1
        JZ      ??afRegister_0
//  217     return ( afStatus_INVALID_PARAMETER );
        MOV     R1,#0x2
        SJMP    ??afRegister_1
//  218   
//  219   ep = afRegisterExtended( epDesc, NULL );
//  220 
//  221   return ((ep == NULL) ? afStatus_MEM_FAIL : afStatus_SUCCESS);
??afRegister_0:
        ; Setup parameters for call to function afRegisterExtended
        MOV     R4,#0x0
        MOV     R5,#0x0
        MOV     A,R6
        MOV     R2,A
        MOV     A,R7
        MOV     R3,A
        LCALL   ??afRegisterExtended?relay
        MOV     ?V0 + 1,R3
        MOV     A,R2
        ORL     A,?V0 + 1
        JNZ     ??afRegister_2
        MOV     R1,#0x10
        SJMP    ??afRegister_1
??afRegister_2:
        MOV     R1,#0x0
??afRegister_1:
        LJMP    ?Subroutine2 & 0xFFFF
        CFI EndBlock cfiBlock3
//  222 }
//  223 
//  224 
//  225 /*********************************************************************
//  226  * @fn          afDataConfirm
//  227  *
//  228  * @brief       This function will generate the Data Confirm back to
//  229  *              the application.
//  230  *
//  231  * @param       endPoint - confirm end point
//  232  * @param       transID - transaction ID from APSDE_DATA_REQUEST
//  233  * @param       status - status of APSDE_DATA_REQUEST
//  234  *
//  235  * @return      none
//  236  */

        RSEG BANKED_CODE:CODE:NOROOT(0)
//  237 void afDataConfirm( uint8 endPoint, uint8 transID, ZStatus_t status )
afDataConfirm:
        CFI Block cfiBlock4 Using cfiCommon0
        CFI Function afDataConfirm
        CODE
//  238 {
        FUNCALL afDataConfirm, afFindEndPointDesc
        LOCFRAME ISTACK, 0, STACK
        LOCFRAME PSTACK, 0, STACK
        LOCFRAME XSTACK, 14, STACK
        LOCFRAME IOVERLAY, 0, STATIC
        LOCFRAME DOVERLAY, 0, STATIC
        ARGFRAME ISTACK, 0, STACK
        ARGFRAME PSTACK, 0, STACK
        ARGFRAME XSTACK, 14, STACK
        ARGFRAME IOVERLAY, 0, STATIC
        ARGFRAME DOVERLAY, 0, STATIC
        FUNCALL afDataConfirm, osal_msg_allocate
        LOCFRAME ISTACK, 0, STACK
        LOCFRAME PSTACK, 0, STACK
        LOCFRAME XSTACK, 14, STACK
        LOCFRAME IOVERLAY, 0, STATIC
        LOCFRAME DOVERLAY, 0, STATIC
        ARGFRAME ISTACK, 0, STACK
        ARGFRAME PSTACK, 0, STACK
        ARGFRAME XSTACK, 14, STACK
        ARGFRAME IOVERLAY, 0, STATIC
        ARGFRAME DOVERLAY, 0, STATIC
        FUNCALL afDataConfirm, osal_msg_send
        LOCFRAME ISTACK, 0, STACK
        LOCFRAME PSTACK, 0, STACK
        LOCFRAME XSTACK, 14, STACK
        LOCFRAME IOVERLAY, 0, STATIC
        LOCFRAME DOVERLAY, 0, STATIC
        ARGFRAME ISTACK, 0, STACK
        ARGFRAME PSTACK, 0, STACK
        ARGFRAME XSTACK, 14, STACK
        ARGFRAME IOVERLAY, 0, STATIC
        ARGFRAME DOVERLAY, 0, STATIC
        MOV     A,#-0xe
        LCALL   ?BANKED_ENTER_XDATA
        CFI DPH0 load(1, XDATA, add(CFA_XSP16, literal(-1)))
        CFI DPL0 load(1, XDATA, add(CFA_XSP16, literal(-2)))
        CFI ?BRET_EXT load(1, XDATA, add(CFA_XSP16, literal(-3)))
        CFI ?RET_HIGH load(1, XDATA, add(CFA_XSP16, literal(-4)))
        CFI ?RET_LOW load(1, XDATA, add(CFA_XSP16, literal(-5)))
        CFI R7 load(1, XDATA, add(CFA_XSP16, literal(-6)))
        CFI V5 load(1, XDATA, add(CFA_XSP16, literal(-7)))
        CFI V4 load(1, XDATA, add(CFA_XSP16, literal(-8)))
        CFI V3 load(1, XDATA, add(CFA_XSP16, literal(-9)))
        CFI V2 load(1, XDATA, add(CFA_XSP16, literal(-10)))
        CFI V1 load(1, XDATA, add(CFA_XSP16, literal(-11)))
        CFI V0 load(1, XDATA, add(CFA_XSP16, literal(-12)))
        CFI VB load(1, XDATA, add(CFA_XSP16, literal(-13)))
        CFI R6 load(1, XDATA, add(CFA_XSP16, literal(-14)))
        CFI CFA_SP SP+0
        CFI CFA_XSP16 add(XSP16, 14)
        ; Saved register size: 14
        ; Auto size: 0
        MOV     ?V0 + 0,R1
        MOV     ?V0 + 1,R2
        MOV     ?V0 + 2,R3
//  239   endPointDesc_t *epDesc;
//  240   afDataConfirm_t *msgPtr;
//  241 
//  242   // Find the endpoint description
//  243   epDesc = afFindEndPointDesc( endPoint );
        ; Setup parameters for call to function afFindEndPointDesc
        LCALL   ??afFindEndPointDesc?relay
        MOV     ?V0 + 4,R2
        MOV     ?V0 + 5,R3
        MOV     R6,?V0 + 4
        MOV     R7,?V0 + 5
//  244   if ( epDesc == NULL )
        MOV     A,R6
        ORL     A,R7
        JZ      ??CrossCallReturnLabel_14
//  245     return;
//  246 
//  247   // Determine the incoming command type
//  248   msgPtr = (afDataConfirm_t *)osal_msg_allocate( sizeof(afDataConfirm_t) );
        ; Setup parameters for call to function osal_msg_allocate
        MOV     R2,#0x4
        MOV     R3,#0x0
        LCALL   ??osal_msg_allocate?relay
//  249   if ( msgPtr )
        MOV     A,R2
        ORL     A,R3
        JZ      ??CrossCallReturnLabel_14
//  250   {
//  251     // Build the Data Confirm message
//  252     msgPtr->hdr.event = AF_DATA_CONFIRM_CMD;
        MOV     DPL,R2
        MOV     DPH,R3
        MOV     A,#-0x3
        MOVX    @DPTR,A
//  253     msgPtr->hdr.status = status;
        INC     DPTR
        MOV     A,?V0 + 2
        LCALL   ?Subroutine24 & 0xFFFF
//  254     msgPtr->endpoint = endPoint;
??CrossCallReturnLabel_42:
        MOV     A,?V0 + 0
        LCALL   ?Subroutine5 & 0xFFFF
//  255     msgPtr->transID = transID;
??CrossCallReturnLabel_2:
        MOV     A,?V0 + 1
        MOVX    @DPTR,A
//  256 
//  257 #if defined ( MT_AF_CB_FUNC )
//  258     /* If MT has subscribed for this callback, don't send as a message. */
//  259     if ( AFCB_CHECK(CB_ID_AF_DATA_CNF,*(epDesc->task_id)) )
//  260     {
//  261       /* Send callback if it's subscribed */
//  262       MT_AfDataConfirm ((void *)msgPtr);
//  263       /* Release the memory. */
//  264       osal_msg_deallocate( (void *)msgPtr );
//  265     }
//  266     else
//  267 #endif
//  268     {
//  269       /* send message through task message */
//  270       osal_msg_send( *(epDesc->task_id), (byte *)msgPtr );
        ; Setup parameters for call to function osal_msg_send
        MOV     DPL,R6
        MOV     DPH,R7
        LCALL   ?Subroutine11 & 0xFFFF
//  271     }
//  272   }
??CrossCallReturnLabel_14:
        MOV     R7,#0x6
        LJMP    ?BANKED_LEAVE_XDATA
        CFI EndBlock cfiBlock4
//  273 }

        RSEG BANKED_CODE:CODE:NOROOT(0)
?Subroutine24:
        CFI Block cfiCond5 Using cfiCommon0
        CFI NoFunction
        CFI Conditional ??CrossCallReturnLabel_41
        CFI R6 load(1, XDATA, add(CFA_XSP16, literal(-12)))
        CFI VB load(1, XDATA, add(CFA_XSP16, literal(-11)))
        CFI V0 load(1, XDATA, add(CFA_XSP16, literal(-10)))
        CFI V1 load(1, XDATA, add(CFA_XSP16, literal(-9)))
        CFI V2 load(1, XDATA, add(CFA_XSP16, literal(-8)))
        CFI V3 load(1, XDATA, add(CFA_XSP16, literal(-7)))
        CFI R7 load(1, XDATA, add(CFA_XSP16, literal(-6)))
        CFI ?RET_LOW load(1, XDATA, add(CFA_XSP16, literal(-5)))
        CFI ?RET_HIGH load(1, XDATA, add(CFA_XSP16, literal(-4)))
        CFI ?BRET_EXT load(1, XDATA, add(CFA_XSP16, literal(-3)))
        CFI DPL0 load(1, XDATA, add(CFA_XSP16, literal(-2)))
        CFI DPH0 load(1, XDATA, add(CFA_XSP16, literal(-1)))
        CFI CFA_SP SP+0
        CFI CFA_XSP16 add(XSP16, 12)
        CFI Block cfiCond6 Using cfiCommon0
        CFI (cfiCond6) NoFunction
        CFI (cfiCond6) Conditional ??CrossCallReturnLabel_42
        CFI (cfiCond6) R6 load(1, XDATA, add(CFA_XSP16, literal(-14)))
        CFI (cfiCond6) VB load(1, XDATA, add(CFA_XSP16, literal(-13)))
        CFI (cfiCond6) V0 load(1, XDATA, add(CFA_XSP16, literal(-12)))
        CFI (cfiCond6) V1 load(1, XDATA, add(CFA_XSP16, literal(-11)))
        CFI (cfiCond6) V2 load(1, XDATA, add(CFA_XSP16, literal(-10)))
        CFI (cfiCond6) V3 load(1, XDATA, add(CFA_XSP16, literal(-9)))
        CFI (cfiCond6) V4 load(1, XDATA, add(CFA_XSP16, literal(-8)))
        CFI (cfiCond6) V5 load(1, XDATA, add(CFA_XSP16, literal(-7)))
        CFI (cfiCond6) R7 load(1, XDATA, add(CFA_XSP16, literal(-6)))
        CFI (cfiCond6) ?RET_LOW load(1, XDATA, add(CFA_XSP16, literal(-5)))
        CFI (cfiCond6) ?RET_HIGH load(1, XDATA, add(CFA_XSP16, literal(-4)))
        CFI (cfiCond6) ?BRET_EXT load(1, XDATA, add(CFA_XSP16, literal(-3)))
        CFI (cfiCond6) DPL0 load(1, XDATA, add(CFA_XSP16, literal(-2)))
        CFI (cfiCond6) DPH0 load(1, XDATA, add(CFA_XSP16, literal(-1)))
        CFI (cfiCond6) CFA_SP SP+0
        CFI (cfiCond6) CFA_XSP16 add(XSP16, 14)
        CFI Block cfiCond7 Using cfiCommon0
        CFI (cfiCond7) NoFunction
        CFI (cfiCond7) Conditional ??CrossCallReturnLabel_43, ??CrossCallReturnLabel_0
        CFI (cfiCond7) R6 load(1, XDATA, add(CFA_XSP16, literal(-12)))
        CFI (cfiCond7) VB load(1, XDATA, add(CFA_XSP16, literal(-11)))
        CFI (cfiCond7) V0 load(1, XDATA, add(CFA_XSP16, literal(-10)))
        CFI (cfiCond7) V1 load(1, XDATA, add(CFA_XSP16, literal(-9)))
        CFI (cfiCond7) V2 load(1, XDATA, add(CFA_XSP16, literal(-8)))
        CFI (cfiCond7) V3 load(1, XDATA, add(CFA_XSP16, literal(-7)))
        CFI (cfiCond7) R7 load(1, XDATA, add(CFA_XSP16, literal(-6)))
        CFI (cfiCond7) ?RET_LOW load(1, XDATA, add(CFA_XSP16, literal(-5)))
        CFI (cfiCond7) ?RET_HIGH load(1, XDATA, add(CFA_XSP16, literal(-4)))
        CFI (cfiCond7) ?BRET_EXT load(1, XDATA, add(CFA_XSP16, literal(-3)))
        CFI (cfiCond7) DPL0 load(1, XDATA, add(CFA_XSP16, literal(-2)))
        CFI (cfiCond7) DPH0 load(1, XDATA, add(CFA_XSP16, literal(-1)))
        CFI (cfiCond7) CFA_SP SP+0
        CFI (cfiCond7) CFA_XSP16 add(XSP16, 12)
        CFI Block cfiCond8 Using cfiCommon0
        CFI (cfiCond8) NoFunction
        CFI (cfiCond8) Conditional ??CrossCallReturnLabel_43, ??CrossCallReturnLabel_1
        CFI (cfiCond8) R6 load(1, XDATA, add(CFA_XSP16, literal(-12)))
        CFI (cfiCond8) VB load(1, XDATA, add(CFA_XSP16, literal(-11)))
        CFI (cfiCond8) V0 load(1, XDATA, add(CFA_XSP16, literal(-10)))
        CFI (cfiCond8) V1 load(1, XDATA, add(CFA_XSP16, literal(-9)))
        CFI (cfiCond8) V2 load(1, XDATA, add(CFA_XSP16, literal(-8)))
        CFI (cfiCond8) V3 load(1, XDATA, add(CFA_XSP16, literal(-7)))
        CFI (cfiCond8) R7 load(1, XDATA, add(CFA_XSP16, literal(-6)))
        CFI (cfiCond8) ?RET_LOW load(1, XDATA, add(CFA_XSP16, literal(-5)))
        CFI (cfiCond8) ?RET_HIGH load(1, XDATA, add(CFA_XSP16, literal(-4)))
        CFI (cfiCond8) ?BRET_EXT load(1, XDATA, add(CFA_XSP16, literal(-3)))
        CFI (cfiCond8) DPL0 load(1, XDATA, add(CFA_XSP16, literal(-2)))
        CFI (cfiCond8) DPH0 load(1, XDATA, add(CFA_XSP16, literal(-1)))
        CFI (cfiCond8) CFA_SP SP+0
        CFI (cfiCond8) CFA_XSP16 add(XSP16, 12)
        CFI Block cfiCond9 Using cfiCommon0
        CFI (cfiCond9) NoFunction
        CFI (cfiCond9) Conditional ??CrossCallReturnLabel_43, ??CrossCallReturnLabel_2
        CFI (cfiCond9) R6 load(1, XDATA, add(CFA_XSP16, literal(-14)))
        CFI (cfiCond9) VB load(1, XDATA, add(CFA_XSP16, literal(-13)))
        CFI (cfiCond9) V0 load(1, XDATA, add(CFA_XSP16, literal(-12)))
        CFI (cfiCond9) V1 load(1, XDATA, add(CFA_XSP16, literal(-11)))
        CFI (cfiCond9) V2 load(1, XDATA, add(CFA_XSP16, literal(-10)))
        CFI (cfiCond9) V3 load(1, XDATA, add(CFA_XSP16, literal(-9)))
        CFI (cfiCond9) V4 load(1, XDATA, add(CFA_XSP16, literal(-8)))
        CFI (cfiCond9) V5 load(1, XDATA, add(CFA_XSP16, literal(-7)))
        CFI (cfiCond9) R7 load(1, XDATA, add(CFA_XSP16, literal(-6)))
        CFI (cfiCond9) ?RET_LOW load(1, XDATA, add(CFA_XSP16, literal(-5)))
        CFI (cfiCond9) ?RET_HIGH load(1, XDATA, add(CFA_XSP16, literal(-4)))
        CFI (cfiCond9) ?BRET_EXT load(1, XDATA, add(CFA_XSP16, literal(-3)))
        CFI (cfiCond9) DPL0 load(1, XDATA, add(CFA_XSP16, literal(-2)))
        CFI (cfiCond9) DPH0 load(1, XDATA, add(CFA_XSP16, literal(-1)))
        CFI (cfiCond9) CFA_SP SP+0
        CFI (cfiCond9) CFA_XSP16 add(XSP16, 14)
        CFI Block cfiPicker10 Using cfiCommon1
        CFI (cfiPicker10) NoFunction
        CFI (cfiPicker10) Picker
        MOVX    @DPTR,A
        MOV     DPL,R2
        MOV     DPH,R3
        INC     DPTR
        INC     DPTR
        RET
        CFI EndBlock cfiCond5
        CFI EndBlock cfiCond6
        CFI EndBlock cfiCond7
        CFI EndBlock cfiCond8
        CFI EndBlock cfiCond9
        CFI EndBlock cfiPicker10

        RSEG BANKED_CODE:CODE:NOROOT(0)
?Subroutine5:
        CFI Block cfiCond11 Using cfiCommon0
        CFI NoFunction
        CFI Conditional ??CrossCallReturnLabel_0
        CFI R6 load(1, XDATA, add(CFA_XSP16, literal(-12)))
        CFI VB load(1, XDATA, add(CFA_XSP16, literal(-11)))
        CFI V0 load(1, XDATA, add(CFA_XSP16, literal(-10)))
        CFI V1 load(1, XDATA, add(CFA_XSP16, literal(-9)))
        CFI V2 load(1, XDATA, add(CFA_XSP16, literal(-8)))
        CFI V3 load(1, XDATA, add(CFA_XSP16, literal(-7)))
        CFI R7 load(1, XDATA, add(CFA_XSP16, literal(-6)))
        CFI ?RET_LOW load(1, XDATA, add(CFA_XSP16, literal(-5)))
        CFI ?RET_HIGH load(1, XDATA, add(CFA_XSP16, literal(-4)))
        CFI ?BRET_EXT load(1, XDATA, add(CFA_XSP16, literal(-3)))
        CFI DPL0 load(1, XDATA, add(CFA_XSP16, literal(-2)))
        CFI DPH0 load(1, XDATA, add(CFA_XSP16, literal(-1)))
        CFI CFA_SP SP+0
        CFI CFA_XSP16 add(XSP16, 12)
        CFI Block cfiCond12 Using cfiCommon0
        CFI (cfiCond12) NoFunction
        CFI (cfiCond12) Conditional ??CrossCallReturnLabel_1
        CFI (cfiCond12) R6 load(1, XDATA, add(CFA_XSP16, literal(-12)))
        CFI (cfiCond12) VB load(1, XDATA, add(CFA_XSP16, literal(-11)))
        CFI (cfiCond12) V0 load(1, XDATA, add(CFA_XSP16, literal(-10)))
        CFI (cfiCond12) V1 load(1, XDATA, add(CFA_XSP16, literal(-9)))
        CFI (cfiCond12) V2 load(1, XDATA, add(CFA_XSP16, literal(-8)))
        CFI (cfiCond12) V3 load(1, XDATA, add(CFA_XSP16, literal(-7)))
        CFI (cfiCond12) R7 load(1, XDATA, add(CFA_XSP16, literal(-6)))
        CFI (cfiCond12) ?RET_LOW load(1, XDATA, add(CFA_XSP16, literal(-5)))
        CFI (cfiCond12) ?RET_HIGH load(1, XDATA, add(CFA_XSP16, literal(-4)))
        CFI (cfiCond12) ?BRET_EXT load(1, XDATA, add(CFA_XSP16, literal(-3)))
        CFI (cfiCond12) DPL0 load(1, XDATA, add(CFA_XSP16, literal(-2)))
        CFI (cfiCond12) DPH0 load(1, XDATA, add(CFA_XSP16, literal(-1)))
        CFI (cfiCond12) CFA_SP SP+0
        CFI (cfiCond12) CFA_XSP16 add(XSP16, 12)
        CFI Block cfiCond13 Using cfiCommon0
        CFI (cfiCond13) NoFunction
        CFI (cfiCond13) Conditional ??CrossCallReturnLabel_2
        CFI (cfiCond13) R6 load(1, XDATA, add(CFA_XSP16, literal(-14)))
        CFI (cfiCond13) VB load(1, XDATA, add(CFA_XSP16, literal(-13)))
        CFI (cfiCond13) V0 load(1, XDATA, add(CFA_XSP16, literal(-12)))
        CFI (cfiCond13) V1 load(1, XDATA, add(CFA_XSP16, literal(-11)))
        CFI (cfiCond13) V2 load(1, XDATA, add(CFA_XSP16, literal(-10)))
        CFI (cfiCond13) V3 load(1, XDATA, add(CFA_XSP16, literal(-9)))
        CFI (cfiCond13) V4 load(1, XDATA, add(CFA_XSP16, literal(-8)))
        CFI (cfiCond13) V5 load(1, XDATA, add(CFA_XSP16, literal(-7)))
        CFI (cfiCond13) R7 load(1, XDATA, add(CFA_XSP16, literal(-6)))
        CFI (cfiCond13) ?RET_LOW load(1, XDATA, add(CFA_XSP16, literal(-5)))
        CFI (cfiCond13) ?RET_HIGH load(1, XDATA, add(CFA_XSP16, literal(-4)))
        CFI (cfiCond13) ?BRET_EXT load(1, XDATA, add(CFA_XSP16, literal(-3)))
        CFI (cfiCond13) DPL0 load(1, XDATA, add(CFA_XSP16, literal(-2)))
        CFI (cfiCond13) DPH0 load(1, XDATA, add(CFA_XSP16, literal(-1)))
        CFI (cfiCond13) CFA_SP SP+0
        CFI (cfiCond13) CFA_XSP16 add(XSP16, 14)
        CFI Block cfiPicker14 Using cfiCommon1
        CFI (cfiPicker14) NoFunction
        CFI (cfiPicker14) Picker
        LCALL   ?Subroutine24 & 0xFFFF
??CrossCallReturnLabel_43:
        INC     DPTR
        RET
        CFI EndBlock cfiCond11
        CFI EndBlock cfiCond12
        CFI EndBlock cfiCond13
        CFI EndBlock cfiPicker14
//  274 
//  275 /*********************************************************************
//  276  * @fn          afIncomingData
//  277  *
//  278  * @brief       Transfer a data PDU (ASDU) from the APS sub-layer to the AF.
//  279  *
//  280  * @param       aff  - pointer to APS frame format
//  281  * @param       SrcAddress  - Source address
//  282  * @param       sig - incoming message's link quality
//  283  * @param       SecurityUse - Security enable/disable
//  284  *
//  285  * @return      none
//  286  */

        RSEG BANKED_CODE:CODE:NOROOT(0)
//  287 void afIncomingData( aps_FrameFormat_t *aff, zAddrType_t *SrcAddress, uint16 SrcPanId,
afIncomingData:
        CFI Block cfiBlock15 Using cfiCommon0
        CFI Function afIncomingData
        CODE
//  288                      NLDE_Signal_t *sig, byte SecurityUse, uint32 timestamp )
//  289 {
        FUNCALL afIncomingData, aps_FindGroupForEndpoint
        LOCFRAME ISTACK, 0, STACK
        LOCFRAME PSTACK, 0, STACK
        LOCFRAME XSTACK, 26, STACK
        LOCFRAME IOVERLAY, 0, STATIC
        LOCFRAME DOVERLAY, 0, STATIC
        ARGFRAME ISTACK, 0, STACK
        ARGFRAME PSTACK, 0, STACK
        ARGFRAME XSTACK, 26, STACK
        ARGFRAME IOVERLAY, 0, STATIC
        ARGFRAME DOVERLAY, 0, STATIC
        FUNCALL afIncomingData, afFindEndPointDesc
        LOCFRAME ISTACK, 0, STACK
        LOCFRAME PSTACK, 0, STACK
        LOCFRAME XSTACK, 26, STACK
        LOCFRAME IOVERLAY, 0, STATIC
        LOCFRAME DOVERLAY, 0, STATIC
        ARGFRAME ISTACK, 0, STACK
        ARGFRAME PSTACK, 0, STACK
        ARGFRAME XSTACK, 26, STACK
        ARGFRAME IOVERLAY, 0, STATIC
        ARGFRAME DOVERLAY, 0, STATIC
        FUNCALL afIncomingData, afFindEndPointDescList
        LOCFRAME ISTACK, 0, STACK
        LOCFRAME PSTACK, 0, STACK
        LOCFRAME XSTACK, 26, STACK
        LOCFRAME IOVERLAY, 0, STATIC
        LOCFRAME DOVERLAY, 0, STATIC
        ARGFRAME ISTACK, 0, STACK
        ARGFRAME PSTACK, 0, STACK
        ARGFRAME XSTACK, 26, STACK
        ARGFRAME IOVERLAY, 0, STATIC
        ARGFRAME DOVERLAY, 0, STATIC
        FUNCALL afIncomingData, afFindEndPointDesc
        LOCFRAME ISTACK, 0, STACK
        LOCFRAME PSTACK, 0, STACK
        LOCFRAME XSTACK, 26, STACK
        LOCFRAME IOVERLAY, 0, STATIC
        LOCFRAME DOVERLAY, 0, STATIC
        ARGFRAME ISTACK, 0, STACK
        ARGFRAME PSTACK, 0, STACK
        ARGFRAME XSTACK, 26, STACK
        ARGFRAME IOVERLAY, 0, STATIC
        ARGFRAME DOVERLAY, 0, STATIC
        FUNCALL afIncomingData, aps_FindGroupForEndpoint
        LOCFRAME ISTACK, 0, STACK
        LOCFRAME PSTACK, 0, STACK
        LOCFRAME XSTACK, 26, STACK
        LOCFRAME IOVERLAY, 0, STATIC
        LOCFRAME DOVERLAY, 0, STATIC
        ARGFRAME ISTACK, 0, STACK
        ARGFRAME PSTACK, 0, STACK
        ARGFRAME XSTACK, 26, STACK
        ARGFRAME IOVERLAY, 0, STATIC
        ARGFRAME DOVERLAY, 0, STATIC
        FUNCALL afIncomingData, afFindEndPointDesc
        LOCFRAME ISTACK, 0, STACK
        LOCFRAME PSTACK, 0, STACK
        LOCFRAME XSTACK, 26, STACK
        LOCFRAME IOVERLAY, 0, STATIC
        LOCFRAME DOVERLAY, 0, STATIC
        ARGFRAME ISTACK, 0, STACK
        ARGFRAME PSTACK, 0, STACK
        ARGFRAME XSTACK, 26, STACK
        ARGFRAME IOVERLAY, 0, STATIC
        ARGFRAME DOVERLAY, 0, STATIC
        FUNCALL afIncomingData, afFindEndPointDescList
        LOCFRAME ISTACK, 0, STACK
        LOCFRAME PSTACK, 0, STACK
        LOCFRAME XSTACK, 26, STACK
        LOCFRAME IOVERLAY, 0, STATIC
        LOCFRAME DOVERLAY, 0, STATIC
        ARGFRAME ISTACK, 0, STACK
        ARGFRAME PSTACK, 0, STACK
        ARGFRAME XSTACK, 26, STACK
        ARGFRAME IOVERLAY, 0, STATIC
        ARGFRAME DOVERLAY, 0, STATIC
        FUNCALL afIncomingData, osal_mem_free
        LOCFRAME ISTACK, 0, STACK
        LOCFRAME PSTACK, 0, STACK
        LOCFRAME XSTACK, 26, STACK
        LOCFRAME IOVERLAY, 0, STATIC
        LOCFRAME DOVERLAY, 0, STATIC
        ARGFRAME ISTACK, 0, STACK
        ARGFRAME PSTACK, 0, STACK
        ARGFRAME XSTACK, 26, STACK
        ARGFRAME IOVERLAY, 0, STATIC
        ARGFRAME DOVERLAY, 0, STATIC
        FUNCALL afIncomingData, afBuildMSGIncoming
        LOCFRAME ISTACK, 0, STACK
        LOCFRAME PSTACK, 0, STACK
        LOCFRAME XSTACK, 36, STACK
        LOCFRAME IOVERLAY, 0, STATIC
        LOCFRAME DOVERLAY, 0, STATIC
        ARGFRAME ISTACK, 0, STACK
        ARGFRAME PSTACK, 0, STACK
        ARGFRAME XSTACK, 36, STACK
        ARGFRAME IOVERLAY, 0, STATIC
        ARGFRAME DOVERLAY, 0, STATIC
        MOV     A,#-0x18
        LCALL   ?BANKED_ENTER_XDATA
        CFI DPH0 load(1, XDATA, add(CFA_XSP16, literal(-1)))
        CFI DPL0 load(1, XDATA, add(CFA_XSP16, literal(-2)))
        CFI ?BRET_EXT load(1, XDATA, add(CFA_XSP16, literal(-3)))
        CFI ?RET_HIGH load(1, XDATA, add(CFA_XSP16, literal(-4)))
        CFI ?RET_LOW load(1, XDATA, add(CFA_XSP16, literal(-5)))
        CFI R7 load(1, XDATA, add(CFA_XSP16, literal(-6)))
        CFI V15 load(1, XDATA, add(CFA_XSP16, literal(-7)))
        CFI V14 load(1, XDATA, add(CFA_XSP16, literal(-8)))
        CFI V13 load(1, XDATA, add(CFA_XSP16, literal(-9)))
        CFI V12 load(1, XDATA, add(CFA_XSP16, literal(-10)))
        CFI V11 load(1, XDATA, add(CFA_XSP16, literal(-11)))
        CFI V10 load(1, XDATA, add(CFA_XSP16, literal(-12)))
        CFI V9 load(1, XDATA, add(CFA_XSP16, literal(-13)))
        CFI V8 load(1, XDATA, add(CFA_XSP16, literal(-14)))
        CFI V7 load(1, XDATA, add(CFA_XSP16, literal(-15)))
        CFI V6 load(1, XDATA, add(CFA_XSP16, literal(-16)))
        CFI V5 load(1, XDATA, add(CFA_XSP16, literal(-17)))
        CFI V4 load(1, XDATA, add(CFA_XSP16, literal(-18)))
        CFI V3 load(1, XDATA, add(CFA_XSP16, literal(-19)))
        CFI V2 load(1, XDATA, add(CFA_XSP16, literal(-20)))
        CFI V1 load(1, XDATA, add(CFA_XSP16, literal(-21)))
        CFI V0 load(1, XDATA, add(CFA_XSP16, literal(-22)))
        CFI VB load(1, XDATA, add(CFA_XSP16, literal(-23)))
        CFI R6 load(1, XDATA, add(CFA_XSP16, literal(-24)))
        CFI CFA_SP SP+0
        CFI CFA_XSP16 add(XSP16, 24)
        ; Saved register size: 24
        ; Auto size: 2
        MOV     A,#-0x2
        LCALL   ?ALLOC_XSTACK8
        CFI CFA_XSP16 add(XSP16, 26)
        MOV     DPL,?XSP + 0
        MOV     DPH,?XSP + 1
        MOV     A,R4
        MOVX    @DPTR,A
        INC     DPTR
        MOV     A,R5
        MOVX    @DPTR,A
        MOV     ?V0 + 10,R2
        MOV     ?V0 + 11,R3
        MOV     ?V0 + 3,R1
        MOV     A,#0x1a
        LCALL   ?XSTACK_DISP0_8
        MOVX    A,@DPTR
        MOV     ?V0 + 8,A
        INC     DPTR
        MOVX    A,@DPTR
        MOV     ?V0 + 9,A
        MOV     A,#0x1e
        LCALL   ?XSTACK_DISP0_8
        MOV     R0,#?V0 + 4
        LCALL   ?L_MOV_X
//  290   endPointDesc_t *epDesc = NULL;
//  291   uint16 epProfileID = 0xFFFF;  // Invalid Profile ID
        MOV     ?V0 + 14,#-0x1
        MOV     ?V0 + 15,#-0x1
//  292   epList_t *pList = epList;
        MOV     DPTR,#epList
        MOVX    A,@DPTR
        MOV     ?V0 + 0,A
        INC     DPTR
        MOVX    A,@DPTR
        MOV     ?V0 + 1,A
//  293 #if !defined ( APS_NO_GROUPS )    
//  294   uint8 grpEp = APS_GROUPS_EP_NOT_FOUND;
        MOV     ?V0 + 2,#-0x2
        MOV     DPL,R2
        MOV     DPH,R3
        MOVX    A,@DPTR
        ANL     A,#0xc
        XRL     A,#0xc
        JNZ     ??afIncomingData_0
//  295 #endif  
//  296 
//  297   if ( ((aff->FrmCtrl & APS_DELIVERYMODE_MASK) == APS_FC_DM_GROUP) )
//  298   {
//  299 #if !defined ( APS_NO_GROUPS )    
//  300     // Find the first endpoint for this group
//  301     grpEp = aps_FindGroupForEndpoint( aff->GroupID, APS_GROUPS_FIND_FIRST );
        ; Setup parameters for call to function aps_FindGroupForEndpoint
        MOV     R1,#-0x2
        LCALL   ?Subroutine10 & 0xFFFF
//  302     if ( grpEp == APS_GROUPS_EP_NOT_FOUND )
??CrossCallReturnLabel_12:
        JNZ     $+5
        LJMP    ??afIncomingData_1 & 0xFFFF
//  303       return;   // No endpoint found
//  304 
//  305     epDesc = afFindEndPointDesc( grpEp );
        ; Setup parameters for call to function afFindEndPointDesc
        LCALL   ?Subroutine22 & 0xFFFF
//  306     if ( epDesc == NULL )
??CrossCallReturnLabel_37:
        JNZ     $+5
        LJMP    ??afIncomingData_1 & 0xFFFF
//  307       return;   // Endpoint descriptor not found
//  308 
//  309     pList = afFindEndPointDescList( epDesc->endPoint );
??afIncomingData_2:
        ; Setup parameters for call to function afFindEndPointDescList
        LCALL   ?Subroutine16 & 0xFFFF
//  310 #else
//  311     return; // Not supported
//  312 #endif    
//  313   }
??CrossCallReturnLabel_23:
        SJMP    ??afIncomingData_3
//  314   else if ( aff->DstEndPoint == AF_BROADCAST_ENDPOINT )
??afIncomingData_0:
        INC     DPTR
        INC     DPTR
        MOVX    A,@DPTR
        MOV     R1,A
        MOV     A,#-0x1
        XRL     A,R1
        JNZ     ??afIncomingData_4
//  315   {
//  316     // Set the list
//  317     if ( pList != NULL )
        MOV     A,?V0 + 0
        ORL     A,?V0 + 1
        JNZ     $+5
        LJMP    ??afIncomingData_1 & 0xFFFF
//  318     {
//  319       epDesc = pList->epDesc;
        SJMP    ??afIncomingData_5
//  320     }
//  321   }
//  322   else if ( (epDesc = afFindEndPointDesc( aff->DstEndPoint )) )
??afIncomingData_4:
        ; Setup parameters for call to function afFindEndPointDesc
        LCALL   ??afFindEndPointDesc?relay
        MOV     ?V0 + 12,R2
        MOV     ?V0 + 13,R3
        MOV     R0,?V0 + 12
        MOV     R1,?V0 + 13
        MOV     A,R0
        MOV     R6,A
        MOV     A,R1
        MOV     R7,A
        MOV     A,R0
        ORL     A,R1
        JZ      ??afIncomingData_3
        SJMP    ??afIncomingData_2
//  323   {
//  324     pList = afFindEndPointDescList( epDesc->endPoint );
//  325   }
//  326 
//  327   while ( epDesc )
//  328   {
//  329     if ( pList->pfnDescCB )
//  330     {
//  331       uint16 *pID = (uint16 *)(pList->pfnDescCB(
//  332                                  AF_DESCRIPTOR_PROFILE_ID, epDesc->endPoint ));
//  333       if ( pID )
//  334       {
//  335         epProfileID = *pID;
//  336         osal_mem_free( pID );
//  337       }
//  338     }
//  339     else if ( epDesc->simpleDesc )
//  340     {
//  341       epProfileID = epDesc->simpleDesc->AppProfId;
//  342     }
//  343 
//  344     if ( (aff->ProfileID == epProfileID) ||
//  345          ((epDesc->endPoint == ZDO_EP) && (aff->ProfileID == ZDO_PROFILE_ID)) )
//  346     {
//  347       {
//  348         afBuildMSGIncoming( aff, epDesc, SrcAddress, SrcPanId, sig, SecurityUse, timestamp );
//  349       }
//  350     }
//  351 
//  352     if ( ((aff->FrmCtrl & APS_DELIVERYMODE_MASK) == APS_FC_DM_GROUP) )
//  353     {
//  354 #if !defined ( APS_NO_GROUPS )      
//  355       // Find the next endpoint for this group
//  356       grpEp = aps_FindGroupForEndpoint( aff->GroupID, grpEp );
//  357       if ( grpEp == APS_GROUPS_EP_NOT_FOUND )
//  358         return;   // No endpoint found
//  359 
//  360       epDesc = afFindEndPointDesc( grpEp );
//  361       if ( epDesc == NULL )
//  362         return;   // Endpoint descriptor not found
//  363 
//  364       pList = afFindEndPointDescList( epDesc->endPoint );
//  365 #else
//  366       return;
//  367 #endif      
//  368     }
//  369     else if ( aff->DstEndPoint == AF_BROADCAST_ENDPOINT )
//  370     {
//  371       pList = pList->nextDesc;
//  372       if ( pList )
//  373         epDesc = pList->epDesc;
??afIncomingData_5:
        MOV     DPL,?V0 + 0
        MOV     DPH,?V0 + 1
        MOVX    A,@DPTR
        MOV     R6,A
        INC     DPTR
        MOVX    A,@DPTR
        MOV     R7,A
??afIncomingData_3:
        MOV     A,R6
        ORL     A,R7
        JNZ     $+5
        LJMP    ??afIncomingData_1 & 0xFFFF
        SJMP    ??CrossCallReturnLabel_24
??afIncomingData_6:
        ; Setup parameters for call to function aps_FindGroupForEndpoint
        MOV     R1,?V0 + 2
        LCALL   ?Subroutine10 & 0xFFFF
??CrossCallReturnLabel_13:
        JNZ     $+5
        LJMP    ??afIncomingData_1 & 0xFFFF
        ; Setup parameters for call to function afFindEndPointDesc
        LCALL   ?Subroutine22 & 0xFFFF
??CrossCallReturnLabel_38:
        JNZ     $+5
        LJMP    ??afIncomingData_1 & 0xFFFF
        ; Setup parameters for call to function afFindEndPointDescList
        LCALL   ?Subroutine16 & 0xFFFF
??CrossCallReturnLabel_24:
        MOV     DPL,?V0 + 0
        MOV     DPH,?V0 + 1
        INC     DPTR
        INC     DPTR
        INC     DPTR
        MOVX    A,@DPTR
        MOV     R4,A
        INC     DPTR
        MOVX    A,@DPTR
        MOV     R5,A
        MOV     A,R4
        ORL     A,R5
        MOV     DPL,R6
        MOV     DPH,R7
        JZ      ??afIncomingData_7
        ; Setup parameters for indirect call
        LCALL   ?Subroutine20 & 0xFFFF
??CrossCallReturnLabel_35:
        LCALL   ?CALL_IND
        MOV     A,R2
        ORL     A,R3
        JZ      ??CrossCallReturnLabel_19
        MOV     DPL,R2
        MOV     DPH,R3
        LCALL   ?Subroutine13 & 0xFFFF
??CrossCallReturnLabel_18:
        ; Setup parameters for call to function osal_mem_free
        LCALL   ??osal_mem_free?relay
        SJMP    ??CrossCallReturnLabel_19
??afIncomingData_7:
        LCALL   ?Subroutine12 & 0xFFFF
??CrossCallReturnLabel_16:
        JZ      ??CrossCallReturnLabel_19
        INC     DPTR
        LCALL   ?Subroutine13 & 0xFFFF
??CrossCallReturnLabel_19:
        MOV     DPL,?V0 + 10
        MOV     DPH,?V0 + 11
        LCALL   ?Subroutine15 & 0xFFFF
??CrossCallReturnLabel_77:
        MOV     A,?V0 + 14
        XRL     A,R0
        JNZ     ??afIncomingData_8
        MOV     A,?V0 + 15
        XRL     A,R1
??afIncomingData_8:
        JZ      ??afIncomingData_9
        MOV     DPL,R6
        MOV     DPH,R7
        MOVX    A,@DPTR
        JNZ     ??afIncomingData_10
        MOV     A,R0
        ORL     A,R1
        JNZ     ??afIncomingData_10
??afIncomingData_9:
        ; Setup parameters for call to function afBuildMSGIncoming
        MOV     R0,#?V0 + 4
        LCALL   ?PUSH_XSTACK_I_FOUR
        CFI CFA_XSP16 add(XSP16, 30)
        MOV     A,#0x20
        LCALL   ?XSTACK_DISP0_8
        LCALL   ?PUSH_XSTACK8_X_TWO
        CFI CFA_XSP16 add(XSP16, 32)
        MOV     R0,#?V0 + 8
        LCALL   ?PUSH_XSTACK_I_TWO
        CFI CFA_XSP16 add(XSP16, 34)
        MOV     A,#0x8
        LCALL   ?XSTACK_DISP0_8
        LCALL   ?PUSH_XSTACK8_X_TWO
        CFI CFA_XSP16 add(XSP16, 36)
        MOV     R1,?V0 + 3
        MOV     A,R6
        MOV     R4,A
        MOV     A,R7
        MOV     R5,A
        MOV     R2,?V0 + 10
        MOV     R3,?V0 + 11
        LCALL   ??afBuildMSGIncoming?relay
        MOV     A,#0xa
        LCALL   ?DEALLOC_XSTACK8
        CFI CFA_XSP16 add(XSP16, 26)
??afIncomingData_10:
        MOV     DPL,?V0 + 10
        MOV     DPH,?V0 + 11
        MOVX    A,@DPTR
        ANL     A,#0xc
        XRL     A,#0xc
        JNZ     $+5
        LJMP    ??afIncomingData_6 & 0xFFFF
        INC     DPTR
        INC     DPTR
        MOVX    A,@DPTR
        CPL     A
        JNZ     ??afIncomingData_1
        MOV     DPL,?V0 + 0
        MOV     DPH,?V0 + 1
        INC     DPTR
        INC     DPTR
        INC     DPTR
        INC     DPTR
        INC     DPTR
        MOVX    A,@DPTR
        MOV     ?V0 + 0,A
        INC     DPTR
        MOVX    A,@DPTR
        MOV     ?V0 + 1,A
        MOV     A,?V0 + 0
        ORL     A,?V0 + 1
        JZ      $+5
        LJMP    ??afIncomingData_5 & 0xFFFF
//  374       else
//  375         epDesc = NULL;
??afIncomingData_1:
        MOV     A,#0x2
        CFI EndBlock cfiBlock15
        REQUIRE ?Subroutine3
        ; // Fall through to label ?Subroutine3
//  376     }
//  377     else
//  378       epDesc = NULL;
//  379   }
//  380 }

        RSEG BANKED_CODE:CODE:NOROOT(0)
?Subroutine3:
        CFI Block cfiBlock16 Using cfiCommon0
        CFI NoFunction
        CFI CFA_SP SP+0
        CFI CFA_XSP16 add(XSP16, 26)
        CFI VB load(1, XDATA, add(CFA_XSP16, literal(-23)))
        CFI DPL0 load(1, XDATA, add(CFA_XSP16, literal(-2)))
        CFI DPH0 load(1, XDATA, add(CFA_XSP16, literal(-1)))
        CFI R6 load(1, XDATA, add(CFA_XSP16, literal(-24)))
        CFI R7 load(1, XDATA, add(CFA_XSP16, literal(-6)))
        CFI V0 load(1, XDATA, add(CFA_XSP16, literal(-22)))
        CFI V1 load(1, XDATA, add(CFA_XSP16, literal(-21)))
        CFI V2 load(1, XDATA, add(CFA_XSP16, literal(-20)))
        CFI V3 load(1, XDATA, add(CFA_XSP16, literal(-19)))
        CFI V4 load(1, XDATA, add(CFA_XSP16, literal(-18)))
        CFI V5 load(1, XDATA, add(CFA_XSP16, literal(-17)))
        CFI V6 load(1, XDATA, add(CFA_XSP16, literal(-16)))
        CFI V7 load(1, XDATA, add(CFA_XSP16, literal(-15)))
        CFI V8 load(1, XDATA, add(CFA_XSP16, literal(-14)))
        CFI V9 load(1, XDATA, add(CFA_XSP16, literal(-13)))
        CFI V10 load(1, XDATA, add(CFA_XSP16, literal(-12)))
        CFI V11 load(1, XDATA, add(CFA_XSP16, literal(-11)))
        CFI V12 load(1, XDATA, add(CFA_XSP16, literal(-10)))
        CFI V13 load(1, XDATA, add(CFA_XSP16, literal(-9)))
        CFI V14 load(1, XDATA, add(CFA_XSP16, literal(-8)))
        CFI V15 load(1, XDATA, add(CFA_XSP16, literal(-7)))
        CFI ?BRET_EXT load(1, XDATA, add(CFA_XSP16, literal(-3)))
        CFI ?RET_HIGH load(1, XDATA, add(CFA_XSP16, literal(-4)))
        CFI ?RET_LOW load(1, XDATA, add(CFA_XSP16, literal(-5)))
        CFI Invalid
        LCALL   ?DEALLOC_XSTACK8
        CFI CFA_XSP16 add(XSP16, 24)
        CFI Valid
        MOV     R7,#0x10
        LJMP    ?BANKED_LEAVE_XDATA
        CFI EndBlock cfiBlock16

        RSEG BANKED_CODE:CODE:NOROOT(0)
?Subroutine22:
        CFI Block cfiCond17 Using cfiCommon0
        CFI NoFunction
        CFI Conditional ??CrossCallReturnLabel_37
        CFI R6 load(1, XDATA, add(CFA_XSP16, literal(-24)))
        CFI VB load(1, XDATA, add(CFA_XSP16, literal(-23)))
        CFI V0 load(1, XDATA, add(CFA_XSP16, literal(-22)))
        CFI V1 load(1, XDATA, add(CFA_XSP16, literal(-21)))
        CFI V2 load(1, XDATA, add(CFA_XSP16, literal(-20)))
        CFI V3 load(1, XDATA, add(CFA_XSP16, literal(-19)))
        CFI V4 load(1, XDATA, add(CFA_XSP16, literal(-18)))
        CFI V5 load(1, XDATA, add(CFA_XSP16, literal(-17)))
        CFI V6 load(1, XDATA, add(CFA_XSP16, literal(-16)))
        CFI V7 load(1, XDATA, add(CFA_XSP16, literal(-15)))
        CFI V8 load(1, XDATA, add(CFA_XSP16, literal(-14)))
        CFI V9 load(1, XDATA, add(CFA_XSP16, literal(-13)))
        CFI V10 load(1, XDATA, add(CFA_XSP16, literal(-12)))
        CFI V11 load(1, XDATA, add(CFA_XSP16, literal(-11)))
        CFI V12 load(1, XDATA, add(CFA_XSP16, literal(-10)))
        CFI V13 load(1, XDATA, add(CFA_XSP16, literal(-9)))
        CFI V14 load(1, XDATA, add(CFA_XSP16, literal(-8)))
        CFI V15 load(1, XDATA, add(CFA_XSP16, literal(-7)))
        CFI R7 load(1, XDATA, add(CFA_XSP16, literal(-6)))
        CFI ?RET_LOW load(1, XDATA, add(CFA_XSP16, literal(-5)))
        CFI ?RET_HIGH load(1, XDATA, add(CFA_XSP16, literal(-4)))
        CFI ?BRET_EXT load(1, XDATA, add(CFA_XSP16, literal(-3)))
        CFI DPL0 load(1, XDATA, add(CFA_XSP16, literal(-2)))
        CFI DPH0 load(1, XDATA, add(CFA_XSP16, literal(-1)))
        CFI CFA_SP SP+0
        CFI CFA_XSP16 add(XSP16, 26)
        CFI Block cfiCond18 Using cfiCommon0
        CFI (cfiCond18) NoFunction
        CFI (cfiCond18) Conditional ??CrossCallReturnLabel_38
        CFI (cfiCond18) R6 load(1, XDATA, add(CFA_XSP16, literal(-24)))
        CFI (cfiCond18) VB load(1, XDATA, add(CFA_XSP16, literal(-23)))
        CFI (cfiCond18) V0 load(1, XDATA, add(CFA_XSP16, literal(-22)))
        CFI (cfiCond18) V1 load(1, XDATA, add(CFA_XSP16, literal(-21)))
        CFI (cfiCond18) V2 load(1, XDATA, add(CFA_XSP16, literal(-20)))
        CFI (cfiCond18) V3 load(1, XDATA, add(CFA_XSP16, literal(-19)))
        CFI (cfiCond18) V4 load(1, XDATA, add(CFA_XSP16, literal(-18)))
        CFI (cfiCond18) V5 load(1, XDATA, add(CFA_XSP16, literal(-17)))
        CFI (cfiCond18) V6 load(1, XDATA, add(CFA_XSP16, literal(-16)))
        CFI (cfiCond18) V7 load(1, XDATA, add(CFA_XSP16, literal(-15)))
        CFI (cfiCond18) V8 load(1, XDATA, add(CFA_XSP16, literal(-14)))
        CFI (cfiCond18) V9 load(1, XDATA, add(CFA_XSP16, literal(-13)))
        CFI (cfiCond18) V10 load(1, XDATA, add(CFA_XSP16, literal(-12)))
        CFI (cfiCond18) V11 load(1, XDATA, add(CFA_XSP16, literal(-11)))
        CFI (cfiCond18) V12 load(1, XDATA, add(CFA_XSP16, literal(-10)))
        CFI (cfiCond18) V13 load(1, XDATA, add(CFA_XSP16, literal(-9)))
        CFI (cfiCond18) V14 load(1, XDATA, add(CFA_XSP16, literal(-8)))
        CFI (cfiCond18) V15 load(1, XDATA, add(CFA_XSP16, literal(-7)))
        CFI (cfiCond18) R7 load(1, XDATA, add(CFA_XSP16, literal(-6)))
        CFI (cfiCond18) ?RET_LOW load(1, XDATA, add(CFA_XSP16, literal(-5)))
        CFI (cfiCond18) ?RET_HIGH load(1, XDATA, add(CFA_XSP16, literal(-4)))
        CFI (cfiCond18) ?BRET_EXT load(1, XDATA, add(CFA_XSP16, literal(-3)))
        CFI (cfiCond18) DPL0 load(1, XDATA, add(CFA_XSP16, literal(-2)))
        CFI (cfiCond18) DPH0 load(1, XDATA, add(CFA_XSP16, literal(-1)))
        CFI (cfiCond18) CFA_SP SP+0
        CFI (cfiCond18) CFA_XSP16 add(XSP16, 26)
        CFI Block cfiPicker19 Using cfiCommon1
        CFI (cfiPicker19) NoFunction
        CFI (cfiPicker19) Picker
        LCALL   ??afFindEndPointDesc?relay
        MOV     ?V0 + 0,R2
        MOV     ?V0 + 1,R3
        MOV     R6,?V0 + 0
        MOV     R7,?V0 + 1
        MOV     A,R6
        ORL     A,R7
        RET
        CFI EndBlock cfiCond17
        CFI EndBlock cfiCond18
        CFI EndBlock cfiPicker19

        RSEG BANKED_CODE:CODE:NOROOT(0)
?Subroutine16:
        CFI Block cfiCond20 Using cfiCommon0
        CFI NoFunction
        CFI Conditional ??CrossCallReturnLabel_23
        CFI R6 load(1, XDATA, add(CFA_XSP16, literal(-24)))
        CFI VB load(1, XDATA, add(CFA_XSP16, literal(-23)))
        CFI V0 load(1, XDATA, add(CFA_XSP16, literal(-22)))
        CFI V1 load(1, XDATA, add(CFA_XSP16, literal(-21)))
        CFI V2 load(1, XDATA, add(CFA_XSP16, literal(-20)))
        CFI V3 load(1, XDATA, add(CFA_XSP16, literal(-19)))
        CFI V4 load(1, XDATA, add(CFA_XSP16, literal(-18)))
        CFI V5 load(1, XDATA, add(CFA_XSP16, literal(-17)))
        CFI V6 load(1, XDATA, add(CFA_XSP16, literal(-16)))
        CFI V7 load(1, XDATA, add(CFA_XSP16, literal(-15)))
        CFI V8 load(1, XDATA, add(CFA_XSP16, literal(-14)))
        CFI V9 load(1, XDATA, add(CFA_XSP16, literal(-13)))
        CFI V10 load(1, XDATA, add(CFA_XSP16, literal(-12)))
        CFI V11 load(1, XDATA, add(CFA_XSP16, literal(-11)))
        CFI V12 load(1, XDATA, add(CFA_XSP16, literal(-10)))
        CFI V13 load(1, XDATA, add(CFA_XSP16, literal(-9)))
        CFI V14 load(1, XDATA, add(CFA_XSP16, literal(-8)))
        CFI V15 load(1, XDATA, add(CFA_XSP16, literal(-7)))
        CFI R7 load(1, XDATA, add(CFA_XSP16, literal(-6)))
        CFI ?RET_LOW load(1, XDATA, add(CFA_XSP16, literal(-5)))
        CFI ?RET_HIGH load(1, XDATA, add(CFA_XSP16, literal(-4)))
        CFI ?BRET_EXT load(1, XDATA, add(CFA_XSP16, literal(-3)))
        CFI DPL0 load(1, XDATA, add(CFA_XSP16, literal(-2)))
        CFI DPH0 load(1, XDATA, add(CFA_XSP16, literal(-1)))
        CFI CFA_SP SP+0
        CFI CFA_XSP16 add(XSP16, 26)
        CFI Block cfiCond21 Using cfiCommon0
        CFI (cfiCond21) NoFunction
        CFI (cfiCond21) Conditional ??CrossCallReturnLabel_24
        CFI (cfiCond21) R6 load(1, XDATA, add(CFA_XSP16, literal(-24)))
        CFI (cfiCond21) VB load(1, XDATA, add(CFA_XSP16, literal(-23)))
        CFI (cfiCond21) V0 load(1, XDATA, add(CFA_XSP16, literal(-22)))
        CFI (cfiCond21) V1 load(1, XDATA, add(CFA_XSP16, literal(-21)))
        CFI (cfiCond21) V2 load(1, XDATA, add(CFA_XSP16, literal(-20)))
        CFI (cfiCond21) V3 load(1, XDATA, add(CFA_XSP16, literal(-19)))
        CFI (cfiCond21) V4 load(1, XDATA, add(CFA_XSP16, literal(-18)))
        CFI (cfiCond21) V5 load(1, XDATA, add(CFA_XSP16, literal(-17)))
        CFI (cfiCond21) V6 load(1, XDATA, add(CFA_XSP16, literal(-16)))
        CFI (cfiCond21) V7 load(1, XDATA, add(CFA_XSP16, literal(-15)))
        CFI (cfiCond21) V8 load(1, XDATA, add(CFA_XSP16, literal(-14)))
        CFI (cfiCond21) V9 load(1, XDATA, add(CFA_XSP16, literal(-13)))
        CFI (cfiCond21) V10 load(1, XDATA, add(CFA_XSP16, literal(-12)))
        CFI (cfiCond21) V11 load(1, XDATA, add(CFA_XSP16, literal(-11)))
        CFI (cfiCond21) V12 load(1, XDATA, add(CFA_XSP16, literal(-10)))
        CFI (cfiCond21) V13 load(1, XDATA, add(CFA_XSP16, literal(-9)))
        CFI (cfiCond21) V14 load(1, XDATA, add(CFA_XSP16, literal(-8)))
        CFI (cfiCond21) V15 load(1, XDATA, add(CFA_XSP16, literal(-7)))
        CFI (cfiCond21) R7 load(1, XDATA, add(CFA_XSP16, literal(-6)))
        CFI (cfiCond21) ?RET_LOW load(1, XDATA, add(CFA_XSP16, literal(-5)))
        CFI (cfiCond21) ?RET_HIGH load(1, XDATA, add(CFA_XSP16, literal(-4)))
        CFI (cfiCond21) ?BRET_EXT load(1, XDATA, add(CFA_XSP16, literal(-3)))
        CFI (cfiCond21) DPL0 load(1, XDATA, add(CFA_XSP16, literal(-2)))
        CFI (cfiCond21) DPH0 load(1, XDATA, add(CFA_XSP16, literal(-1)))
        CFI (cfiCond21) CFA_SP SP+0
        CFI (cfiCond21) CFA_XSP16 add(XSP16, 26)
        CFI Block cfiPicker22 Using cfiCommon1
        CFI (cfiPicker22) NoFunction
        CFI (cfiPicker22) Picker
        MOV     DPL,R6
        MOV     DPH,R7
        MOVX    A,@DPTR
        MOV     R1,A
        LCALL   ??afFindEndPointDescList?relay
        MOV     ?V0 + 0,R2
        MOV     ?V0 + 1,R3
        RET
        CFI EndBlock cfiCond20
        CFI EndBlock cfiCond21
        CFI EndBlock cfiPicker22

        RSEG BANKED_CODE:CODE:NOROOT(0)
?Subroutine10:
        CFI Block cfiCond23 Using cfiCommon0
        CFI NoFunction
        CFI Conditional ??CrossCallReturnLabel_12
        CFI R6 load(1, XDATA, add(CFA_XSP16, literal(-24)))
        CFI VB load(1, XDATA, add(CFA_XSP16, literal(-23)))
        CFI V0 load(1, XDATA, add(CFA_XSP16, literal(-22)))
        CFI V1 load(1, XDATA, add(CFA_XSP16, literal(-21)))
        CFI V2 load(1, XDATA, add(CFA_XSP16, literal(-20)))
        CFI V3 load(1, XDATA, add(CFA_XSP16, literal(-19)))
        CFI V4 load(1, XDATA, add(CFA_XSP16, literal(-18)))
        CFI V5 load(1, XDATA, add(CFA_XSP16, literal(-17)))
        CFI V6 load(1, XDATA, add(CFA_XSP16, literal(-16)))
        CFI V7 load(1, XDATA, add(CFA_XSP16, literal(-15)))
        CFI V8 load(1, XDATA, add(CFA_XSP16, literal(-14)))
        CFI V9 load(1, XDATA, add(CFA_XSP16, literal(-13)))
        CFI V10 load(1, XDATA, add(CFA_XSP16, literal(-12)))
        CFI V11 load(1, XDATA, add(CFA_XSP16, literal(-11)))
        CFI V12 load(1, XDATA, add(CFA_XSP16, literal(-10)))
        CFI V13 load(1, XDATA, add(CFA_XSP16, literal(-9)))
        CFI V14 load(1, XDATA, add(CFA_XSP16, literal(-8)))
        CFI V15 load(1, XDATA, add(CFA_XSP16, literal(-7)))
        CFI R7 load(1, XDATA, add(CFA_XSP16, literal(-6)))
        CFI ?RET_LOW load(1, XDATA, add(CFA_XSP16, literal(-5)))
        CFI ?RET_HIGH load(1, XDATA, add(CFA_XSP16, literal(-4)))
        CFI ?BRET_EXT load(1, XDATA, add(CFA_XSP16, literal(-3)))
        CFI DPL0 load(1, XDATA, add(CFA_XSP16, literal(-2)))
        CFI DPH0 load(1, XDATA, add(CFA_XSP16, literal(-1)))
        CFI CFA_SP SP+0
        CFI CFA_XSP16 add(XSP16, 26)
        CFI Block cfiCond24 Using cfiCommon0
        CFI (cfiCond24) NoFunction
        CFI (cfiCond24) Conditional ??CrossCallReturnLabel_13
        CFI (cfiCond24) R6 load(1, XDATA, add(CFA_XSP16, literal(-24)))
        CFI (cfiCond24) VB load(1, XDATA, add(CFA_XSP16, literal(-23)))
        CFI (cfiCond24) V0 load(1, XDATA, add(CFA_XSP16, literal(-22)))
        CFI (cfiCond24) V1 load(1, XDATA, add(CFA_XSP16, literal(-21)))
        CFI (cfiCond24) V2 load(1, XDATA, add(CFA_XSP16, literal(-20)))
        CFI (cfiCond24) V3 load(1, XDATA, add(CFA_XSP16, literal(-19)))
        CFI (cfiCond24) V4 load(1, XDATA, add(CFA_XSP16, literal(-18)))
        CFI (cfiCond24) V5 load(1, XDATA, add(CFA_XSP16, literal(-17)))
        CFI (cfiCond24) V6 load(1, XDATA, add(CFA_XSP16, literal(-16)))
        CFI (cfiCond24) V7 load(1, XDATA, add(CFA_XSP16, literal(-15)))
        CFI (cfiCond24) V8 load(1, XDATA, add(CFA_XSP16, literal(-14)))
        CFI (cfiCond24) V9 load(1, XDATA, add(CFA_XSP16, literal(-13)))
        CFI (cfiCond24) V10 load(1, XDATA, add(CFA_XSP16, literal(-12)))
        CFI (cfiCond24) V11 load(1, XDATA, add(CFA_XSP16, literal(-11)))
        CFI (cfiCond24) V12 load(1, XDATA, add(CFA_XSP16, literal(-10)))
        CFI (cfiCond24) V13 load(1, XDATA, add(CFA_XSP16, literal(-9)))
        CFI (cfiCond24) V14 load(1, XDATA, add(CFA_XSP16, literal(-8)))
        CFI (cfiCond24) V15 load(1, XDATA, add(CFA_XSP16, literal(-7)))
        CFI (cfiCond24) R7 load(1, XDATA, add(CFA_XSP16, literal(-6)))
        CFI (cfiCond24) ?RET_LOW load(1, XDATA, add(CFA_XSP16, literal(-5)))
        CFI (cfiCond24) ?RET_HIGH load(1, XDATA, add(CFA_XSP16, literal(-4)))
        CFI (cfiCond24) ?BRET_EXT load(1, XDATA, add(CFA_XSP16, literal(-3)))
        CFI (cfiCond24) DPL0 load(1, XDATA, add(CFA_XSP16, literal(-2)))
        CFI (cfiCond24) DPH0 load(1, XDATA, add(CFA_XSP16, literal(-1)))
        CFI (cfiCond24) CFA_SP SP+0
        CFI (cfiCond24) CFA_XSP16 add(XSP16, 26)
        CFI Block cfiPicker25 Using cfiCommon1
        CFI (cfiPicker25) NoFunction
        CFI (cfiPicker25) Picker
        INC     DPTR
        INC     DPTR
        INC     DPTR
        INC     DPTR
        MOVX    A,@DPTR
        MOV     R2,A
        INC     DPTR
        MOVX    A,@DPTR
        MOV     R3,A
        LCALL   ??aps_FindGroupForEndpoint?relay
        MOV     A,R1
        MOV     ?V0 + 2,A
        MOV     A,#-0x2
        XRL     A,?V0 + 2
        RET
        CFI EndBlock cfiCond23
        CFI EndBlock cfiCond24
        CFI EndBlock cfiPicker25
//  381 
//  382 /*********************************************************************
//  383  * @fn          afBuildMSGIncoming
//  384  *
//  385  * @brief       Build the message for the app
//  386  *
//  387  * @param
//  388  *
//  389  * @return      pointer to next in data buffer
//  390  */

        RSEG BANKED_CODE:CODE:NOROOT(0)
//  391 static void afBuildMSGIncoming( aps_FrameFormat_t *aff, endPointDesc_t *epDesc,
afBuildMSGIncoming:
        CFI Block cfiBlock26 Using cfiCommon0
        CFI Function afBuildMSGIncoming
        CODE
//  392                  zAddrType_t *SrcAddress, uint16 SrcPanId, NLDE_Signal_t *sig, 
//  393                  byte SecurityUse, uint32 timestamp )
//  394 {
        FUNCALL afBuildMSGIncoming, osal_msg_allocate
        LOCFRAME ISTACK, 0, STACK
        LOCFRAME PSTACK, 0, STACK
        LOCFRAME XSTACK, 25, STACK
        LOCFRAME IOVERLAY, 0, STATIC
        LOCFRAME DOVERLAY, 0, STATIC
        ARGFRAME ISTACK, 0, STACK
        ARGFRAME PSTACK, 0, STACK
        ARGFRAME XSTACK, 25, STACK
        ARGFRAME IOVERLAY, 0, STATIC
        ARGFRAME DOVERLAY, 0, STATIC
        FUNCALL afBuildMSGIncoming, afCopyAddress
        LOCFRAME ISTACK, 0, STACK
        LOCFRAME PSTACK, 0, STACK
        LOCFRAME XSTACK, 25, STACK
        LOCFRAME IOVERLAY, 0, STATIC
        LOCFRAME DOVERLAY, 0, STATIC
        ARGFRAME ISTACK, 0, STACK
        ARGFRAME PSTACK, 0, STACK
        ARGFRAME XSTACK, 25, STACK
        ARGFRAME IOVERLAY, 0, STATIC
        ARGFRAME DOVERLAY, 0, STATIC
        FUNCALL afBuildMSGIncoming, osal_memcpy
        LOCFRAME ISTACK, 0, STACK
        LOCFRAME PSTACK, 0, STACK
        LOCFRAME XSTACK, 28, STACK
        LOCFRAME IOVERLAY, 0, STATIC
        LOCFRAME DOVERLAY, 0, STATIC
        ARGFRAME ISTACK, 0, STACK
        ARGFRAME PSTACK, 0, STACK
        ARGFRAME XSTACK, 28, STACK
        ARGFRAME IOVERLAY, 0, STATIC
        ARGFRAME DOVERLAY, 0, STATIC
        FUNCALL afBuildMSGIncoming, osal_msg_send
        LOCFRAME ISTACK, 0, STACK
        LOCFRAME PSTACK, 0, STACK
        LOCFRAME XSTACK, 25, STACK
        LOCFRAME IOVERLAY, 0, STATIC
        LOCFRAME DOVERLAY, 0, STATIC
        ARGFRAME ISTACK, 0, STACK
        ARGFRAME PSTACK, 0, STACK
        ARGFRAME XSTACK, 25, STACK
        ARGFRAME IOVERLAY, 0, STATIC
        ARGFRAME DOVERLAY, 0, STATIC
        MOV     A,#-0x18
        LCALL   ?BANKED_ENTER_XDATA
        CFI DPH0 load(1, XDATA, add(CFA_XSP16, literal(-1)))
        CFI DPL0 load(1, XDATA, add(CFA_XSP16, literal(-2)))
        CFI ?BRET_EXT load(1, XDATA, add(CFA_XSP16, literal(-3)))
        CFI ?RET_HIGH load(1, XDATA, add(CFA_XSP16, literal(-4)))
        CFI ?RET_LOW load(1, XDATA, add(CFA_XSP16, literal(-5)))
        CFI R7 load(1, XDATA, add(CFA_XSP16, literal(-6)))
        CFI V15 load(1, XDATA, add(CFA_XSP16, literal(-7)))
        CFI V14 load(1, XDATA, add(CFA_XSP16, literal(-8)))
        CFI V13 load(1, XDATA, add(CFA_XSP16, literal(-9)))
        CFI V12 load(1, XDATA, add(CFA_XSP16, literal(-10)))
        CFI V11 load(1, XDATA, add(CFA_XSP16, literal(-11)))
        CFI V10 load(1, XDATA, add(CFA_XSP16, literal(-12)))
        CFI V9 load(1, XDATA, add(CFA_XSP16, literal(-13)))
        CFI V8 load(1, XDATA, add(CFA_XSP16, literal(-14)))
        CFI V7 load(1, XDATA, add(CFA_XSP16, literal(-15)))
        CFI V6 load(1, XDATA, add(CFA_XSP16, literal(-16)))
        CFI V5 load(1, XDATA, add(CFA_XSP16, literal(-17)))
        CFI V4 load(1, XDATA, add(CFA_XSP16, literal(-18)))
        CFI V3 load(1, XDATA, add(CFA_XSP16, literal(-19)))
        CFI V2 load(1, XDATA, add(CFA_XSP16, literal(-20)))
        CFI V1 load(1, XDATA, add(CFA_XSP16, literal(-21)))
        CFI V0 load(1, XDATA, add(CFA_XSP16, literal(-22)))
        CFI VB load(1, XDATA, add(CFA_XSP16, literal(-23)))
        CFI R6 load(1, XDATA, add(CFA_XSP16, literal(-24)))
        CFI CFA_SP SP+0
        CFI CFA_XSP16 add(XSP16, 24)
        ; Saved register size: 24
        ; Auto size: 1
        MOV     A,#-0x1
        LCALL   ?ALLOC_XSTACK8
        CFI CFA_XSP16 add(XSP16, 25)
        MOV     A,R1
        MOV     DPL,?XSP + 0
        MOV     DPH,?XSP + 1
        MOVX    @DPTR,A
        MOV     ?V0 + 0,R2
        MOV     ?V0 + 1,R3
        MOV     ?V0 + 10,R4
        MOV     ?V0 + 11,R5
        MOV     A,#0x1d
        LCALL   ?XSTACK_DISP0_8
        MOVX    A,@DPTR
        MOV     ?V0 + 2,A
        INC     DPTR
        MOVX    A,@DPTR
        MOV     ?V0 + 3,A
        MOV     A,#0x1f
        LCALL   ?XSTACK_DISP0_8
        MOV     R0,#?V0 + 4
        LCALL   ?L_MOV_X
//  395   afIncomingMSGPacket_t *MSGpkt;
//  396   const byte len = sizeof( afIncomingMSGPacket_t ) + aff->asduLength;
//  397   byte *asdu = aff->asdu;
        MOV     A,R2
        ADD     A,#0xe
        MOV     DPL,A
        MOV     A,R3
        LCALL   ??Subroutine30_0 & 0xFFFF
??CrossCallReturnLabel_57:
        LCALL   ?Subroutine13 & 0xFFFF
//  398   MSGpkt = (afIncomingMSGPacket_t *)osal_msg_allocate( len );
??CrossCallReturnLabel_20:
        MOV     A,R2
        ADD     A,#0x10
        MOV     ?V0 + 8,A
        MOV     A,R3
        ADDC    A,#0x0
        MOV     ?V0 + 9,A
        ; Setup parameters for call to function osal_msg_allocate
        MOV     DPL,?V0 + 8
        MOV     DPH,A
        MOVX    A,@DPTR
        ADD     A,#0x23
        MOV     R2,A
        MOV     R3,#0x0
        LCALL   ??osal_msg_allocate?relay
        MOV     ?V0 + 12,R2
        MOV     ?V0 + 13,R3
        MOV     R6,?V0 + 12
        MOV     R7,?V0 + 13
//  399 
//  400   if ( MSGpkt == NULL )
        MOV     A,R6
        ORL     A,R7
        JNZ     $+5
        LJMP    ??CrossCallReturnLabel_15 & 0xFFFF
//  401   {
//  402     return;
//  403   }
//  404 
//  405   MSGpkt->hdr.event = AF_INCOMING_MSG_CMD;
        MOV     DPL,R6
        MOV     DPH,R7
        MOV     A,#0x1a
        MOVX    @DPTR,A
//  406   MSGpkt->groupId = aff->GroupID;
        MOV     DPL,?V0 + 0
        MOV     DPH,?V0 + 1
        LCALL   ?Subroutine14 & 0xFFFF
??CrossCallReturnLabel_21:
        LCALL   ??Subroutine29_0 & 0xFFFF
//  407   MSGpkt->clusterId = aff->ClusterID;
??CrossCallReturnLabel_48:
        MOV     DPL,?V0 + 0
        MOV     DPH,?V0 + 1
        INC     DPTR
        INC     DPTR
        LCALL   ?Subroutine14 & 0xFFFF
??CrossCallReturnLabel_22:
        INC     DPTR
        INC     DPTR
        LCALL   ??Subroutine29_0 & 0xFFFF
//  408   afCopyAddress( &MSGpkt->srcAddr, SrcAddress );
??CrossCallReturnLabel_49:
        ; Setup parameters for call to function afCopyAddress
        MOV     A,#0x19
        LCALL   ?XSTACK_DISP0_8
        MOVX    A,@DPTR
        MOV     R4,A
        INC     DPTR
        MOVX    A,@DPTR
        MOV     R5,A
        MOV     A,R6
        ADD     A,#0x6
        MOV     R2,A
        MOV     A,R7
        ADDC    A,#0x0
        MOV     R3,A
        LCALL   ??afCopyAddress?relay
//  409   MSGpkt->srcAddr.endPoint = aff->SrcEndPoint;
        MOV     DPL,?V0 + 0
        MOV     DPH,?V0 + 1
        INC     DPTR
        INC     DPTR
        INC     DPTR
        MOVX    A,@DPTR
        PUSH    A
        CFI CFA_SP SP+-1
        MOV     A,R6
        ADD     A,#0xf
        LCALL   ?Subroutine21 & 0xFFFF
??CrossCallReturnLabel_60:
        POP     A
        CFI CFA_SP SP+0
        MOVX    @DPTR,A
//  410   MSGpkt->endPoint = epDesc->endPoint;
        MOV     DPL,?V0 + 10
        MOV     DPH,?V0 + 11
        MOVX    A,@DPTR
        PUSH    A
        CFI CFA_SP SP+-1
        MOV     A,R6
        ADD     A,#0x14
        LCALL   ?Subroutine21 & 0xFFFF
??CrossCallReturnLabel_61:
        POP     A
        CFI CFA_SP SP+0
        MOVX    @DPTR,A
//  411   MSGpkt->wasBroadcast = aff->wasBroadcast;
        MOV     A,?V0 + 0
        ADD     A,#0xc
        MOV     DPL,A
        MOV     A,?V0 + 1
        LCALL   ??Subroutine30_0 & 0xFFFF
??CrossCallReturnLabel_58:
        MOVX    A,@DPTR
        PUSH    A
        CFI CFA_SP SP+-1
        MOV     A,R6
        ADD     A,#0x15
        LCALL   ?Subroutine21 & 0xFFFF
??CrossCallReturnLabel_62:
        POP     A
        CFI CFA_SP SP+0
        MOVX    @DPTR,A
//  412   MSGpkt->LinkQuality = sig->LinkQuality;
        MOV     DPL,?V0 + 2
        MOV     DPH,?V0 + 3
        MOVX    A,@DPTR
        PUSH    A
        CFI CFA_SP SP+-1
        MOV     A,R6
        ADD     A,#0x16
        LCALL   ?Subroutine21 & 0xFFFF
??CrossCallReturnLabel_63:
        POP     A
        CFI CFA_SP SP+0
        LCALL   ?Subroutine8 & 0xFFFF
//  413   MSGpkt->correlation = sig->correlation;
??CrossCallReturnLabel_6:
        MOVX    A,@DPTR
        PUSH    A
        CFI CFA_SP SP+-1
        MOV     A,R6
        ADD     A,#0x17
        LCALL   ?Subroutine21 & 0xFFFF
??CrossCallReturnLabel_64:
        POP     A
        CFI CFA_SP SP+0
        LCALL   ?Subroutine8 & 0xFFFF
//  414   MSGpkt->rssi = sig->rssi;
??CrossCallReturnLabel_7:
        INC     DPTR
        MOVX    A,@DPTR
        PUSH    A
        CFI CFA_SP SP+-1
        MOV     A,R6
        ADD     A,#0x18
        LCALL   ?Subroutine21 & 0xFFFF
??CrossCallReturnLabel_65:
        POP     A
        CFI CFA_SP SP+0
        LCALL   ?Subroutine7 & 0xFFFF
//  415   MSGpkt->SecurityUse = SecurityUse;
??CrossCallReturnLabel_3:
        MOVX    A,@DPTR
        PUSH    A
        CFI CFA_SP SP+-1
        MOV     A,R6
        ADD     A,#0x19
        LCALL   ?Subroutine21 & 0xFFFF
??CrossCallReturnLabel_66:
        POP     A
        CFI CFA_SP SP+0
        MOVX    @DPTR,A
//  416   MSGpkt->timestamp = timestamp;
        MOV     A,R6
        ADD     A,#0x1a
        LCALL   ?Subroutine21 & 0xFFFF
??CrossCallReturnLabel_67:
        MOV     R0,#?V0 + 4
        LCALL   ?L_MOV_TO_X
//  417   MSGpkt->macDestAddr = aff->macDestAddr;
        MOV     DPL,?V0 + 0
        MOV     DPH,?V0 + 1
        INC     DPTR
        INC     DPTR
        LCALL   ?Subroutine15 & 0xFFFF
??CrossCallReturnLabel_78:
        MOV     A,R6
        ADD     A,#0x12
        LCALL   ?Subroutine6 & 0xFFFF
//  418   MSGpkt->srcAddr.panId = SrcPanId;
??CrossCallReturnLabel_55:
        MOV     A,#0x1b
        LCALL   ?XSTACK_DISP0_8
        LCALL   ??Subroutine32_0 & 0xFFFF
??CrossCallReturnLabel_70:
        MOV     A,R6
        ADD     A,#0x10
        LCALL   ?Subroutine6 & 0xFFFF
//  419   MSGpkt->cmd.TransSeqNumber = 0;
??CrossCallReturnLabel_56:
        MOV     A,R6
        ADD     A,#0x1e
        LCALL   ?Subroutine21 & 0xFFFF
??CrossCallReturnLabel_68:
        CLR     A
        MOVX    @DPTR,A
//  420   MSGpkt->cmd.DataLength = aff->asduLength;
        MOV     DPL,?V0 + 8
        MOV     DPH,?V0 + 9
        MOVX    A,@DPTR
        MOV     R4,A
        MOV     R5,#0x0
        MOV     A,R6
        ADD     A,#0x1f
        LCALL   ?Subroutine21 & 0xFFFF
??CrossCallReturnLabel_69:
        MOV     A,R4
        MOVX    @DPTR,A
        INC     DPTR
        CLR     A
        MOVX    @DPTR,A
//  421 
//  422   if ( MSGpkt->cmd.DataLength )
        MOV     A,R6
        ADD     A,#0x21
        MOV     R0,A
        MOV     A,R7
        ADDC    A,#0x0
        MOV     R1,A
        MOV     A,R0
        MOV     R2,A
        MOV     A,R1
        MOV     R3,A
        MOV     A,R4
        JZ      ??afBuildMSGIncoming_0
//  423   {
//  424     MSGpkt->cmd.Data = (byte *)(MSGpkt + 1);
        MOV     A,R6
        ADD     A,#0x23
        INC     R0
        INC     R0
        MOV     A,R7
        ADDC    A,#0x0
        MOV     R1,A
        MOV     DPL,R2
        MOV     DPH,R3
        LCALL   ??Subroutine29_0 & 0xFFFF
//  425     osal_memcpy( MSGpkt->cmd.Data, asdu, MSGpkt->cmd.DataLength );
??CrossCallReturnLabel_50:
        ; Setup parameters for call to function osal_memcpy
        MOV     ?V0 + 0,?V0 + 14
        MOV     ?V0 + 1,?V0 + 15
        MOV     ?V0 + 2,R5
        MOV     R0,#?V0 + 0
        LCALL   ?PUSH_XSTACK_I_THREE
        CFI CFA_XSP16 add(XSP16, 28)
        MOV     DPL,R2
        MOV     DPH,R3
        LCALL   ?Subroutine18 & 0xFFFF
//  426   }
??CrossCallReturnLabel_27:
        LCALL   ??osal_memcpy?relay
        MOV     A,#0x3
        LCALL   ?DEALLOC_XSTACK8
        CFI CFA_XSP16 add(XSP16, 25)
        SJMP    ??afBuildMSGIncoming_1
//  427   else
//  428   {
//  429     MSGpkt->cmd.Data = NULL;
??afBuildMSGIncoming_0:
        MOV     DPL,R2
        MOV     DPH,R3
        CLR     A
        MOVX    @DPTR,A
        INC     DPTR
        MOVX    @DPTR,A
//  430   }
//  431 
//  432 #if defined ( MT_AF_CB_FUNC )
//  433   // If ZDO or SAPI have registered for this endpoint, dont intercept it here
//  434   if (AFCB_CHECK(CB_ID_AF_DATA_IND, *(epDesc->task_id)))
//  435   {
//  436     MT_AfIncomingMsg( (void *)MSGpkt );
//  437     // Release the memory.
//  438     osal_msg_deallocate( (void *)MSGpkt );
//  439   }
//  440   else
//  441 #endif
//  442   {
//  443     // Send message through task message.
//  444     osal_msg_send( *(epDesc->task_id), (uint8 *)MSGpkt );
??afBuildMSGIncoming_1:
        ; Setup parameters for call to function osal_msg_send
        MOV     A,R6
        MOV     R2,A
        MOV     A,R7
        MOV     R3,A
        MOV     DPL,?V0 + 10
        MOV     DPH,?V0 + 11
        LCALL   ?Subroutine11 & 0xFFFF
//  445   }
//  446 }
??CrossCallReturnLabel_15:
        MOV     A,#0x1
        LJMP    ?Subroutine3 & 0xFFFF
        CFI EndBlock cfiBlock26

        RSEG BANKED_CODE:CODE:NOROOT(0)
?Subroutine14:
        CFI Block cfiCond27 Using cfiCommon0
        CFI NoFunction
        CFI Conditional ??CrossCallReturnLabel_21
        CFI R6 load(1, XDATA, add(CFA_XSP16, literal(-24)))
        CFI VB load(1, XDATA, add(CFA_XSP16, literal(-23)))
        CFI V0 load(1, XDATA, add(CFA_XSP16, literal(-22)))
        CFI V1 load(1, XDATA, add(CFA_XSP16, literal(-21)))
        CFI V2 load(1, XDATA, add(CFA_XSP16, literal(-20)))
        CFI V3 load(1, XDATA, add(CFA_XSP16, literal(-19)))
        CFI V4 load(1, XDATA, add(CFA_XSP16, literal(-18)))
        CFI V5 load(1, XDATA, add(CFA_XSP16, literal(-17)))
        CFI V6 load(1, XDATA, add(CFA_XSP16, literal(-16)))
        CFI V7 load(1, XDATA, add(CFA_XSP16, literal(-15)))
        CFI V8 load(1, XDATA, add(CFA_XSP16, literal(-14)))
        CFI V9 load(1, XDATA, add(CFA_XSP16, literal(-13)))
        CFI V10 load(1, XDATA, add(CFA_XSP16, literal(-12)))
        CFI V11 load(1, XDATA, add(CFA_XSP16, literal(-11)))
        CFI V12 load(1, XDATA, add(CFA_XSP16, literal(-10)))
        CFI V13 load(1, XDATA, add(CFA_XSP16, literal(-9)))
        CFI V14 load(1, XDATA, add(CFA_XSP16, literal(-8)))
        CFI V15 load(1, XDATA, add(CFA_XSP16, literal(-7)))
        CFI R7 load(1, XDATA, add(CFA_XSP16, literal(-6)))
        CFI ?RET_LOW load(1, XDATA, add(CFA_XSP16, literal(-5)))
        CFI ?RET_HIGH load(1, XDATA, add(CFA_XSP16, literal(-4)))
        CFI ?BRET_EXT load(1, XDATA, add(CFA_XSP16, literal(-3)))
        CFI DPL0 load(1, XDATA, add(CFA_XSP16, literal(-2)))
        CFI DPH0 load(1, XDATA, add(CFA_XSP16, literal(-1)))
        CFI CFA_SP SP+0
        CFI CFA_XSP16 add(XSP16, 25)
        CFI Block cfiCond28 Using cfiCommon0
        CFI (cfiCond28) NoFunction
        CFI (cfiCond28) Conditional ??CrossCallReturnLabel_22
        CFI (cfiCond28) R6 load(1, XDATA, add(CFA_XSP16, literal(-24)))
        CFI (cfiCond28) VB load(1, XDATA, add(CFA_XSP16, literal(-23)))
        CFI (cfiCond28) V0 load(1, XDATA, add(CFA_XSP16, literal(-22)))
        CFI (cfiCond28) V1 load(1, XDATA, add(CFA_XSP16, literal(-21)))
        CFI (cfiCond28) V2 load(1, XDATA, add(CFA_XSP16, literal(-20)))
        CFI (cfiCond28) V3 load(1, XDATA, add(CFA_XSP16, literal(-19)))
        CFI (cfiCond28) V4 load(1, XDATA, add(CFA_XSP16, literal(-18)))
        CFI (cfiCond28) V5 load(1, XDATA, add(CFA_XSP16, literal(-17)))
        CFI (cfiCond28) V6 load(1, XDATA, add(CFA_XSP16, literal(-16)))
        CFI (cfiCond28) V7 load(1, XDATA, add(CFA_XSP16, literal(-15)))
        CFI (cfiCond28) V8 load(1, XDATA, add(CFA_XSP16, literal(-14)))
        CFI (cfiCond28) V9 load(1, XDATA, add(CFA_XSP16, literal(-13)))
        CFI (cfiCond28) V10 load(1, XDATA, add(CFA_XSP16, literal(-12)))
        CFI (cfiCond28) V11 load(1, XDATA, add(CFA_XSP16, literal(-11)))
        CFI (cfiCond28) V12 load(1, XDATA, add(CFA_XSP16, literal(-10)))
        CFI (cfiCond28) V13 load(1, XDATA, add(CFA_XSP16, literal(-9)))
        CFI (cfiCond28) V14 load(1, XDATA, add(CFA_XSP16, literal(-8)))
        CFI (cfiCond28) V15 load(1, XDATA, add(CFA_XSP16, literal(-7)))
        CFI (cfiCond28) R7 load(1, XDATA, add(CFA_XSP16, literal(-6)))
        CFI (cfiCond28) ?RET_LOW load(1, XDATA, add(CFA_XSP16, literal(-5)))
        CFI (cfiCond28) ?RET_HIGH load(1, XDATA, add(CFA_XSP16, literal(-4)))
        CFI (cfiCond28) ?BRET_EXT load(1, XDATA, add(CFA_XSP16, literal(-3)))
        CFI (cfiCond28) DPL0 load(1, XDATA, add(CFA_XSP16, literal(-2)))
        CFI (cfiCond28) DPH0 load(1, XDATA, add(CFA_XSP16, literal(-1)))
        CFI (cfiCond28) CFA_SP SP+0
        CFI (cfiCond28) CFA_XSP16 add(XSP16, 25)
        CFI Block cfiPicker29 Using cfiCommon1
        CFI (cfiPicker29) NoFunction
        CFI (cfiPicker29) Picker
        INC     DPTR
        LCALL   ?Subroutine25 & 0xFFFF
??CrossCallReturnLabel_81:
        MOV     DPL,R6
        MOV     DPH,R7
        INC     DPTR
        INC     DPTR
        RET
        CFI EndBlock cfiCond27
        CFI EndBlock cfiCond28
        CFI EndBlock cfiPicker29

        RSEG BANKED_CODE:CODE:NOROOT(0)
?Subroutine25:
        CFI Block cfiCond30 Using cfiCommon0
        CFI NoFunction
        CFI Conditional ??CrossCallReturnLabel_81, ??CrossCallReturnLabel_21
        CFI R6 load(1, XDATA, add(CFA_XSP16, literal(-24)))
        CFI VB load(1, XDATA, add(CFA_XSP16, literal(-23)))
        CFI V0 load(1, XDATA, add(CFA_XSP16, literal(-22)))
        CFI V1 load(1, XDATA, add(CFA_XSP16, literal(-21)))
        CFI V2 load(1, XDATA, add(CFA_XSP16, literal(-20)))
        CFI V3 load(1, XDATA, add(CFA_XSP16, literal(-19)))
        CFI V4 load(1, XDATA, add(CFA_XSP16, literal(-18)))
        CFI V5 load(1, XDATA, add(CFA_XSP16, literal(-17)))
        CFI V6 load(1, XDATA, add(CFA_XSP16, literal(-16)))
        CFI V7 load(1, XDATA, add(CFA_XSP16, literal(-15)))
        CFI V8 load(1, XDATA, add(CFA_XSP16, literal(-14)))
        CFI V9 load(1, XDATA, add(CFA_XSP16, literal(-13)))
        CFI V10 load(1, XDATA, add(CFA_XSP16, literal(-12)))
        CFI V11 load(1, XDATA, add(CFA_XSP16, literal(-11)))
        CFI V12 load(1, XDATA, add(CFA_XSP16, literal(-10)))
        CFI V13 load(1, XDATA, add(CFA_XSP16, literal(-9)))
        CFI V14 load(1, XDATA, add(CFA_XSP16, literal(-8)))
        CFI V15 load(1, XDATA, add(CFA_XSP16, literal(-7)))
        CFI R7 load(1, XDATA, add(CFA_XSP16, literal(-6)))
        CFI ?RET_LOW load(1, XDATA, add(CFA_XSP16, literal(-5)))
        CFI ?RET_HIGH load(1, XDATA, add(CFA_XSP16, literal(-4)))
        CFI ?BRET_EXT load(1, XDATA, add(CFA_XSP16, literal(-3)))
        CFI DPL0 load(1, XDATA, add(CFA_XSP16, literal(-2)))
        CFI DPH0 load(1, XDATA, add(CFA_XSP16, literal(-1)))
        CFI CFA_SP SP+0
        CFI CFA_XSP16 add(XSP16, 25)
        CFI Block cfiCond31 Using cfiCommon0
        CFI (cfiCond31) NoFunction
        CFI (cfiCond31) Conditional ??CrossCallReturnLabel_81, ??CrossCallReturnLabel_22
        CFI (cfiCond31) R6 load(1, XDATA, add(CFA_XSP16, literal(-24)))
        CFI (cfiCond31) VB load(1, XDATA, add(CFA_XSP16, literal(-23)))
        CFI (cfiCond31) V0 load(1, XDATA, add(CFA_XSP16, literal(-22)))
        CFI (cfiCond31) V1 load(1, XDATA, add(CFA_XSP16, literal(-21)))
        CFI (cfiCond31) V2 load(1, XDATA, add(CFA_XSP16, literal(-20)))
        CFI (cfiCond31) V3 load(1, XDATA, add(CFA_XSP16, literal(-19)))
        CFI (cfiCond31) V4 load(1, XDATA, add(CFA_XSP16, literal(-18)))
        CFI (cfiCond31) V5 load(1, XDATA, add(CFA_XSP16, literal(-17)))
        CFI (cfiCond31) V6 load(1, XDATA, add(CFA_XSP16, literal(-16)))
        CFI (cfiCond31) V7 load(1, XDATA, add(CFA_XSP16, literal(-15)))
        CFI (cfiCond31) V8 load(1, XDATA, add(CFA_XSP16, literal(-14)))
        CFI (cfiCond31) V9 load(1, XDATA, add(CFA_XSP16, literal(-13)))
        CFI (cfiCond31) V10 load(1, XDATA, add(CFA_XSP16, literal(-12)))
        CFI (cfiCond31) V11 load(1, XDATA, add(CFA_XSP16, literal(-11)))
        CFI (cfiCond31) V12 load(1, XDATA, add(CFA_XSP16, literal(-10)))
        CFI (cfiCond31) V13 load(1, XDATA, add(CFA_XSP16, literal(-9)))
        CFI (cfiCond31) V14 load(1, XDATA, add(CFA_XSP16, literal(-8)))
        CFI (cfiCond31) V15 load(1, XDATA, add(CFA_XSP16, literal(-7)))
        CFI (cfiCond31) R7 load(1, XDATA, add(CFA_XSP16, literal(-6)))
        CFI (cfiCond31) ?RET_LOW load(1, XDATA, add(CFA_XSP16, literal(-5)))
        CFI (cfiCond31) ?RET_HIGH load(1, XDATA, add(CFA_XSP16, literal(-4)))
        CFI (cfiCond31) ?BRET_EXT load(1, XDATA, add(CFA_XSP16, literal(-3)))
        CFI (cfiCond31) DPL0 load(1, XDATA, add(CFA_XSP16, literal(-2)))
        CFI (cfiCond31) DPH0 load(1, XDATA, add(CFA_XSP16, literal(-1)))
        CFI (cfiCond31) CFA_SP SP+0
        CFI (cfiCond31) CFA_XSP16 add(XSP16, 25)
        CFI Block cfiCond32 Using cfiCommon0
        CFI (cfiCond32) NoFunction
        CFI (cfiCond32) Conditional ??CrossCallReturnLabel_80, ??CrossCallReturnLabel_16
        CFI (cfiCond32) R6 load(1, XDATA, add(CFA_XSP16, literal(-24)))
        CFI (cfiCond32) VB load(1, XDATA, add(CFA_XSP16, literal(-23)))
        CFI (cfiCond32) V0 load(1, XDATA, add(CFA_XSP16, literal(-22)))
        CFI (cfiCond32) V1 load(1, XDATA, add(CFA_XSP16, literal(-21)))
        CFI (cfiCond32) V2 load(1, XDATA, add(CFA_XSP16, literal(-20)))
        CFI (cfiCond32) V3 load(1, XDATA, add(CFA_XSP16, literal(-19)))
        CFI (cfiCond32) V4 load(1, XDATA, add(CFA_XSP16, literal(-18)))
        CFI (cfiCond32) V5 load(1, XDATA, add(CFA_XSP16, literal(-17)))
        CFI (cfiCond32) V6 load(1, XDATA, add(CFA_XSP16, literal(-16)))
        CFI (cfiCond32) V7 load(1, XDATA, add(CFA_XSP16, literal(-15)))
        CFI (cfiCond32) V8 load(1, XDATA, add(CFA_XSP16, literal(-14)))
        CFI (cfiCond32) V9 load(1, XDATA, add(CFA_XSP16, literal(-13)))
        CFI (cfiCond32) V10 load(1, XDATA, add(CFA_XSP16, literal(-12)))
        CFI (cfiCond32) V11 load(1, XDATA, add(CFA_XSP16, literal(-11)))
        CFI (cfiCond32) V12 load(1, XDATA, add(CFA_XSP16, literal(-10)))
        CFI (cfiCond32) V13 load(1, XDATA, add(CFA_XSP16, literal(-9)))
        CFI (cfiCond32) V14 load(1, XDATA, add(CFA_XSP16, literal(-8)))
        CFI (cfiCond32) V15 load(1, XDATA, add(CFA_XSP16, literal(-7)))
        CFI (cfiCond32) R7 load(1, XDATA, add(CFA_XSP16, literal(-6)))
        CFI (cfiCond32) ?RET_LOW load(1, XDATA, add(CFA_XSP16, literal(-5)))
        CFI (cfiCond32) ?RET_HIGH load(1, XDATA, add(CFA_XSP16, literal(-4)))
        CFI (cfiCond32) ?BRET_EXT load(1, XDATA, add(CFA_XSP16, literal(-3)))
        CFI (cfiCond32) DPL0 load(1, XDATA, add(CFA_XSP16, literal(-2)))
        CFI (cfiCond32) DPH0 load(1, XDATA, add(CFA_XSP16, literal(-1)))
        CFI (cfiCond32) CFA_SP SP+0
        CFI (cfiCond32) CFA_XSP16 add(XSP16, 26)
        CFI Block cfiCond33 Using cfiCommon0
        CFI (cfiCond33) NoFunction
        CFI (cfiCond33) Conditional ??CrossCallReturnLabel_80, ??CrossCallReturnLabel_17
        CFI (cfiCond33) R6 load(1, XDATA, add(CFA_XSP16, literal(-22)))
        CFI (cfiCond33) VB load(1, XDATA, add(CFA_XSP16, literal(-21)))
        CFI (cfiCond33) V0 load(1, XDATA, add(CFA_XSP16, literal(-20)))
        CFI (cfiCond33) V1 load(1, XDATA, add(CFA_XSP16, literal(-19)))
        CFI (cfiCond33) V2 load(1, XDATA, add(CFA_XSP16, literal(-18)))
        CFI (cfiCond33) V3 load(1, XDATA, add(CFA_XSP16, literal(-17)))
        CFI (cfiCond33) V4 load(1, XDATA, add(CFA_XSP16, literal(-16)))
        CFI (cfiCond33) V5 load(1, XDATA, add(CFA_XSP16, literal(-15)))
        CFI (cfiCond33) V6 load(1, XDATA, add(CFA_XSP16, literal(-14)))
        CFI (cfiCond33) V7 load(1, XDATA, add(CFA_XSP16, literal(-13)))
        CFI (cfiCond33) V8 load(1, XDATA, add(CFA_XSP16, literal(-12)))
        CFI (cfiCond33) V9 load(1, XDATA, add(CFA_XSP16, literal(-11)))
        CFI (cfiCond33) V10 load(1, XDATA, add(CFA_XSP16, literal(-10)))
        CFI (cfiCond33) V11 load(1, XDATA, add(CFA_XSP16, literal(-9)))
        CFI (cfiCond33) V12 load(1, XDATA, add(CFA_XSP16, literal(-8)))
        CFI (cfiCond33) V13 load(1, XDATA, add(CFA_XSP16, literal(-7)))
        CFI (cfiCond33) R7 load(1, XDATA, add(CFA_XSP16, literal(-6)))
        CFI (cfiCond33) ?RET_LOW load(1, XDATA, add(CFA_XSP16, literal(-5)))
        CFI (cfiCond33) ?RET_HIGH load(1, XDATA, add(CFA_XSP16, literal(-4)))
        CFI (cfiCond33) ?BRET_EXT load(1, XDATA, add(CFA_XSP16, literal(-3)))
        CFI (cfiCond33) DPL0 load(1, XDATA, add(CFA_XSP16, literal(-2)))
        CFI (cfiCond33) DPH0 load(1, XDATA, add(CFA_XSP16, literal(-1)))
        CFI (cfiCond33) CFA_SP SP+0
        CFI (cfiCond33) CFA_XSP16 add(XSP16, 52)
        CFI Block cfiPicker34 Using cfiCommon1
        CFI (cfiPicker34) NoFunction
        CFI (cfiPicker34) Picker
        INC     DPTR
        INC     DPTR
        INC     DPTR
        CFI EndBlock cfiCond30
        CFI EndBlock cfiCond31
        CFI EndBlock cfiCond32
        CFI EndBlock cfiCond33
        CFI EndBlock cfiPicker34
        REQUIRE ??Subroutine28_0
        ; // Fall through to label ??Subroutine28_0

        RSEG BANKED_CODE:CODE:NOROOT(0)
??Subroutine28_0:
        CFI Block cfiCond35 Using cfiCommon0
        CFI NoFunction
        CFI Conditional ??CrossCallReturnLabel_79, ??CrossCallReturnLabel_9
        CFI R6 load(1, XDATA, add(CFA_XSP16, literal(-12)))
        CFI VB load(1, XDATA, add(CFA_XSP16, literal(-11)))
        CFI V0 load(1, XDATA, add(CFA_XSP16, literal(-10)))
        CFI V1 load(1, XDATA, add(CFA_XSP16, literal(-9)))
        CFI V2 load(1, XDATA, add(CFA_XSP16, literal(-8)))
        CFI V3 load(1, XDATA, add(CFA_XSP16, literal(-7)))
        CFI R7 load(1, XDATA, add(CFA_XSP16, literal(-6)))
        CFI ?RET_LOW load(1, XDATA, add(CFA_XSP16, literal(-5)))
        CFI ?RET_HIGH load(1, XDATA, add(CFA_XSP16, literal(-4)))
        CFI ?BRET_EXT load(1, XDATA, add(CFA_XSP16, literal(-3)))
        CFI DPL0 load(1, XDATA, add(CFA_XSP16, literal(-2)))
        CFI DPH0 load(1, XDATA, add(CFA_XSP16, literal(-1)))
        CFI CFA_SP SP+0
        CFI CFA_XSP16 add(XSP16, 12)
        CFI Block cfiCond36 Using cfiCommon0
        CFI (cfiCond36) NoFunction
        CFI (cfiCond36) Conditional ??CrossCallReturnLabel_79, ??CrossCallReturnLabel_10
        CFI (cfiCond36) R6 load(1, XDATA, add(CFA_XSP16, literal(-12)))
        CFI (cfiCond36) VB load(1, XDATA, add(CFA_XSP16, literal(-11)))
        CFI (cfiCond36) V0 load(1, XDATA, add(CFA_XSP16, literal(-10)))
        CFI (cfiCond36) V1 load(1, XDATA, add(CFA_XSP16, literal(-9)))
        CFI (cfiCond36) V2 load(1, XDATA, add(CFA_XSP16, literal(-8)))
        CFI (cfiCond36) V3 load(1, XDATA, add(CFA_XSP16, literal(-7)))
        CFI (cfiCond36) R7 load(1, XDATA, add(CFA_XSP16, literal(-6)))
        CFI (cfiCond36) ?RET_LOW load(1, XDATA, add(CFA_XSP16, literal(-5)))
        CFI (cfiCond36) ?RET_HIGH load(1, XDATA, add(CFA_XSP16, literal(-4)))
        CFI (cfiCond36) ?BRET_EXT load(1, XDATA, add(CFA_XSP16, literal(-3)))
        CFI (cfiCond36) DPL0 load(1, XDATA, add(CFA_XSP16, literal(-2)))
        CFI (cfiCond36) DPH0 load(1, XDATA, add(CFA_XSP16, literal(-1)))
        CFI (cfiCond36) CFA_SP SP+0
        CFI (cfiCond36) CFA_XSP16 add(XSP16, 12)
        CFI Block cfiCond37 Using cfiCommon0
        CFI (cfiCond37) NoFunction
        CFI (cfiCond37) Conditional ??CrossCallReturnLabel_79, ??CrossCallReturnLabel_8
        CFI (cfiCond37) R6 load(1, XDATA, add(CFA_XSP16, literal(-22)))
        CFI (cfiCond37) VB load(1, XDATA, add(CFA_XSP16, literal(-21)))
        CFI (cfiCond37) V0 load(1, XDATA, add(CFA_XSP16, literal(-20)))
        CFI (cfiCond37) V1 load(1, XDATA, add(CFA_XSP16, literal(-19)))
        CFI (cfiCond37) V2 load(1, XDATA, add(CFA_XSP16, literal(-18)))
        CFI (cfiCond37) V3 load(1, XDATA, add(CFA_XSP16, literal(-17)))
        CFI (cfiCond37) V4 load(1, XDATA, add(CFA_XSP16, literal(-16)))
        CFI (cfiCond37) V5 load(1, XDATA, add(CFA_XSP16, literal(-15)))
        CFI (cfiCond37) V6 load(1, XDATA, add(CFA_XSP16, literal(-14)))
        CFI (cfiCond37) V7 load(1, XDATA, add(CFA_XSP16, literal(-13)))
        CFI (cfiCond37) V8 load(1, XDATA, add(CFA_XSP16, literal(-12)))
        CFI (cfiCond37) V9 load(1, XDATA, add(CFA_XSP16, literal(-11)))
        CFI (cfiCond37) V10 load(1, XDATA, add(CFA_XSP16, literal(-10)))
        CFI (cfiCond37) V11 load(1, XDATA, add(CFA_XSP16, literal(-9)))
        CFI (cfiCond37) V12 load(1, XDATA, add(CFA_XSP16, literal(-8)))
        CFI (cfiCond37) V13 load(1, XDATA, add(CFA_XSP16, literal(-7)))
        CFI (cfiCond37) R7 load(1, XDATA, add(CFA_XSP16, literal(-6)))
        CFI (cfiCond37) ?RET_LOW load(1, XDATA, add(CFA_XSP16, literal(-5)))
        CFI (cfiCond37) ?RET_HIGH load(1, XDATA, add(CFA_XSP16, literal(-4)))
        CFI (cfiCond37) ?BRET_EXT load(1, XDATA, add(CFA_XSP16, literal(-3)))
        CFI (cfiCond37) DPL0 load(1, XDATA, add(CFA_XSP16, literal(-2)))
        CFI (cfiCond37) DPH0 load(1, XDATA, add(CFA_XSP16, literal(-1)))
        CFI (cfiCond37) CFA_SP SP+0
        CFI (cfiCond37) CFA_XSP16 add(XSP16, 52)
        CFI Block cfiCond38 Using cfiCommon0
        CFI (cfiCond38) NoFunction
        CFI (cfiCond38) Conditional ??CrossCallReturnLabel_79, ??CrossCallReturnLabel_11
        CFI (cfiCond38) R6 load(1, XDATA, add(CFA_XSP16, literal(-22)))
        CFI (cfiCond38) VB load(1, XDATA, add(CFA_XSP16, literal(-21)))
        CFI (cfiCond38) V0 load(1, XDATA, add(CFA_XSP16, literal(-20)))
        CFI (cfiCond38) V1 load(1, XDATA, add(CFA_XSP16, literal(-19)))
        CFI (cfiCond38) V2 load(1, XDATA, add(CFA_XSP16, literal(-18)))
        CFI (cfiCond38) V3 load(1, XDATA, add(CFA_XSP16, literal(-17)))
        CFI (cfiCond38) V4 load(1, XDATA, add(CFA_XSP16, literal(-16)))
        CFI (cfiCond38) V5 load(1, XDATA, add(CFA_XSP16, literal(-15)))
        CFI (cfiCond38) V6 load(1, XDATA, add(CFA_XSP16, literal(-14)))
        CFI (cfiCond38) V7 load(1, XDATA, add(CFA_XSP16, literal(-13)))
        CFI (cfiCond38) V8 load(1, XDATA, add(CFA_XSP16, literal(-12)))
        CFI (cfiCond38) V9 load(1, XDATA, add(CFA_XSP16, literal(-11)))
        CFI (cfiCond38) V10 load(1, XDATA, add(CFA_XSP16, literal(-10)))
        CFI (cfiCond38) V11 load(1, XDATA, add(CFA_XSP16, literal(-9)))
        CFI (cfiCond38) V12 load(1, XDATA, add(CFA_XSP16, literal(-8)))
        CFI (cfiCond38) V13 load(1, XDATA, add(CFA_XSP16, literal(-7)))
        CFI (cfiCond38) R7 load(1, XDATA, add(CFA_XSP16, literal(-6)))
        CFI (cfiCond38) ?RET_LOW load(1, XDATA, add(CFA_XSP16, literal(-5)))
        CFI (cfiCond38) ?RET_HIGH load(1, XDATA, add(CFA_XSP16, literal(-4)))
        CFI (cfiCond38) ?BRET_EXT load(1, XDATA, add(CFA_XSP16, literal(-3)))
        CFI (cfiCond38) DPL0 load(1, XDATA, add(CFA_XSP16, literal(-2)))
        CFI (cfiCond38) DPH0 load(1, XDATA, add(CFA_XSP16, literal(-1)))
        CFI (cfiCond38) CFA_SP SP+0
        CFI (cfiCond38) CFA_XSP16 add(XSP16, 52)
        CFI Block cfiCond39 Using cfiCommon0
        CFI (cfiCond39) NoFunction
        CFI (cfiCond39) Conditional ??CrossCallReturnLabel_82, ??CrossCallReturnLabel_77
        CFI (cfiCond39) R6 load(1, XDATA, add(CFA_XSP16, literal(-24)))
        CFI (cfiCond39) VB load(1, XDATA, add(CFA_XSP16, literal(-23)))
        CFI (cfiCond39) V0 load(1, XDATA, add(CFA_XSP16, literal(-22)))
        CFI (cfiCond39) V1 load(1, XDATA, add(CFA_XSP16, literal(-21)))
        CFI (cfiCond39) V2 load(1, XDATA, add(CFA_XSP16, literal(-20)))
        CFI (cfiCond39) V3 load(1, XDATA, add(CFA_XSP16, literal(-19)))
        CFI (cfiCond39) V4 load(1, XDATA, add(CFA_XSP16, literal(-18)))
        CFI (cfiCond39) V5 load(1, XDATA, add(CFA_XSP16, literal(-17)))
        CFI (cfiCond39) V6 load(1, XDATA, add(CFA_XSP16, literal(-16)))
        CFI (cfiCond39) V7 load(1, XDATA, add(CFA_XSP16, literal(-15)))
        CFI (cfiCond39) V8 load(1, XDATA, add(CFA_XSP16, literal(-14)))
        CFI (cfiCond39) V9 load(1, XDATA, add(CFA_XSP16, literal(-13)))
        CFI (cfiCond39) V10 load(1, XDATA, add(CFA_XSP16, literal(-12)))
        CFI (cfiCond39) V11 load(1, XDATA, add(CFA_XSP16, literal(-11)))
        CFI (cfiCond39) V12 load(1, XDATA, add(CFA_XSP16, literal(-10)))
        CFI (cfiCond39) V13 load(1, XDATA, add(CFA_XSP16, literal(-9)))
        CFI (cfiCond39) V14 load(1, XDATA, add(CFA_XSP16, literal(-8)))
        CFI (cfiCond39) V15 load(1, XDATA, add(CFA_XSP16, literal(-7)))
        CFI (cfiCond39) R7 load(1, XDATA, add(CFA_XSP16, literal(-6)))
        CFI (cfiCond39) ?RET_LOW load(1, XDATA, add(CFA_XSP16, literal(-5)))
        CFI (cfiCond39) ?RET_HIGH load(1, XDATA, add(CFA_XSP16, literal(-4)))
        CFI (cfiCond39) ?BRET_EXT load(1, XDATA, add(CFA_XSP16, literal(-3)))
        CFI (cfiCond39) DPL0 load(1, XDATA, add(CFA_XSP16, literal(-2)))
        CFI (cfiCond39) DPH0 load(1, XDATA, add(CFA_XSP16, literal(-1)))
        CFI (cfiCond39) CFA_SP SP+0
        CFI (cfiCond39) CFA_XSP16 add(XSP16, 26)
        CFI Block cfiCond40 Using cfiCommon0
        CFI (cfiCond40) NoFunction
        CFI (cfiCond40) Conditional ??CrossCallReturnLabel_82, ??CrossCallReturnLabel_78
        CFI (cfiCond40) R6 load(1, XDATA, add(CFA_XSP16, literal(-24)))
        CFI (cfiCond40) VB load(1, XDATA, add(CFA_XSP16, literal(-23)))
        CFI (cfiCond40) V0 load(1, XDATA, add(CFA_XSP16, literal(-22)))
        CFI (cfiCond40) V1 load(1, XDATA, add(CFA_XSP16, literal(-21)))
        CFI (cfiCond40) V2 load(1, XDATA, add(CFA_XSP16, literal(-20)))
        CFI (cfiCond40) V3 load(1, XDATA, add(CFA_XSP16, literal(-19)))
        CFI (cfiCond40) V4 load(1, XDATA, add(CFA_XSP16, literal(-18)))
        CFI (cfiCond40) V5 load(1, XDATA, add(CFA_XSP16, literal(-17)))
        CFI (cfiCond40) V6 load(1, XDATA, add(CFA_XSP16, literal(-16)))
        CFI (cfiCond40) V7 load(1, XDATA, add(CFA_XSP16, literal(-15)))
        CFI (cfiCond40) V8 load(1, XDATA, add(CFA_XSP16, literal(-14)))
        CFI (cfiCond40) V9 load(1, XDATA, add(CFA_XSP16, literal(-13)))
        CFI (cfiCond40) V10 load(1, XDATA, add(CFA_XSP16, literal(-12)))
        CFI (cfiCond40) V11 load(1, XDATA, add(CFA_XSP16, literal(-11)))
        CFI (cfiCond40) V12 load(1, XDATA, add(CFA_XSP16, literal(-10)))
        CFI (cfiCond40) V13 load(1, XDATA, add(CFA_XSP16, literal(-9)))
        CFI (cfiCond40) V14 load(1, XDATA, add(CFA_XSP16, literal(-8)))
        CFI (cfiCond40) V15 load(1, XDATA, add(CFA_XSP16, literal(-7)))
        CFI (cfiCond40) R7 load(1, XDATA, add(CFA_XSP16, literal(-6)))
        CFI (cfiCond40) ?RET_LOW load(1, XDATA, add(CFA_XSP16, literal(-5)))
        CFI (cfiCond40) ?RET_HIGH load(1, XDATA, add(CFA_XSP16, literal(-4)))
        CFI (cfiCond40) ?BRET_EXT load(1, XDATA, add(CFA_XSP16, literal(-3)))
        CFI (cfiCond40) DPL0 load(1, XDATA, add(CFA_XSP16, literal(-2)))
        CFI (cfiCond40) DPH0 load(1, XDATA, add(CFA_XSP16, literal(-1)))
        CFI (cfiCond40) CFA_SP SP+0
        CFI (cfiCond40) CFA_XSP16 add(XSP16, 25)
        CFI Block cfiCond41 Using cfiCommon0
        CFI (cfiCond41) NoFunction
        CFI (cfiCond41) Conditional ??CrossCallReturnLabel_82, ??CrossCallReturnLabel_76
        CFI (cfiCond41) R6 load(1, XDATA, add(CFA_XSP16, literal(-22)))
        CFI (cfiCond41) VB load(1, XDATA, add(CFA_XSP16, literal(-21)))
        CFI (cfiCond41) V0 load(1, XDATA, add(CFA_XSP16, literal(-20)))
        CFI (cfiCond41) V1 load(1, XDATA, add(CFA_XSP16, literal(-19)))
        CFI (cfiCond41) V2 load(1, XDATA, add(CFA_XSP16, literal(-18)))
        CFI (cfiCond41) V3 load(1, XDATA, add(CFA_XSP16, literal(-17)))
        CFI (cfiCond41) V4 load(1, XDATA, add(CFA_XSP16, literal(-16)))
        CFI (cfiCond41) V5 load(1, XDATA, add(CFA_XSP16, literal(-15)))
        CFI (cfiCond41) V6 load(1, XDATA, add(CFA_XSP16, literal(-14)))
        CFI (cfiCond41) V7 load(1, XDATA, add(CFA_XSP16, literal(-13)))
        CFI (cfiCond41) V8 load(1, XDATA, add(CFA_XSP16, literal(-12)))
        CFI (cfiCond41) V9 load(1, XDATA, add(CFA_XSP16, literal(-11)))
        CFI (cfiCond41) V10 load(1, XDATA, add(CFA_XSP16, literal(-10)))
        CFI (cfiCond41) V11 load(1, XDATA, add(CFA_XSP16, literal(-9)))
        CFI (cfiCond41) V12 load(1, XDATA, add(CFA_XSP16, literal(-8)))
        CFI (cfiCond41) V13 load(1, XDATA, add(CFA_XSP16, literal(-7)))
        CFI (cfiCond41) R7 load(1, XDATA, add(CFA_XSP16, literal(-6)))
        CFI (cfiCond41) ?RET_LOW load(1, XDATA, add(CFA_XSP16, literal(-5)))
        CFI (cfiCond41) ?RET_HIGH load(1, XDATA, add(CFA_XSP16, literal(-4)))
        CFI (cfiCond41) ?BRET_EXT load(1, XDATA, add(CFA_XSP16, literal(-3)))
        CFI (cfiCond41) DPL0 load(1, XDATA, add(CFA_XSP16, literal(-2)))
        CFI (cfiCond41) DPH0 load(1, XDATA, add(CFA_XSP16, literal(-1)))
        CFI (cfiCond41) CFA_SP SP+0
        CFI (cfiCond41) CFA_XSP16 add(XSP16, 52)
        CFI Block cfiCond42 Using cfiCommon0
        CFI (cfiCond42) NoFunction
        CFI (cfiCond42) Conditional ??CrossCallReturnLabel_82, ??CrossCallReturnLabel_70
        CFI (cfiCond42) R6 load(1, XDATA, add(CFA_XSP16, literal(-24)))
        CFI (cfiCond42) VB load(1, XDATA, add(CFA_XSP16, literal(-23)))
        CFI (cfiCond42) V0 load(1, XDATA, add(CFA_XSP16, literal(-22)))
        CFI (cfiCond42) V1 load(1, XDATA, add(CFA_XSP16, literal(-21)))
        CFI (cfiCond42) V2 load(1, XDATA, add(CFA_XSP16, literal(-20)))
        CFI (cfiCond42) V3 load(1, XDATA, add(CFA_XSP16, literal(-19)))
        CFI (cfiCond42) V4 load(1, XDATA, add(CFA_XSP16, literal(-18)))
        CFI (cfiCond42) V5 load(1, XDATA, add(CFA_XSP16, literal(-17)))
        CFI (cfiCond42) V6 load(1, XDATA, add(CFA_XSP16, literal(-16)))
        CFI (cfiCond42) V7 load(1, XDATA, add(CFA_XSP16, literal(-15)))
        CFI (cfiCond42) V8 load(1, XDATA, add(CFA_XSP16, literal(-14)))
        CFI (cfiCond42) V9 load(1, XDATA, add(CFA_XSP16, literal(-13)))
        CFI (cfiCond42) V10 load(1, XDATA, add(CFA_XSP16, literal(-12)))
        CFI (cfiCond42) V11 load(1, XDATA, add(CFA_XSP16, literal(-11)))
        CFI (cfiCond42) V12 load(1, XDATA, add(CFA_XSP16, literal(-10)))
        CFI (cfiCond42) V13 load(1, XDATA, add(CFA_XSP16, literal(-9)))
        CFI (cfiCond42) V14 load(1, XDATA, add(CFA_XSP16, literal(-8)))
        CFI (cfiCond42) V15 load(1, XDATA, add(CFA_XSP16, literal(-7)))
        CFI (cfiCond42) R7 load(1, XDATA, add(CFA_XSP16, literal(-6)))
        CFI (cfiCond42) ?RET_LOW load(1, XDATA, add(CFA_XSP16, literal(-5)))
        CFI (cfiCond42) ?RET_HIGH load(1, XDATA, add(CFA_XSP16, literal(-4)))
        CFI (cfiCond42) ?BRET_EXT load(1, XDATA, add(CFA_XSP16, literal(-3)))
        CFI (cfiCond42) DPL0 load(1, XDATA, add(CFA_XSP16, literal(-2)))
        CFI (cfiCond42) DPH0 load(1, XDATA, add(CFA_XSP16, literal(-1)))
        CFI (cfiCond42) CFA_SP SP+0
        CFI (cfiCond42) CFA_XSP16 add(XSP16, 25)
        CFI Block cfiCond43 Using cfiCommon0
        CFI (cfiCond43) NoFunction
        CFI (cfiCond43) Conditional ??CrossCallReturnLabel_82, ??CrossCallReturnLabel_71
        CFI (cfiCond43) R6 load(1, XDATA, add(CFA_XSP16, literal(-22)))
        CFI (cfiCond43) VB load(1, XDATA, add(CFA_XSP16, literal(-21)))
        CFI (cfiCond43) V0 load(1, XDATA, add(CFA_XSP16, literal(-20)))
        CFI (cfiCond43) V1 load(1, XDATA, add(CFA_XSP16, literal(-19)))
        CFI (cfiCond43) V2 load(1, XDATA, add(CFA_XSP16, literal(-18)))
        CFI (cfiCond43) V3 load(1, XDATA, add(CFA_XSP16, literal(-17)))
        CFI (cfiCond43) V4 load(1, XDATA, add(CFA_XSP16, literal(-16)))
        CFI (cfiCond43) V5 load(1, XDATA, add(CFA_XSP16, literal(-15)))
        CFI (cfiCond43) V6 load(1, XDATA, add(CFA_XSP16, literal(-14)))
        CFI (cfiCond43) V7 load(1, XDATA, add(CFA_XSP16, literal(-13)))
        CFI (cfiCond43) V8 load(1, XDATA, add(CFA_XSP16, literal(-12)))
        CFI (cfiCond43) V9 load(1, XDATA, add(CFA_XSP16, literal(-11)))
        CFI (cfiCond43) V10 load(1, XDATA, add(CFA_XSP16, literal(-10)))
        CFI (cfiCond43) V11 load(1, XDATA, add(CFA_XSP16, literal(-9)))
        CFI (cfiCond43) V12 load(1, XDATA, add(CFA_XSP16, literal(-8)))
        CFI (cfiCond43) V13 load(1, XDATA, add(CFA_XSP16, literal(-7)))
        CFI (cfiCond43) R7 load(1, XDATA, add(CFA_XSP16, literal(-6)))
        CFI (cfiCond43) ?RET_LOW load(1, XDATA, add(CFA_XSP16, literal(-5)))
        CFI (cfiCond43) ?RET_HIGH load(1, XDATA, add(CFA_XSP16, literal(-4)))
        CFI (cfiCond43) ?BRET_EXT load(1, XDATA, add(CFA_XSP16, literal(-3)))
        CFI (cfiCond43) DPL0 load(1, XDATA, add(CFA_XSP16, literal(-2)))
        CFI (cfiCond43) DPH0 load(1, XDATA, add(CFA_XSP16, literal(-1)))
        CFI (cfiCond43) CFA_SP SP+0
        CFI (cfiCond43) CFA_XSP16 add(XSP16, 52)
        CFI Block cfiCond44 Using cfiCommon0
        CFI (cfiCond44) NoFunction
        CFI (cfiCond44) Conditional ??CrossCallReturnLabel_82, ??CrossCallReturnLabel_72
        CFI (cfiCond44) R6 load(1, XDATA, add(CFA_XSP16, literal(-22)))
        CFI (cfiCond44) VB load(1, XDATA, add(CFA_XSP16, literal(-21)))
        CFI (cfiCond44) V0 load(1, XDATA, add(CFA_XSP16, literal(-20)))
        CFI (cfiCond44) V1 load(1, XDATA, add(CFA_XSP16, literal(-19)))
        CFI (cfiCond44) V2 load(1, XDATA, add(CFA_XSP16, literal(-18)))
        CFI (cfiCond44) V3 load(1, XDATA, add(CFA_XSP16, literal(-17)))
        CFI (cfiCond44) V4 load(1, XDATA, add(CFA_XSP16, literal(-16)))
        CFI (cfiCond44) V5 load(1, XDATA, add(CFA_XSP16, literal(-15)))
        CFI (cfiCond44) V6 load(1, XDATA, add(CFA_XSP16, literal(-14)))
        CFI (cfiCond44) V7 load(1, XDATA, add(CFA_XSP16, literal(-13)))
        CFI (cfiCond44) V8 load(1, XDATA, add(CFA_XSP16, literal(-12)))
        CFI (cfiCond44) V9 load(1, XDATA, add(CFA_XSP16, literal(-11)))
        CFI (cfiCond44) V10 load(1, XDATA, add(CFA_XSP16, literal(-10)))
        CFI (cfiCond44) V11 load(1, XDATA, add(CFA_XSP16, literal(-9)))
        CFI (cfiCond44) V12 load(1, XDATA, add(CFA_XSP16, literal(-8)))
        CFI (cfiCond44) V13 load(1, XDATA, add(CFA_XSP16, literal(-7)))
        CFI (cfiCond44) R7 load(1, XDATA, add(CFA_XSP16, literal(-6)))
        CFI (cfiCond44) ?RET_LOW load(1, XDATA, add(CFA_XSP16, literal(-5)))
        CFI (cfiCond44) ?RET_HIGH load(1, XDATA, add(CFA_XSP16, literal(-4)))
        CFI (cfiCond44) ?BRET_EXT load(1, XDATA, add(CFA_XSP16, literal(-3)))
        CFI (cfiCond44) DPL0 load(1, XDATA, add(CFA_XSP16, literal(-2)))
        CFI (cfiCond44) DPH0 load(1, XDATA, add(CFA_XSP16, literal(-1)))
        CFI (cfiCond44) CFA_SP SP+0
        CFI (cfiCond44) CFA_XSP16 add(XSP16, 52)
        CFI Block cfiCond45 Using cfiCommon0
        CFI (cfiCond45) NoFunction
        CFI (cfiCond45) Conditional ??CrossCallReturnLabel_82, ??CrossCallReturnLabel_73
        CFI (cfiCond45) R6 load(1, XDATA, add(CFA_XSP16, literal(-22)))
        CFI (cfiCond45) VB load(1, XDATA, add(CFA_XSP16, literal(-21)))
        CFI (cfiCond45) V0 load(1, XDATA, add(CFA_XSP16, literal(-20)))
        CFI (cfiCond45) V1 load(1, XDATA, add(CFA_XSP16, literal(-19)))
        CFI (cfiCond45) V2 load(1, XDATA, add(CFA_XSP16, literal(-18)))
        CFI (cfiCond45) V3 load(1, XDATA, add(CFA_XSP16, literal(-17)))
        CFI (cfiCond45) V4 load(1, XDATA, add(CFA_XSP16, literal(-16)))
        CFI (cfiCond45) V5 load(1, XDATA, add(CFA_XSP16, literal(-15)))
        CFI (cfiCond45) V6 load(1, XDATA, add(CFA_XSP16, literal(-14)))
        CFI (cfiCond45) V7 load(1, XDATA, add(CFA_XSP16, literal(-13)))
        CFI (cfiCond45) V8 load(1, XDATA, add(CFA_XSP16, literal(-12)))
        CFI (cfiCond45) V9 load(1, XDATA, add(CFA_XSP16, literal(-11)))
        CFI (cfiCond45) V10 load(1, XDATA, add(CFA_XSP16, literal(-10)))
        CFI (cfiCond45) V11 load(1, XDATA, add(CFA_XSP16, literal(-9)))
        CFI (cfiCond45) V12 load(1, XDATA, add(CFA_XSP16, literal(-8)))
        CFI (cfiCond45) V13 load(1, XDATA, add(CFA_XSP16, literal(-7)))
        CFI (cfiCond45) R7 load(1, XDATA, add(CFA_XSP16, literal(-6)))
        CFI (cfiCond45) ?RET_LOW load(1, XDATA, add(CFA_XSP16, literal(-5)))
        CFI (cfiCond45) ?RET_HIGH load(1, XDATA, add(CFA_XSP16, literal(-4)))
        CFI (cfiCond45) ?BRET_EXT load(1, XDATA, add(CFA_XSP16, literal(-3)))
        CFI (cfiCond45) DPL0 load(1, XDATA, add(CFA_XSP16, literal(-2)))
        CFI (cfiCond45) DPH0 load(1, XDATA, add(CFA_XSP16, literal(-1)))
        CFI (cfiCond45) CFA_SP SP+0
        CFI (cfiCond45) CFA_XSP16 add(XSP16, 52)
        CFI Block cfiCond46 Using cfiCommon0
        CFI (cfiCond46) NoFunction
        CFI (cfiCond46) Conditional ??CrossCallReturnLabel_82, ??CrossCallReturnLabel_74
        CFI (cfiCond46) DPL0 Frame(CFA_SP, 4)
        CFI (cfiCond46) DPH0 Frame(CFA_SP, 5)
        CFI (cfiCond46) CFA_SP SP+-5
        CFI Block cfiCond47 Using cfiCommon0
        CFI (cfiCond47) NoFunction
        CFI (cfiCond47) Conditional ??CrossCallReturnLabel_82, ??CrossCallReturnLabel_75
        CFI (cfiCond47) R6 load(1, XDATA, add(CFA_XSP16, literal(-9)))
        CFI (cfiCond47) VB load(1, XDATA, add(CFA_XSP16, literal(-8)))
        CFI (cfiCond47) V0 load(1, XDATA, add(CFA_XSP16, literal(-7)))
        CFI (cfiCond47) R7 load(1, XDATA, add(CFA_XSP16, literal(-6)))
        CFI (cfiCond47) ?RET_LOW load(1, XDATA, add(CFA_XSP16, literal(-5)))
        CFI (cfiCond47) ?RET_HIGH load(1, XDATA, add(CFA_XSP16, literal(-4)))
        CFI (cfiCond47) ?BRET_EXT load(1, XDATA, add(CFA_XSP16, literal(-3)))
        CFI (cfiCond47) DPL0 load(1, XDATA, add(CFA_XSP16, literal(-2)))
        CFI (cfiCond47) DPH0 load(1, XDATA, add(CFA_XSP16, literal(-1)))
        CFI (cfiCond47) CFA_SP SP+0
        CFI (cfiCond47) CFA_XSP16 add(XSP16, 9)
        CFI Block cfiCond48 Using cfiCommon0
        CFI (cfiCond48) NoFunction
        CFI (cfiCond48) Conditional ??CrossCallReturnLabel_81, ??CrossCallReturnLabel_21
        CFI (cfiCond48) R6 load(1, XDATA, add(CFA_XSP16, literal(-24)))
        CFI (cfiCond48) VB load(1, XDATA, add(CFA_XSP16, literal(-23)))
        CFI (cfiCond48) V0 load(1, XDATA, add(CFA_XSP16, literal(-22)))
        CFI (cfiCond48) V1 load(1, XDATA, add(CFA_XSP16, literal(-21)))
        CFI (cfiCond48) V2 load(1, XDATA, add(CFA_XSP16, literal(-20)))
        CFI (cfiCond48) V3 load(1, XDATA, add(CFA_XSP16, literal(-19)))
        CFI (cfiCond48) V4 load(1, XDATA, add(CFA_XSP16, literal(-18)))
        CFI (cfiCond48) V5 load(1, XDATA, add(CFA_XSP16, literal(-17)))
        CFI (cfiCond48) V6 load(1, XDATA, add(CFA_XSP16, literal(-16)))
        CFI (cfiCond48) V7 load(1, XDATA, add(CFA_XSP16, literal(-15)))
        CFI (cfiCond48) V8 load(1, XDATA, add(CFA_XSP16, literal(-14)))
        CFI (cfiCond48) V9 load(1, XDATA, add(CFA_XSP16, literal(-13)))
        CFI (cfiCond48) V10 load(1, XDATA, add(CFA_XSP16, literal(-12)))
        CFI (cfiCond48) V11 load(1, XDATA, add(CFA_XSP16, literal(-11)))
        CFI (cfiCond48) V12 load(1, XDATA, add(CFA_XSP16, literal(-10)))
        CFI (cfiCond48) V13 load(1, XDATA, add(CFA_XSP16, literal(-9)))
        CFI (cfiCond48) V14 load(1, XDATA, add(CFA_XSP16, literal(-8)))
        CFI (cfiCond48) V15 load(1, XDATA, add(CFA_XSP16, literal(-7)))
        CFI (cfiCond48) R7 load(1, XDATA, add(CFA_XSP16, literal(-6)))
        CFI (cfiCond48) ?RET_LOW load(1, XDATA, add(CFA_XSP16, literal(-5)))
        CFI (cfiCond48) ?RET_HIGH load(1, XDATA, add(CFA_XSP16, literal(-4)))
        CFI (cfiCond48) ?BRET_EXT load(1, XDATA, add(CFA_XSP16, literal(-3)))
        CFI (cfiCond48) DPL0 load(1, XDATA, add(CFA_XSP16, literal(-2)))
        CFI (cfiCond48) DPH0 load(1, XDATA, add(CFA_XSP16, literal(-1)))
        CFI (cfiCond48) CFA_SP SP+0
        CFI (cfiCond48) CFA_XSP16 add(XSP16, 25)
        CFI Block cfiCond49 Using cfiCommon0
        CFI (cfiCond49) NoFunction
        CFI (cfiCond49) Conditional ??CrossCallReturnLabel_81, ??CrossCallReturnLabel_22
        CFI (cfiCond49) R6 load(1, XDATA, add(CFA_XSP16, literal(-24)))
        CFI (cfiCond49) VB load(1, XDATA, add(CFA_XSP16, literal(-23)))
        CFI (cfiCond49) V0 load(1, XDATA, add(CFA_XSP16, literal(-22)))
        CFI (cfiCond49) V1 load(1, XDATA, add(CFA_XSP16, literal(-21)))
        CFI (cfiCond49) V2 load(1, XDATA, add(CFA_XSP16, literal(-20)))
        CFI (cfiCond49) V3 load(1, XDATA, add(CFA_XSP16, literal(-19)))
        CFI (cfiCond49) V4 load(1, XDATA, add(CFA_XSP16, literal(-18)))
        CFI (cfiCond49) V5 load(1, XDATA, add(CFA_XSP16, literal(-17)))
        CFI (cfiCond49) V6 load(1, XDATA, add(CFA_XSP16, literal(-16)))
        CFI (cfiCond49) V7 load(1, XDATA, add(CFA_XSP16, literal(-15)))
        CFI (cfiCond49) V8 load(1, XDATA, add(CFA_XSP16, literal(-14)))
        CFI (cfiCond49) V9 load(1, XDATA, add(CFA_XSP16, literal(-13)))
        CFI (cfiCond49) V10 load(1, XDATA, add(CFA_XSP16, literal(-12)))
        CFI (cfiCond49) V11 load(1, XDATA, add(CFA_XSP16, literal(-11)))
        CFI (cfiCond49) V12 load(1, XDATA, add(CFA_XSP16, literal(-10)))
        CFI (cfiCond49) V13 load(1, XDATA, add(CFA_XSP16, literal(-9)))
        CFI (cfiCond49) V14 load(1, XDATA, add(CFA_XSP16, literal(-8)))
        CFI (cfiCond49) V15 load(1, XDATA, add(CFA_XSP16, literal(-7)))
        CFI (cfiCond49) R7 load(1, XDATA, add(CFA_XSP16, literal(-6)))
        CFI (cfiCond49) ?RET_LOW load(1, XDATA, add(CFA_XSP16, literal(-5)))
        CFI (cfiCond49) ?RET_HIGH load(1, XDATA, add(CFA_XSP16, literal(-4)))
        CFI (cfiCond49) ?BRET_EXT load(1, XDATA, add(CFA_XSP16, literal(-3)))
        CFI (cfiCond49) DPL0 load(1, XDATA, add(CFA_XSP16, literal(-2)))
        CFI (cfiCond49) DPH0 load(1, XDATA, add(CFA_XSP16, literal(-1)))
        CFI (cfiCond49) CFA_SP SP+0
        CFI (cfiCond49) CFA_XSP16 add(XSP16, 25)
        CFI Block cfiCond50 Using cfiCommon0
        CFI (cfiCond50) NoFunction
        CFI (cfiCond50) Conditional ??CrossCallReturnLabel_80, ??CrossCallReturnLabel_16
        CFI (cfiCond50) R6 load(1, XDATA, add(CFA_XSP16, literal(-24)))
        CFI (cfiCond50) VB load(1, XDATA, add(CFA_XSP16, literal(-23)))
        CFI (cfiCond50) V0 load(1, XDATA, add(CFA_XSP16, literal(-22)))
        CFI (cfiCond50) V1 load(1, XDATA, add(CFA_XSP16, literal(-21)))
        CFI (cfiCond50) V2 load(1, XDATA, add(CFA_XSP16, literal(-20)))
        CFI (cfiCond50) V3 load(1, XDATA, add(CFA_XSP16, literal(-19)))
        CFI (cfiCond50) V4 load(1, XDATA, add(CFA_XSP16, literal(-18)))
        CFI (cfiCond50) V5 load(1, XDATA, add(CFA_XSP16, literal(-17)))
        CFI (cfiCond50) V6 load(1, XDATA, add(CFA_XSP16, literal(-16)))
        CFI (cfiCond50) V7 load(1, XDATA, add(CFA_XSP16, literal(-15)))
        CFI (cfiCond50) V8 load(1, XDATA, add(CFA_XSP16, literal(-14)))
        CFI (cfiCond50) V9 load(1, XDATA, add(CFA_XSP16, literal(-13)))
        CFI (cfiCond50) V10 load(1, XDATA, add(CFA_XSP16, literal(-12)))
        CFI (cfiCond50) V11 load(1, XDATA, add(CFA_XSP16, literal(-11)))
        CFI (cfiCond50) V12 load(1, XDATA, add(CFA_XSP16, literal(-10)))
        CFI (cfiCond50) V13 load(1, XDATA, add(CFA_XSP16, literal(-9)))
        CFI (cfiCond50) V14 load(1, XDATA, add(CFA_XSP16, literal(-8)))
        CFI (cfiCond50) V15 load(1, XDATA, add(CFA_XSP16, literal(-7)))
        CFI (cfiCond50) R7 load(1, XDATA, add(CFA_XSP16, literal(-6)))
        CFI (cfiCond50) ?RET_LOW load(1, XDATA, add(CFA_XSP16, literal(-5)))
        CFI (cfiCond50) ?RET_HIGH load(1, XDATA, add(CFA_XSP16, literal(-4)))
        CFI (cfiCond50) ?BRET_EXT load(1, XDATA, add(CFA_XSP16, literal(-3)))
        CFI (cfiCond50) DPL0 load(1, XDATA, add(CFA_XSP16, literal(-2)))
        CFI (cfiCond50) DPH0 load(1, XDATA, add(CFA_XSP16, literal(-1)))
        CFI (cfiCond50) CFA_SP SP+0
        CFI (cfiCond50) CFA_XSP16 add(XSP16, 26)
        CFI Block cfiCond51 Using cfiCommon0
        CFI (cfiCond51) NoFunction
        CFI (cfiCond51) Conditional ??CrossCallReturnLabel_80, ??CrossCallReturnLabel_17
        CFI (cfiCond51) R6 load(1, XDATA, add(CFA_XSP16, literal(-22)))
        CFI (cfiCond51) VB load(1, XDATA, add(CFA_XSP16, literal(-21)))
        CFI (cfiCond51) V0 load(1, XDATA, add(CFA_XSP16, literal(-20)))
        CFI (cfiCond51) V1 load(1, XDATA, add(CFA_XSP16, literal(-19)))
        CFI (cfiCond51) V2 load(1, XDATA, add(CFA_XSP16, literal(-18)))
        CFI (cfiCond51) V3 load(1, XDATA, add(CFA_XSP16, literal(-17)))
        CFI (cfiCond51) V4 load(1, XDATA, add(CFA_XSP16, literal(-16)))
        CFI (cfiCond51) V5 load(1, XDATA, add(CFA_XSP16, literal(-15)))
        CFI (cfiCond51) V6 load(1, XDATA, add(CFA_XSP16, literal(-14)))
        CFI (cfiCond51) V7 load(1, XDATA, add(CFA_XSP16, literal(-13)))
        CFI (cfiCond51) V8 load(1, XDATA, add(CFA_XSP16, literal(-12)))
        CFI (cfiCond51) V9 load(1, XDATA, add(CFA_XSP16, literal(-11)))
        CFI (cfiCond51) V10 load(1, XDATA, add(CFA_XSP16, literal(-10)))
        CFI (cfiCond51) V11 load(1, XDATA, add(CFA_XSP16, literal(-9)))
        CFI (cfiCond51) V12 load(1, XDATA, add(CFA_XSP16, literal(-8)))
        CFI (cfiCond51) V13 load(1, XDATA, add(CFA_XSP16, literal(-7)))
        CFI (cfiCond51) R7 load(1, XDATA, add(CFA_XSP16, literal(-6)))
        CFI (cfiCond51) ?RET_LOW load(1, XDATA, add(CFA_XSP16, literal(-5)))
        CFI (cfiCond51) ?RET_HIGH load(1, XDATA, add(CFA_XSP16, literal(-4)))
        CFI (cfiCond51) ?BRET_EXT load(1, XDATA, add(CFA_XSP16, literal(-3)))
        CFI (cfiCond51) DPL0 load(1, XDATA, add(CFA_XSP16, literal(-2)))
        CFI (cfiCond51) DPH0 load(1, XDATA, add(CFA_XSP16, literal(-1)))
        CFI (cfiCond51) CFA_SP SP+0
        CFI (cfiCond51) CFA_XSP16 add(XSP16, 52)
        CFI Block cfiPicker52 Using cfiCommon1
        CFI (cfiPicker52) NoFunction
        CFI (cfiPicker52) Picker
        MOVX    A,@DPTR
        MOV     R0,A
        INC     DPTR
        MOVX    A,@DPTR
        MOV     R1,A
        RET
        CFI EndBlock cfiCond35
        CFI EndBlock cfiCond36
        CFI EndBlock cfiCond37
        CFI EndBlock cfiCond38
        CFI EndBlock cfiCond39
        CFI EndBlock cfiCond40
        CFI EndBlock cfiCond41
        CFI EndBlock cfiCond42
        CFI EndBlock cfiCond43
        CFI EndBlock cfiCond44
        CFI EndBlock cfiCond45
        CFI EndBlock cfiCond46
        CFI EndBlock cfiCond47
        CFI EndBlock cfiCond48
        CFI EndBlock cfiCond49
        CFI EndBlock cfiCond50
        CFI EndBlock cfiCond51
        CFI EndBlock cfiPicker52

        RSEG BANKED_CODE:CODE:NOROOT(0)
?Subroutine13:
        CFI Block cfiCond53 Using cfiCommon0
        CFI NoFunction
        CFI Conditional ??CrossCallReturnLabel_18
        CFI R6 load(1, XDATA, add(CFA_XSP16, literal(-24)))
        CFI VB load(1, XDATA, add(CFA_XSP16, literal(-23)))
        CFI V0 load(1, XDATA, add(CFA_XSP16, literal(-22)))
        CFI V1 load(1, XDATA, add(CFA_XSP16, literal(-21)))
        CFI V2 load(1, XDATA, add(CFA_XSP16, literal(-20)))
        CFI V3 load(1, XDATA, add(CFA_XSP16, literal(-19)))
        CFI V4 load(1, XDATA, add(CFA_XSP16, literal(-18)))
        CFI V5 load(1, XDATA, add(CFA_XSP16, literal(-17)))
        CFI V6 load(1, XDATA, add(CFA_XSP16, literal(-16)))
        CFI V7 load(1, XDATA, add(CFA_XSP16, literal(-15)))
        CFI V8 load(1, XDATA, add(CFA_XSP16, literal(-14)))
        CFI V9 load(1, XDATA, add(CFA_XSP16, literal(-13)))
        CFI V10 load(1, XDATA, add(CFA_XSP16, literal(-12)))
        CFI V11 load(1, XDATA, add(CFA_XSP16, literal(-11)))
        CFI V12 load(1, XDATA, add(CFA_XSP16, literal(-10)))
        CFI V13 load(1, XDATA, add(CFA_XSP16, literal(-9)))
        CFI V14 load(1, XDATA, add(CFA_XSP16, literal(-8)))
        CFI V15 load(1, XDATA, add(CFA_XSP16, literal(-7)))
        CFI R7 load(1, XDATA, add(CFA_XSP16, literal(-6)))
        CFI ?RET_LOW load(1, XDATA, add(CFA_XSP16, literal(-5)))
        CFI ?RET_HIGH load(1, XDATA, add(CFA_XSP16, literal(-4)))
        CFI ?BRET_EXT load(1, XDATA, add(CFA_XSP16, literal(-3)))
        CFI DPL0 load(1, XDATA, add(CFA_XSP16, literal(-2)))
        CFI DPH0 load(1, XDATA, add(CFA_XSP16, literal(-1)))
        CFI CFA_SP SP+0
        CFI CFA_XSP16 add(XSP16, 26)
        CFI Block cfiCond54 Using cfiCommon0
        CFI (cfiCond54) NoFunction
        CFI (cfiCond54) Conditional ??CrossCallReturnLabel_19
        CFI (cfiCond54) R6 load(1, XDATA, add(CFA_XSP16, literal(-24)))
        CFI (cfiCond54) VB load(1, XDATA, add(CFA_XSP16, literal(-23)))
        CFI (cfiCond54) V0 load(1, XDATA, add(CFA_XSP16, literal(-22)))
        CFI (cfiCond54) V1 load(1, XDATA, add(CFA_XSP16, literal(-21)))
        CFI (cfiCond54) V2 load(1, XDATA, add(CFA_XSP16, literal(-20)))
        CFI (cfiCond54) V3 load(1, XDATA, add(CFA_XSP16, literal(-19)))
        CFI (cfiCond54) V4 load(1, XDATA, add(CFA_XSP16, literal(-18)))
        CFI (cfiCond54) V5 load(1, XDATA, add(CFA_XSP16, literal(-17)))
        CFI (cfiCond54) V6 load(1, XDATA, add(CFA_XSP16, literal(-16)))
        CFI (cfiCond54) V7 load(1, XDATA, add(CFA_XSP16, literal(-15)))
        CFI (cfiCond54) V8 load(1, XDATA, add(CFA_XSP16, literal(-14)))
        CFI (cfiCond54) V9 load(1, XDATA, add(CFA_XSP16, literal(-13)))
        CFI (cfiCond54) V10 load(1, XDATA, add(CFA_XSP16, literal(-12)))
        CFI (cfiCond54) V11 load(1, XDATA, add(CFA_XSP16, literal(-11)))
        CFI (cfiCond54) V12 load(1, XDATA, add(CFA_XSP16, literal(-10)))
        CFI (cfiCond54) V13 load(1, XDATA, add(CFA_XSP16, literal(-9)))
        CFI (cfiCond54) V14 load(1, XDATA, add(CFA_XSP16, literal(-8)))
        CFI (cfiCond54) V15 load(1, XDATA, add(CFA_XSP16, literal(-7)))
        CFI (cfiCond54) R7 load(1, XDATA, add(CFA_XSP16, literal(-6)))
        CFI (cfiCond54) ?RET_LOW load(1, XDATA, add(CFA_XSP16, literal(-5)))
        CFI (cfiCond54) ?RET_HIGH load(1, XDATA, add(CFA_XSP16, literal(-4)))
        CFI (cfiCond54) ?BRET_EXT load(1, XDATA, add(CFA_XSP16, literal(-3)))
        CFI (cfiCond54) DPL0 load(1, XDATA, add(CFA_XSP16, literal(-2)))
        CFI (cfiCond54) DPH0 load(1, XDATA, add(CFA_XSP16, literal(-1)))
        CFI (cfiCond54) CFA_SP SP+0
        CFI (cfiCond54) CFA_XSP16 add(XSP16, 26)
        CFI Block cfiCond55 Using cfiCommon0
        CFI (cfiCond55) NoFunction
        CFI (cfiCond55) Conditional ??CrossCallReturnLabel_20
        CFI (cfiCond55) R6 load(1, XDATA, add(CFA_XSP16, literal(-24)))
        CFI (cfiCond55) VB load(1, XDATA, add(CFA_XSP16, literal(-23)))
        CFI (cfiCond55) V0 load(1, XDATA, add(CFA_XSP16, literal(-22)))
        CFI (cfiCond55) V1 load(1, XDATA, add(CFA_XSP16, literal(-21)))
        CFI (cfiCond55) V2 load(1, XDATA, add(CFA_XSP16, literal(-20)))
        CFI (cfiCond55) V3 load(1, XDATA, add(CFA_XSP16, literal(-19)))
        CFI (cfiCond55) V4 load(1, XDATA, add(CFA_XSP16, literal(-18)))
        CFI (cfiCond55) V5 load(1, XDATA, add(CFA_XSP16, literal(-17)))
        CFI (cfiCond55) V6 load(1, XDATA, add(CFA_XSP16, literal(-16)))
        CFI (cfiCond55) V7 load(1, XDATA, add(CFA_XSP16, literal(-15)))
        CFI (cfiCond55) V8 load(1, XDATA, add(CFA_XSP16, literal(-14)))
        CFI (cfiCond55) V9 load(1, XDATA, add(CFA_XSP16, literal(-13)))
        CFI (cfiCond55) V10 load(1, XDATA, add(CFA_XSP16, literal(-12)))
        CFI (cfiCond55) V11 load(1, XDATA, add(CFA_XSP16, literal(-11)))
        CFI (cfiCond55) V12 load(1, XDATA, add(CFA_XSP16, literal(-10)))
        CFI (cfiCond55) V13 load(1, XDATA, add(CFA_XSP16, literal(-9)))
        CFI (cfiCond55) V14 load(1, XDATA, add(CFA_XSP16, literal(-8)))
        CFI (cfiCond55) V15 load(1, XDATA, add(CFA_XSP16, literal(-7)))
        CFI (cfiCond55) R7 load(1, XDATA, add(CFA_XSP16, literal(-6)))
        CFI (cfiCond55) ?RET_LOW load(1, XDATA, add(CFA_XSP16, literal(-5)))
        CFI (cfiCond55) ?RET_HIGH load(1, XDATA, add(CFA_XSP16, literal(-4)))
        CFI (cfiCond55) ?BRET_EXT load(1, XDATA, add(CFA_XSP16, literal(-3)))
        CFI (cfiCond55) DPL0 load(1, XDATA, add(CFA_XSP16, literal(-2)))
        CFI (cfiCond55) DPH0 load(1, XDATA, add(CFA_XSP16, literal(-1)))
        CFI (cfiCond55) CFA_SP SP+0
        CFI (cfiCond55) CFA_XSP16 add(XSP16, 25)
        CFI Block cfiPicker56 Using cfiCommon1
        CFI (cfiPicker56) NoFunction
        CFI (cfiPicker56) Picker
        MOVX    A,@DPTR
        MOV     ?V0 + 14,A
        INC     DPTR
        MOVX    A,@DPTR
        MOV     ?V0 + 15,A
        RET
        CFI EndBlock cfiCond53
        CFI EndBlock cfiCond54
        CFI EndBlock cfiCond55
        CFI EndBlock cfiPicker56

        RSEG BANKED_CODE:CODE:NOROOT(0)
?Subroutine11:
        CFI Block cfiCond57 Using cfiCommon0
        CFI NoFunction
        CFI Conditional ??CrossCallReturnLabel_14
        CFI R6 load(1, XDATA, add(CFA_XSP16, literal(-14)))
        CFI VB load(1, XDATA, add(CFA_XSP16, literal(-13)))
        CFI V0 load(1, XDATA, add(CFA_XSP16, literal(-12)))
        CFI V1 load(1, XDATA, add(CFA_XSP16, literal(-11)))
        CFI V2 load(1, XDATA, add(CFA_XSP16, literal(-10)))
        CFI V3 load(1, XDATA, add(CFA_XSP16, literal(-9)))
        CFI V4 load(1, XDATA, add(CFA_XSP16, literal(-8)))
        CFI V5 load(1, XDATA, add(CFA_XSP16, literal(-7)))
        CFI R7 load(1, XDATA, add(CFA_XSP16, literal(-6)))
        CFI ?RET_LOW load(1, XDATA, add(CFA_XSP16, literal(-5)))
        CFI ?RET_HIGH load(1, XDATA, add(CFA_XSP16, literal(-4)))
        CFI ?BRET_EXT load(1, XDATA, add(CFA_XSP16, literal(-3)))
        CFI DPL0 load(1, XDATA, add(CFA_XSP16, literal(-2)))
        CFI DPH0 load(1, XDATA, add(CFA_XSP16, literal(-1)))
        CFI CFA_SP SP+0
        CFI CFA_XSP16 add(XSP16, 14)
        CFI Block cfiCond58 Using cfiCommon0
        CFI (cfiCond58) NoFunction
        CFI (cfiCond58) Conditional ??CrossCallReturnLabel_15
        CFI (cfiCond58) R6 load(1, XDATA, add(CFA_XSP16, literal(-24)))
        CFI (cfiCond58) VB load(1, XDATA, add(CFA_XSP16, literal(-23)))
        CFI (cfiCond58) V0 load(1, XDATA, add(CFA_XSP16, literal(-22)))
        CFI (cfiCond58) V1 load(1, XDATA, add(CFA_XSP16, literal(-21)))
        CFI (cfiCond58) V2 load(1, XDATA, add(CFA_XSP16, literal(-20)))
        CFI (cfiCond58) V3 load(1, XDATA, add(CFA_XSP16, literal(-19)))
        CFI (cfiCond58) V4 load(1, XDATA, add(CFA_XSP16, literal(-18)))
        CFI (cfiCond58) V5 load(1, XDATA, add(CFA_XSP16, literal(-17)))
        CFI (cfiCond58) V6 load(1, XDATA, add(CFA_XSP16, literal(-16)))
        CFI (cfiCond58) V7 load(1, XDATA, add(CFA_XSP16, literal(-15)))
        CFI (cfiCond58) V8 load(1, XDATA, add(CFA_XSP16, literal(-14)))
        CFI (cfiCond58) V9 load(1, XDATA, add(CFA_XSP16, literal(-13)))
        CFI (cfiCond58) V10 load(1, XDATA, add(CFA_XSP16, literal(-12)))
        CFI (cfiCond58) V11 load(1, XDATA, add(CFA_XSP16, literal(-11)))
        CFI (cfiCond58) V12 load(1, XDATA, add(CFA_XSP16, literal(-10)))
        CFI (cfiCond58) V13 load(1, XDATA, add(CFA_XSP16, literal(-9)))
        CFI (cfiCond58) V14 load(1, XDATA, add(CFA_XSP16, literal(-8)))
        CFI (cfiCond58) V15 load(1, XDATA, add(CFA_XSP16, literal(-7)))
        CFI (cfiCond58) R7 load(1, XDATA, add(CFA_XSP16, literal(-6)))
        CFI (cfiCond58) ?RET_LOW load(1, XDATA, add(CFA_XSP16, literal(-5)))
        CFI (cfiCond58) ?RET_HIGH load(1, XDATA, add(CFA_XSP16, literal(-4)))
        CFI (cfiCond58) ?BRET_EXT load(1, XDATA, add(CFA_XSP16, literal(-3)))
        CFI (cfiCond58) DPL0 load(1, XDATA, add(CFA_XSP16, literal(-2)))
        CFI (cfiCond58) DPH0 load(1, XDATA, add(CFA_XSP16, literal(-1)))
        CFI (cfiCond58) CFA_SP SP+0
        CFI (cfiCond58) CFA_XSP16 add(XSP16, 25)
        CFI Block cfiPicker59 Using cfiCommon1
        CFI (cfiPicker59) NoFunction
        CFI (cfiPicker59) Picker
        INC     DPTR
        LCALL   ?Subroutine26 & 0xFFFF
??CrossCallReturnLabel_44:
        MOV     R1,A
        LCALL   ??osal_msg_send?relay
        RET
        CFI EndBlock cfiCond57
        CFI EndBlock cfiCond58
        CFI EndBlock cfiPicker59

        RSEG BANKED_CODE:CODE:NOROOT(0)
?Subroutine8:
        CFI Block cfiCond60 Using cfiCommon0
        CFI NoFunction
        CFI Conditional ??CrossCallReturnLabel_6
        CFI R6 load(1, XDATA, add(CFA_XSP16, literal(-24)))
        CFI VB load(1, XDATA, add(CFA_XSP16, literal(-23)))
        CFI V0 load(1, XDATA, add(CFA_XSP16, literal(-22)))
        CFI V1 load(1, XDATA, add(CFA_XSP16, literal(-21)))
        CFI V2 load(1, XDATA, add(CFA_XSP16, literal(-20)))
        CFI V3 load(1, XDATA, add(CFA_XSP16, literal(-19)))
        CFI V4 load(1, XDATA, add(CFA_XSP16, literal(-18)))
        CFI V5 load(1, XDATA, add(CFA_XSP16, literal(-17)))
        CFI V6 load(1, XDATA, add(CFA_XSP16, literal(-16)))
        CFI V7 load(1, XDATA, add(CFA_XSP16, literal(-15)))
        CFI V8 load(1, XDATA, add(CFA_XSP16, literal(-14)))
        CFI V9 load(1, XDATA, add(CFA_XSP16, literal(-13)))
        CFI V10 load(1, XDATA, add(CFA_XSP16, literal(-12)))
        CFI V11 load(1, XDATA, add(CFA_XSP16, literal(-11)))
        CFI V12 load(1, XDATA, add(CFA_XSP16, literal(-10)))
        CFI V13 load(1, XDATA, add(CFA_XSP16, literal(-9)))
        CFI V14 load(1, XDATA, add(CFA_XSP16, literal(-8)))
        CFI V15 load(1, XDATA, add(CFA_XSP16, literal(-7)))
        CFI R7 load(1, XDATA, add(CFA_XSP16, literal(-6)))
        CFI ?RET_LOW load(1, XDATA, add(CFA_XSP16, literal(-5)))
        CFI ?RET_HIGH load(1, XDATA, add(CFA_XSP16, literal(-4)))
        CFI ?BRET_EXT load(1, XDATA, add(CFA_XSP16, literal(-3)))
        CFI DPL0 load(1, XDATA, add(CFA_XSP16, literal(-2)))
        CFI DPH0 load(1, XDATA, add(CFA_XSP16, literal(-1)))
        CFI CFA_SP SP+0
        CFI CFA_XSP16 add(XSP16, 25)
        CFI Block cfiCond61 Using cfiCommon0
        CFI (cfiCond61) NoFunction
        CFI (cfiCond61) Conditional ??CrossCallReturnLabel_7
        CFI (cfiCond61) R6 load(1, XDATA, add(CFA_XSP16, literal(-24)))
        CFI (cfiCond61) VB load(1, XDATA, add(CFA_XSP16, literal(-23)))
        CFI (cfiCond61) V0 load(1, XDATA, add(CFA_XSP16, literal(-22)))
        CFI (cfiCond61) V1 load(1, XDATA, add(CFA_XSP16, literal(-21)))
        CFI (cfiCond61) V2 load(1, XDATA, add(CFA_XSP16, literal(-20)))
        CFI (cfiCond61) V3 load(1, XDATA, add(CFA_XSP16, literal(-19)))
        CFI (cfiCond61) V4 load(1, XDATA, add(CFA_XSP16, literal(-18)))
        CFI (cfiCond61) V5 load(1, XDATA, add(CFA_XSP16, literal(-17)))
        CFI (cfiCond61) V6 load(1, XDATA, add(CFA_XSP16, literal(-16)))
        CFI (cfiCond61) V7 load(1, XDATA, add(CFA_XSP16, literal(-15)))
        CFI (cfiCond61) V8 load(1, XDATA, add(CFA_XSP16, literal(-14)))
        CFI (cfiCond61) V9 load(1, XDATA, add(CFA_XSP16, literal(-13)))
        CFI (cfiCond61) V10 load(1, XDATA, add(CFA_XSP16, literal(-12)))
        CFI (cfiCond61) V11 load(1, XDATA, add(CFA_XSP16, literal(-11)))
        CFI (cfiCond61) V12 load(1, XDATA, add(CFA_XSP16, literal(-10)))
        CFI (cfiCond61) V13 load(1, XDATA, add(CFA_XSP16, literal(-9)))
        CFI (cfiCond61) V14 load(1, XDATA, add(CFA_XSP16, literal(-8)))
        CFI (cfiCond61) V15 load(1, XDATA, add(CFA_XSP16, literal(-7)))
        CFI (cfiCond61) R7 load(1, XDATA, add(CFA_XSP16, literal(-6)))
        CFI (cfiCond61) ?RET_LOW load(1, XDATA, add(CFA_XSP16, literal(-5)))
        CFI (cfiCond61) ?RET_HIGH load(1, XDATA, add(CFA_XSP16, literal(-4)))
        CFI (cfiCond61) ?BRET_EXT load(1, XDATA, add(CFA_XSP16, literal(-3)))
        CFI (cfiCond61) DPL0 load(1, XDATA, add(CFA_XSP16, literal(-2)))
        CFI (cfiCond61) DPH0 load(1, XDATA, add(CFA_XSP16, literal(-1)))
        CFI (cfiCond61) CFA_SP SP+0
        CFI (cfiCond61) CFA_XSP16 add(XSP16, 25)
        CFI Block cfiPicker62 Using cfiCommon1
        CFI (cfiPicker62) NoFunction
        CFI (cfiPicker62) Picker
        MOVX    @DPTR,A
        MOV     DPL,?V0 + 2
        MOV     DPH,?V0 + 3
        INC     DPTR
        RET
        CFI EndBlock cfiCond60
        CFI EndBlock cfiCond61
        CFI EndBlock cfiPicker62
//  447 
//  448 /*********************************************************************
//  449  * @fn      AF_DataRequest
//  450  *
//  451  * @brief   Common functionality for invoking APSDE_DataReq() for both
//  452  *          SendMulti and MSG-Send.
//  453  *
//  454  * input parameters
//  455  *
//  456  * @param  *dstAddr - Full ZB destination address: Nwk Addr + End Point.
//  457  * @param  *srcEP - Origination (i.e. respond to or ack to) End Point Descr.
//  458  * @param   cID - A valid cluster ID as specified by the Profile.
//  459  * @param   len - Number of bytes of data pointed to by next param.
//  460  * @param  *buf - A pointer to the data bytes to send.
//  461  * @param  *transID - A pointer to a byte which can be modified and which will
//  462  *                    be used as the transaction sequence number of the msg.
//  463  * @param   options - Valid bit mask of Tx options.
//  464  * @param   radius - Normally set to AF_DEFAULT_RADIUS.
//  465  *
//  466  * output parameters
//  467  *
//  468  * @param  *transID - Incremented by one if the return value is success.
//  469  *
//  470  * @return  afStatus_t - See previous definition of afStatus_... types.
//  471  */

        RSEG XDATA_I:XDATA:NOROOT(0)
//  472 uint8 AF_DataRequestDiscoverRoute = TRUE;
AF_DataRequestDiscoverRoute:
        DATA8
        DS 1
        REQUIRE `?<Initializer for AF_DataRequestDiscoverRoute>`
        REQUIRE __INIT_XDATA_I

        RSEG BANKED_CODE:CODE:NOROOT(0)
//  473 afStatus_t AF_DataRequest( afAddrType_t *dstAddr, 
AF_DataRequest:
        CFI Block cfiBlock63 Using cfiCommon0
        CFI Function AF_DataRequest
        CODE
//  474                            endPointDesc_t *srcEP,
//  475                            uint16 cID, 
//  476                            uint16 len,
//  477                            uint8 *buf, 
//  478                            uint8 *transID,
//  479                            uint8 options, 
//  480                            uint8 radius )
//  481 {
        FUNCALL AF_DataRequest, NLME_IsAddressBroadcast
        LOCFRAME ISTACK, 0, STACK
        LOCFRAME PSTACK, 0, STACK
        LOCFRAME XSTACK, 52, STACK
        LOCFRAME IOVERLAY, 0, STATIC
        LOCFRAME DOVERLAY, 0, STATIC
        ARGFRAME ISTACK, 0, STACK
        ARGFRAME PSTACK, 0, STACK
        ARGFRAME XSTACK, 52, STACK
        ARGFRAME IOVERLAY, 0, STATIC
        ARGFRAME DOVERLAY, 0, STATIC
        FUNCALL AF_DataRequest, sAddrExtCpy
        LOCFRAME ISTACK, 0, STACK
        LOCFRAME PSTACK, 0, STACK
        LOCFRAME XSTACK, 52, STACK
        LOCFRAME IOVERLAY, 0, STATIC
        LOCFRAME DOVERLAY, 0, STATIC
        ARGFRAME ISTACK, 0, STACK
        ARGFRAME PSTACK, 0, STACK
        ARGFRAME XSTACK, 52, STACK
        ARGFRAME IOVERLAY, 0, STATIC
        ARGFRAME DOVERLAY, 0, STATIC
        FUNCALL AF_DataRequest, osal_mem_free
        LOCFRAME ISTACK, 0, STACK
        LOCFRAME PSTACK, 0, STACK
        LOCFRAME XSTACK, 52, STACK
        LOCFRAME IOVERLAY, 0, STATIC
        LOCFRAME DOVERLAY, 0, STATIC
        ARGFRAME ISTACK, 0, STACK
        ARGFRAME PSTACK, 0, STACK
        ARGFRAME XSTACK, 52, STACK
        ARGFRAME IOVERLAY, 0, STATIC
        ARGFRAME DOVERLAY, 0, STATIC
        FUNCALL AF_DataRequest, afDataReqMTU
        LOCFRAME ISTACK, 0, STACK
        LOCFRAME PSTACK, 0, STACK
        LOCFRAME XSTACK, 52, STACK
        LOCFRAME IOVERLAY, 0, STATIC
        LOCFRAME DOVERLAY, 0, STATIC
        ARGFRAME ISTACK, 0, STACK
        ARGFRAME PSTACK, 0, STACK
        ARGFRAME XSTACK, 52, STACK
        ARGFRAME IOVERLAY, 0, STATIC
        ARGFRAME DOVERLAY, 0, STATIC
        FUNCALL AF_DataRequest, APSDE_DataReq
        LOCFRAME ISTACK, 0, STACK
        LOCFRAME PSTACK, 0, STACK
        LOCFRAME XSTACK, 52, STACK
        LOCFRAME IOVERLAY, 0, STATIC
        LOCFRAME DOVERLAY, 0, STATIC
        ARGFRAME ISTACK, 0, STACK
        ARGFRAME PSTACK, 0, STACK
        ARGFRAME XSTACK, 52, STACK
        ARGFRAME IOVERLAY, 0, STATIC
        ARGFRAME DOVERLAY, 0, STATIC
        FUNCALL AF_DataRequest, NLME_GetShortAddr
        LOCFRAME ISTACK, 0, STACK
        LOCFRAME PSTACK, 0, STACK
        LOCFRAME XSTACK, 52, STACK
        LOCFRAME IOVERLAY, 0, STATIC
        LOCFRAME DOVERLAY, 0, STATIC
        ARGFRAME ISTACK, 0, STACK
        ARGFRAME PSTACK, 0, STACK
        ARGFRAME XSTACK, 52, STACK
        ARGFRAME IOVERLAY, 0, STATIC
        ARGFRAME DOVERLAY, 0, STATIC
        FUNCALL AF_DataRequest, afDataConfirm
        LOCFRAME ISTACK, 0, STACK
        LOCFRAME PSTACK, 0, STACK
        LOCFRAME XSTACK, 52, STACK
        LOCFRAME IOVERLAY, 0, STATIC
        LOCFRAME DOVERLAY, 0, STATIC
        ARGFRAME ISTACK, 0, STACK
        ARGFRAME PSTACK, 0, STACK
        ARGFRAME XSTACK, 52, STACK
        ARGFRAME IOVERLAY, 0, STATIC
        ARGFRAME DOVERLAY, 0, STATIC
        MOV     A,#-0x16
        LCALL   ?BANKED_ENTER_XDATA
        CFI DPH0 load(1, XDATA, add(CFA_XSP16, literal(-1)))
        CFI DPL0 load(1, XDATA, add(CFA_XSP16, literal(-2)))
        CFI ?BRET_EXT load(1, XDATA, add(CFA_XSP16, literal(-3)))
        CFI ?RET_HIGH load(1, XDATA, add(CFA_XSP16, literal(-4)))
        CFI ?RET_LOW load(1, XDATA, add(CFA_XSP16, literal(-5)))
        CFI R7 load(1, XDATA, add(CFA_XSP16, literal(-6)))
        CFI V13 load(1, XDATA, add(CFA_XSP16, literal(-7)))
        CFI V12 load(1, XDATA, add(CFA_XSP16, literal(-8)))
        CFI V11 load(1, XDATA, add(CFA_XSP16, literal(-9)))
        CFI V10 load(1, XDATA, add(CFA_XSP16, literal(-10)))
        CFI V9 load(1, XDATA, add(CFA_XSP16, literal(-11)))
        CFI V8 load(1, XDATA, add(CFA_XSP16, literal(-12)))
        CFI V7 load(1, XDATA, add(CFA_XSP16, literal(-13)))
        CFI V6 load(1, XDATA, add(CFA_XSP16, literal(-14)))
        CFI V5 load(1, XDATA, add(CFA_XSP16, literal(-15)))
        CFI V4 load(1, XDATA, add(CFA_XSP16, literal(-16)))
        CFI V3 load(1, XDATA, add(CFA_XSP16, literal(-17)))
        CFI V2 load(1, XDATA, add(CFA_XSP16, literal(-18)))
        CFI V1 load(1, XDATA, add(CFA_XSP16, literal(-19)))
        CFI V0 load(1, XDATA, add(CFA_XSP16, literal(-20)))
        CFI VB load(1, XDATA, add(CFA_XSP16, literal(-21)))
        CFI R6 load(1, XDATA, add(CFA_XSP16, literal(-22)))
        CFI CFA_SP SP+0
        CFI CFA_XSP16 add(XSP16, 22)
        ; Saved register size: 22
        ; Auto size: 30
        MOV     A,#-0x1e
        LCALL   ?ALLOC_XSTACK8
        CFI CFA_XSP16 add(XSP16, 52)
        MOV     A,R2
        MOV     R6,A
        MOV     A,R3
        MOV     R7,A
        MOV     ?V0 + 0,R4
        MOV     ?V0 + 1,R5
        MOV     ?V0 + 2,R1
        MOV     A,#0x34
        LCALL   ?XSTACK_DISP0_8
        MOVX    A,@DPTR
        MOV     ?V0 + 10,A
        INC     DPTR
        MOVX    A,@DPTR
        MOV     ?V0 + 11,A
        MOV     A,#0x36
        LCALL   ?XSTACK_DISP0_8
        MOVX    A,@DPTR
        MOV     ?V0 + 8,A
        INC     DPTR
        MOVX    A,@DPTR
        MOV     ?V0 + 9,A
        MOV     A,#0x38
        LCALL   ?XSTACK_DISP0_8
        MOVX    A,@DPTR
        MOV     ?V0 + 12,A
        INC     DPTR
        MOVX    A,@DPTR
        MOV     ?V0 + 13,A
        MOV     A,#0x3a
        LCALL   ?XSTACK_DISP0_8
        MOVX    A,@DPTR
        MOV     ?V0 + 6,A
        INC     DPTR
        MOVX    A,@DPTR
        MOV     ?V0 + 7,A
        MOV     A,#0x3c
        LCALL   ?XSTACK_DISP0_8
        MOVX    A,@DPTR
        MOV     ?V0 + 3,A
//  482   pDescCB pfnDescCB;
//  483   ZStatus_t stat;
//  484   APSDE_DataReq_t req;
//  485   afDataReqMTU_t mtu;
//  486 
//  487   // Verify source end point
//  488   if ( srcEP == NULL )
        MOV     A,R4
        ORL     A,?V0 + 1
        JNZ     ??AF_DataRequest_0
//  489   {
//  490     return afStatus_INVALID_PARAMETER;
??AF_DataRequest_1:
        MOV     R1,#0x2
        LJMP    ??AF_DataRequest_2 & 0xFFFF
//  491   }
//  492 
//  493 #if !defined( REFLECTOR )
//  494   if ( dstAddr->addrMode == afAddrNotPresent )
//  495   {
//  496     return afStatus_INVALID_PARAMETER;
//  497   }
//  498 #endif
//  499 
//  500   // Validate broadcasting
//  501   if ( ( dstAddr->addrMode == afAddr16Bit     ) ||
//  502        ( dstAddr->addrMode == afAddrBroadcast )    )
??AF_DataRequest_0:
        MOV     A,R6
        ADD     A,#0x8
        MOV     ?V0 + 4,A
        MOV     A,R7
        ADDC    A,#0x0
        MOV     ?V0 + 5,A
        MOV     DPL,?V0 + 4
        MOV     DPH,A
        MOVX    A,@DPTR
        MOV     R0,A
        MOV     A,#0x2
        XRL     A,R0
        JZ      ??AF_DataRequest_3
        MOV     A,#0xf
        XRL     A,R0
        JNZ     ??AF_DataRequest_4
//  503   {
//  504     // Check for valid broadcast values
//  505     if( ADDR_NOT_BCAST != NLME_IsAddressBroadcast( dstAddr->addr.shortAddr )  )
??AF_DataRequest_3:
        ; Setup parameters for call to function NLME_IsAddressBroadcast
        MOV     DPL,R6
        MOV     DPH,R7
        LCALL   ?Subroutine18 & 0xFFFF
??CrossCallReturnLabel_28:
        LCALL   ??NLME_IsAddressBroadcast?relay
        MOV     A,R1
        MOV     DPL,?V0 + 4
        MOV     DPH,?V0 + 5
        JZ      ??AF_DataRequest_5
//  506     {
//  507       // Force mode to broadcast
//  508       dstAddr->addrMode = afAddrBroadcast;
        MOV     A,#0xf
        MOVX    @DPTR,A
        SJMP    ??AF_DataRequest_6
//  509     }
//  510     else
//  511     {
//  512       // Address is not a valid broadcast type
//  513       if ( dstAddr->addrMode == afAddrBroadcast )
??AF_DataRequest_5:
        MOVX    A,@DPTR
        XRL     A,#0xf
        JNZ     ??AF_DataRequest_6
        SJMP    ??AF_DataRequest_1
//  514       {
//  515         return afStatus_INVALID_PARAMETER;
//  516       }
//  517     }
//  518   }
//  519   else if ( dstAddr->addrMode != afAddr64Bit &&
//  520             dstAddr->addrMode != afAddrGroup &&
//  521             dstAddr->addrMode != afAddrNotPresent )
??AF_DataRequest_4:
        MOV     A,#0x3
        XRL     A,R0
        JZ      ??AF_DataRequest_6
        MOV     A,#0x1
        XRL     A,R0
        JZ      ??AF_DataRequest_6
        MOV     A,R0
        JNZ     ??AF_DataRequest_1
//  522   {
//  523     return afStatus_INVALID_PARAMETER;
//  524   }
//  525   
//  526   // Set destination address
//  527   req.dstAddr.addrMode = dstAddr->addrMode;
??AF_DataRequest_6:
        MOVX    A,@DPTR
        PUSH    A
        CFI CFA_SP SP+-1
        MOV     A,#0xa
        LCALL   ?XSTACK_DISP0_8
        POP     A
        CFI CFA_SP SP+0
        MOVX    @DPTR,A
//  528   if ( dstAddr->addrMode == afAddr64Bit )
        MOV     DPL,?V0 + 4
        MOV     DPH,?V0 + 5
        MOVX    A,@DPTR
        XRL     A,#0x3
        JNZ     ??AF_DataRequest_7
//  529     osal_cpyExtAddr( req.dstAddr.addr.extAddr, dstAddr->addr.extAddr );
        ; Setup parameters for call to function sAddrExtCpy
        MOV     A,R6
        MOV     R4,A
        MOV     A,R7
        MOV     R5,A
        MOV     A,#0x2
        LCALL   ?XSTACK_DISP0_8
        MOV     R2,DPL
        MOV     R3,DPH
        LCALL   ??sAddrExtCpy?relay
        SJMP    ??CrossCallReturnLabel_51
//  530   else
//  531     req.dstAddr.addr.shortAddr = dstAddr->addr.shortAddr;
??AF_DataRequest_7:
        MOV     DPL,R6
        MOV     DPH,R7
        LCALL   ??Subroutine32_0 & 0xFFFF
??CrossCallReturnLabel_71:
        MOV     A,#0x2
        LCALL   ?XSTACK_DISP0_8
        LCALL   ??Subroutine29_0 & 0xFFFF
//  532   
//  533   req.profileID = ZDO_PROFILE_ID;
??CrossCallReturnLabel_51:
        MOV     A,#0x11
        LCALL   ?XSTACK_DISP0_8
        CLR     A
        MOVX    @DPTR,A
        INC     DPTR
        MOVX    @DPTR,A
//  534 
//  535   if ( (pfnDescCB = afGetDescCB( srcEP )) )
        MOV     DPTR,#epList
        SJMP    ??AF_DataRequest_8
??AF_DataRequest_9:
        INC     DPTR
        INC     DPTR
??AF_DataRequest_8:
        LCALL   ?Subroutine9 & 0xFFFF
??CrossCallReturnLabel_8:
        JZ      ??AF_DataRequest_10
        MOV     DPL,R0
        MOV     DPH,R1
        LCALL   ?Subroutine18 & 0xFFFF
??CrossCallReturnLabel_29:
        MOV     A,?V0 + 0
        XRL     A,R2
        JNZ     ??AF_DataRequest_11
        MOV     A,?V0 + 1
        XRL     A,R3
??AF_DataRequest_11:
        MOV     DPL,R0
        MOV     DPH,R1
        INC     DPTR
        INC     DPTR
        INC     DPTR
        JNZ     ??AF_DataRequest_9
        LCALL   ??Subroutine32_0 & 0xFFFF
??CrossCallReturnLabel_72:
        MOV     A,R0
        MOV     R4,A
        MOV     A,R1
        MOV     R5,A
        MOV     A,R4
        ORL     A,R5
        JZ      ??AF_DataRequest_10
//  536   {
//  537     uint16 *pID = (uint16 *)(pfnDescCB(
//  538                                  AF_DESCRIPTOR_PROFILE_ID, srcEP->endPoint ));
        ; Setup parameters for indirect call
        MOV     DPL,?V0 + 0
        MOV     DPH,?V0 + 1
        LCALL   ?Subroutine20 & 0xFFFF
??CrossCallReturnLabel_36:
        LCALL   ?CALL_IND
//  539     if ( pID )
        MOV     A,R2
        ORL     A,R3
        JZ      ??CrossCallReturnLabel_53
//  540     {
//  541       req.profileID = *pID;
        MOV     DPL,R2
        MOV     DPH,R3
        LCALL   ??Subroutine32_0 & 0xFFFF
??CrossCallReturnLabel_73:
        MOV     A,#0x11
        LCALL   ?XSTACK_DISP0_8
        LCALL   ??Subroutine29_0 & 0xFFFF
//  542       osal_mem_free( pID );
??CrossCallReturnLabel_52:
        ; Setup parameters for call to function osal_mem_free
        LCALL   ??osal_mem_free?relay
        SJMP    ??CrossCallReturnLabel_53
//  543     }
//  544   }
//  545   else if ( srcEP->simpleDesc )
??AF_DataRequest_10:
        MOV     DPL,?V0 + 0
        MOV     DPH,?V0 + 1
        LCALL   ?Subroutine12 & 0xFFFF
??CrossCallReturnLabel_17:
        JZ      ??CrossCallReturnLabel_53
//  546   {
//  547     req.profileID = srcEP->simpleDesc->AppProfId;
        LCALL   ??Subroutine31_0 & 0xFFFF
//  548   }
??CrossCallReturnLabel_76:
        MOV     A,#0x11
        LCALL   ?XSTACK_DISP0_8
        LCALL   ??Subroutine29_0 & 0xFFFF
//  549 
//  550   req.txOptions = 0;
??CrossCallReturnLabel_53:
        MOV     A,#0x17
        LCALL   ?XSTACK_DISP0_8
        CLR     A
        MOVX    @DPTR,A
        INC     DPTR
        MOVX    @DPTR,A
//  551 
//  552   if ( ( options & AF_ACK_REQUEST              ) &&
//  553        ( req.dstAddr.addrMode != AddrBroadcast ) &&
//  554        ( req.dstAddr.addrMode != AddrGroup     )    )
        MOV     A,?V0 + 2
        MOV     C,0xE0 /* A   */.4
        JNC     ??AF_DataRequest_12
        MOV     A,#0xa
        LCALL   ?XSTACK_DISP0_8
        MOVX    A,@DPTR
        MOV     R0,A
        MOV     A,#0xf
        XRL     A,R0
        JZ      ??AF_DataRequest_12
        MOV     A,#0x1
        XRL     A,R0
        JZ      ??AF_DataRequest_12
//  555   {
//  556     req.txOptions |=  APS_TX_OPTIONS_ACK;
        MOV     A,#0x17
        LCALL   ?XSTACK_DISP0_8
        MOV     A,#0x4
        MOVX    @DPTR,A
        INC     DPTR
        CLR     A
        MOVX    @DPTR,A
//  557   }
//  558 
//  559   if ( options & AF_SKIP_ROUTING )
??AF_DataRequest_12:
        MOV     A,?V0 + 2
        MOV     C,0xE0 /* A   */.7
        JNC     ??AF_DataRequest_13
//  560   {
//  561     req.txOptions |=  APS_TX_OPTIONS_SKIP_ROUTING;
        MOV     A,#0x17
        LCALL   ?XSTACK_DISP0_8
        MOVX    A,@DPTR
        ORL     A,#0x10
        MOVX    @DPTR,A
//  562   }
//  563 
//  564   if ( options & AF_EN_SECURITY )
??AF_DataRequest_13:
        MOV     A,?V0 + 2
        MOV     C,0xE0 /* A   */.6
        JNC     ??AF_DataRequest_14
//  565   {
//  566     req.txOptions |= APS_TX_OPTIONS_SECURITY_ENABLE;
        MOV     A,#0x17
        LCALL   ?XSTACK_DISP0_8
        MOVX    A,@DPTR
        ORL     A,#0x1
        MOVX    @DPTR,A
//  567     mtu.aps.secure = TRUE;
        MOV     A,#0x1
        LCALL   ?XSTACK_DISP0_8
        MOV     A,#0x1
        SJMP    ??AF_DataRequest_15
//  568   }
//  569   else
//  570   {
//  571     mtu.aps.secure = FALSE;
??AF_DataRequest_14:
        MOV     A,#0x1
        LCALL   ?XSTACK_DISP0_8
        CLR     A
//  572   }
??AF_DataRequest_15:
        LCALL   ?Subroutine7 & 0xFFFF
//  573 
//  574   mtu.kvp = FALSE;
??CrossCallReturnLabel_4:
        CLR     A
        MOVX    @DPTR,A
//  575 
//  576   req.transID       = *transID;
        MOV     DPL,?V0 + 6
        MOV     DPH,?V0 + 7
        MOVX    A,@DPTR
        PUSH    A
        CFI CFA_SP SP+-1
        MOV     A,#0x19
        LCALL   ?XSTACK_DISP0_8
        POP     A
        CFI CFA_SP SP+0
        MOVX    @DPTR,A
//  577   req.srcEP         = srcEP->endPoint;
        MOV     DPL,?V0 + 0
        MOV     DPH,?V0 + 1
        MOVX    A,@DPTR
        PUSH    A
        CFI CFA_SP SP+-1
        MOV     A,#0xb
        LCALL   ?XSTACK_DISP0_8
        POP     A
        CFI CFA_SP SP+0
        MOVX    @DPTR,A
//  578   req.dstEP         = dstAddr->endPoint;
        MOV     DPL,R6
        MOV     DPH,R7
        INC     DPTR
        INC     DPTR
        INC     DPTR
        INC     DPTR
        INC     DPTR
        INC     DPTR
        INC     DPTR
        INC     DPTR
        INC     DPTR
        MOVX    A,@DPTR
        PUSH    A
        CFI CFA_SP SP+-1
        MOV     A,#0xc
        LCALL   ?XSTACK_DISP0_8
        POP     A
        CFI CFA_SP SP+0
        MOVX    @DPTR,A
//  579   req.clusterID     = cID;
        MOV     A,#0xf
        LCALL   ?XSTACK_DISP0_8
        MOV     A,?V0 + 10
        MOVX    @DPTR,A
        INC     DPTR
        MOV     A,?V0 + 11
        MOVX    @DPTR,A
//  580   req.asduLen       = len;
        MOV     A,#0x13
        LCALL   ?XSTACK_DISP0_8
        MOV     A,?V0 + 8
        MOVX    @DPTR,A
        INC     DPTR
        MOV     A,?V0 + 9
        MOVX    @DPTR,A
//  581   req.asdu          = buf;
        MOV     A,#0x15
        LCALL   ?XSTACK_DISP0_8
        MOV     A,?V0 + 12
        MOVX    @DPTR,A
        INC     DPTR
        MOV     A,?V0 + 13
        MOVX    @DPTR,A
//  582   req.discoverRoute = AF_DataRequestDiscoverRoute;//(uint8)((options & AF_DISCV_ROUTE) ? 1 : 0);
        MOV     DPTR,#AF_DataRequestDiscoverRoute
        MOVX    A,@DPTR
        PUSH    A
        CFI CFA_SP SP+-1
        MOV     A,#0x1a
        LCALL   ?XSTACK_DISP0_8
        POP     A
        CFI CFA_SP SP+0
        MOVX    @DPTR,A
//  583   req.radiusCounter = radius;
        MOV     A,#0x1b
        LCALL   ?XSTACK_DISP0_8
        MOV     A,?V0 + 3
        LCALL   ?Subroutine7 & 0xFFFF
//  584 #if defined ( INTER_PAN )
//  585   req.dstPanId      = dstAddr->panId;
//  586 
//  587   if ( StubAPS_InterPan( dstAddr->panId, dstAddr->endPoint ) )
//  588   {
//  589     if ( len > INTERP_DataReqMTU() )
//  590     {
//  591       stat = afStatus_INVALID_PARAMETER;
//  592     }
//  593     else
//  594     {
//  595       stat = INTERP_DataReq( &req );
//  596     }
//  597   }
//  598   else
//  599 #endif // INTER_PAN
//  600   {
//  601     if (len > afDataReqMTU( &mtu ) )
??CrossCallReturnLabel_5:
        MOV     R2,DPL
        MOV     R3,DPH
        LCALL   ??afDataReqMTU?relay
        MOV     A,R1
        CLR     C
        SUBB    A,?V0 + 8
        CLR     A
        SUBB    A,?V0 + 9
        JNC     ??AF_DataRequest_16
//  602     {
//  603       if (apsfSendFragmented)
        MOV     DPTR,#apsfSendFragmented
        LCALL   ?Subroutine9 & 0xFFFF
??CrossCallReturnLabel_11:
        JZ      ??AF_DataRequest_17
//  604       {
//  605         stat = (*apsfSendFragmented)( &req );
        ; Setup parameters for indirect call
        MOV     A,#0x2
        LCALL   ?XSTACK_DISP0_8
        MOV     R2,DPL
        MOV     R3,DPH
        MOV     DPTR,#apsfSendFragmented + 1
        MOVX    A,@DPTR
        MOV     DPH,A
        MOV     DPL,R0
        LCALL   ?CALL_IND
        SJMP    ??AF_DataRequest_18
//  606       }
//  607       else
//  608       {
//  609         stat = afStatus_INVALID_PARAMETER;
??AF_DataRequest_17:
        MOV     R6,#0x2
        SJMP    ??AF_DataRequest_19
//  610       }
//  611     }
//  612     else
//  613     {
//  614       stat = APSDE_DataReq( &req );
??AF_DataRequest_16:
        ; Setup parameters for call to function APSDE_DataReq
        MOV     A,#0x2
        LCALL   ?XSTACK_DISP0_8
        MOV     R2,DPL
        MOV     R3,DPH
        LCALL   ??APSDE_DataReq?relay
??AF_DataRequest_18:
        MOV     A,R1
        MOV     R6,A
//  615     }
//  616   }
//  617 
//  618   /*
//  619    * If this is an EndPoint-to-EndPoint message on the same device, it will not
//  620    * get added to the NWK databufs. So it will not go OTA and it will not get
//  621    * a MACCB_DATA_CONFIRM_CMD callback. Thus it is necessary to generate the
//  622    * AF_DATA_CONFIRM_CMD here. Note that APSDE_DataConfirm() only generates one
//  623    * message with the first in line TransSeqNumber, even on a multi message.
//  624    * Also note that a reflected msg will not have its confirmation generated
//  625    * here.
//  626    */
//  627   if ( (req.dstAddr.addrMode == Addr16Bit) &&
//  628        (req.dstAddr.addr.shortAddr == NLME_GetShortAddr()) )
??AF_DataRequest_19:
        MOV     A,#0xa
        LCALL   ?XSTACK_DISP0_8
        MOVX    A,@DPTR
        XRL     A,#0x2
        JNZ     ??AF_DataRequest_20
        ; Setup parameters for call to function NLME_GetShortAddr
        LCALL   ??NLME_GetShortAddr?relay
        MOV     ?V0 + 4,R2
        MOV     ?V0 + 5,R3
        MOV     R0,?V0 + 4
        MOV     R1,?V0 + 5
        MOV     A,#0x2
        LCALL   ?XSTACK_DISP0_8
        MOVX    A,@DPTR
        XRL     A,R0
        JNZ     ??AF_DataRequest_21
        INC     DPTR
        MOVX    A,@DPTR
        XRL     A,R1
??AF_DataRequest_21:
        JNZ     ??AF_DataRequest_20
//  629   {
//  630     afDataConfirm( srcEP->endPoint, *transID, stat );
        ; Setup parameters for call to function afDataConfirm
        MOV     A,R6
        MOV     R3,A
        MOV     DPL,?V0 + 6
        MOV     DPH,?V0 + 7
        MOVX    A,@DPTR
        MOV     R2,A
        MOV     DPL,?V0 + 0
        MOV     DPH,?V0 + 1
        MOVX    A,@DPTR
        MOV     R1,A
        LCALL   ??afDataConfirm?relay
//  631   }
//  632 
//  633   if ( stat == afStatus_SUCCESS )
??AF_DataRequest_20:
        MOV     A,R6
        JNZ     ??AF_DataRequest_22
//  634   {
//  635     (*transID)++;
        MOV     DPL,?V0 + 6
        MOV     DPH,?V0 + 7
        MOVX    A,@DPTR
        INC     A
        MOVX    @DPTR,A
//  636   }
//  637 
//  638   return (afStatus_t)stat;
??AF_DataRequest_22:
        MOV     A,R6
        MOV     R1,A
??AF_DataRequest_2:
        MOV     A,#0x1e
        LCALL   ?DEALLOC_XSTACK8
        CFI CFA_XSP16 add(XSP16, 22)
        MOV     R7,#0xe
        LJMP    ?BANKED_LEAVE_XDATA
        CFI EndBlock cfiBlock63
//  639 }

        RSEG BANKED_CODE:CODE:NOROOT(0)
?Subroutine20:
        CFI Block cfiCond64 Using cfiCommon0
        CFI NoFunction
        CFI Conditional ??CrossCallReturnLabel_35
        CFI R6 load(1, XDATA, add(CFA_XSP16, literal(-24)))
        CFI VB load(1, XDATA, add(CFA_XSP16, literal(-23)))
        CFI V0 load(1, XDATA, add(CFA_XSP16, literal(-22)))
        CFI V1 load(1, XDATA, add(CFA_XSP16, literal(-21)))
        CFI V2 load(1, XDATA, add(CFA_XSP16, literal(-20)))
        CFI V3 load(1, XDATA, add(CFA_XSP16, literal(-19)))
        CFI V4 load(1, XDATA, add(CFA_XSP16, literal(-18)))
        CFI V5 load(1, XDATA, add(CFA_XSP16, literal(-17)))
        CFI V6 load(1, XDATA, add(CFA_XSP16, literal(-16)))
        CFI V7 load(1, XDATA, add(CFA_XSP16, literal(-15)))
        CFI V8 load(1, XDATA, add(CFA_XSP16, literal(-14)))
        CFI V9 load(1, XDATA, add(CFA_XSP16, literal(-13)))
        CFI V10 load(1, XDATA, add(CFA_XSP16, literal(-12)))
        CFI V11 load(1, XDATA, add(CFA_XSP16, literal(-11)))
        CFI V12 load(1, XDATA, add(CFA_XSP16, literal(-10)))
        CFI V13 load(1, XDATA, add(CFA_XSP16, literal(-9)))
        CFI V14 load(1, XDATA, add(CFA_XSP16, literal(-8)))
        CFI V15 load(1, XDATA, add(CFA_XSP16, literal(-7)))
        CFI R7 load(1, XDATA, add(CFA_XSP16, literal(-6)))
        CFI ?RET_LOW load(1, XDATA, add(CFA_XSP16, literal(-5)))
        CFI ?RET_HIGH load(1, XDATA, add(CFA_XSP16, literal(-4)))
        CFI ?BRET_EXT load(1, XDATA, add(CFA_XSP16, literal(-3)))
        CFI DPL0 load(1, XDATA, add(CFA_XSP16, literal(-2)))
        CFI DPH0 load(1, XDATA, add(CFA_XSP16, literal(-1)))
        CFI CFA_SP SP+0
        CFI CFA_XSP16 add(XSP16, 26)
        CFI Block cfiCond65 Using cfiCommon0
        CFI (cfiCond65) NoFunction
        CFI (cfiCond65) Conditional ??CrossCallReturnLabel_36
        CFI (cfiCond65) R6 load(1, XDATA, add(CFA_XSP16, literal(-22)))
        CFI (cfiCond65) VB load(1, XDATA, add(CFA_XSP16, literal(-21)))
        CFI (cfiCond65) V0 load(1, XDATA, add(CFA_XSP16, literal(-20)))
        CFI (cfiCond65) V1 load(1, XDATA, add(CFA_XSP16, literal(-19)))
        CFI (cfiCond65) V2 load(1, XDATA, add(CFA_XSP16, literal(-18)))
        CFI (cfiCond65) V3 load(1, XDATA, add(CFA_XSP16, literal(-17)))
        CFI (cfiCond65) V4 load(1, XDATA, add(CFA_XSP16, literal(-16)))
        CFI (cfiCond65) V5 load(1, XDATA, add(CFA_XSP16, literal(-15)))
        CFI (cfiCond65) V6 load(1, XDATA, add(CFA_XSP16, literal(-14)))
        CFI (cfiCond65) V7 load(1, XDATA, add(CFA_XSP16, literal(-13)))
        CFI (cfiCond65) V8 load(1, XDATA, add(CFA_XSP16, literal(-12)))
        CFI (cfiCond65) V9 load(1, XDATA, add(CFA_XSP16, literal(-11)))
        CFI (cfiCond65) V10 load(1, XDATA, add(CFA_XSP16, literal(-10)))
        CFI (cfiCond65) V11 load(1, XDATA, add(CFA_XSP16, literal(-9)))
        CFI (cfiCond65) V12 load(1, XDATA, add(CFA_XSP16, literal(-8)))
        CFI (cfiCond65) V13 load(1, XDATA, add(CFA_XSP16, literal(-7)))
        CFI (cfiCond65) R7 load(1, XDATA, add(CFA_XSP16, literal(-6)))
        CFI (cfiCond65) ?RET_LOW load(1, XDATA, add(CFA_XSP16, literal(-5)))
        CFI (cfiCond65) ?RET_HIGH load(1, XDATA, add(CFA_XSP16, literal(-4)))
        CFI (cfiCond65) ?BRET_EXT load(1, XDATA, add(CFA_XSP16, literal(-3)))
        CFI (cfiCond65) DPL0 load(1, XDATA, add(CFA_XSP16, literal(-2)))
        CFI (cfiCond65) DPH0 load(1, XDATA, add(CFA_XSP16, literal(-1)))
        CFI (cfiCond65) CFA_SP SP+0
        CFI (cfiCond65) CFA_XSP16 add(XSP16, 52)
        CFI Block cfiPicker66 Using cfiCommon1
        CFI (cfiPicker66) NoFunction
        CFI (cfiPicker66) Picker
        MOVX    A,@DPTR
        MOV     R2,A
        MOV     R1,#0x2
        MOV     DPL,R4
        MOV     DPH,R5
        RET
        CFI EndBlock cfiCond64
        CFI EndBlock cfiCond65
        CFI EndBlock cfiPicker66

        RSEG BANKED_CODE:CODE:NOROOT(0)
?Subroutine12:
        CFI Block cfiCond67 Using cfiCommon0
        CFI NoFunction
        CFI Conditional ??CrossCallReturnLabel_16
        CFI R6 load(1, XDATA, add(CFA_XSP16, literal(-24)))
        CFI VB load(1, XDATA, add(CFA_XSP16, literal(-23)))
        CFI V0 load(1, XDATA, add(CFA_XSP16, literal(-22)))
        CFI V1 load(1, XDATA, add(CFA_XSP16, literal(-21)))
        CFI V2 load(1, XDATA, add(CFA_XSP16, literal(-20)))
        CFI V3 load(1, XDATA, add(CFA_XSP16, literal(-19)))
        CFI V4 load(1, XDATA, add(CFA_XSP16, literal(-18)))
        CFI V5 load(1, XDATA, add(CFA_XSP16, literal(-17)))
        CFI V6 load(1, XDATA, add(CFA_XSP16, literal(-16)))
        CFI V7 load(1, XDATA, add(CFA_XSP16, literal(-15)))
        CFI V8 load(1, XDATA, add(CFA_XSP16, literal(-14)))
        CFI V9 load(1, XDATA, add(CFA_XSP16, literal(-13)))
        CFI V10 load(1, XDATA, add(CFA_XSP16, literal(-12)))
        CFI V11 load(1, XDATA, add(CFA_XSP16, literal(-11)))
        CFI V12 load(1, XDATA, add(CFA_XSP16, literal(-10)))
        CFI V13 load(1, XDATA, add(CFA_XSP16, literal(-9)))
        CFI V14 load(1, XDATA, add(CFA_XSP16, literal(-8)))
        CFI V15 load(1, XDATA, add(CFA_XSP16, literal(-7)))
        CFI R7 load(1, XDATA, add(CFA_XSP16, literal(-6)))
        CFI ?RET_LOW load(1, XDATA, add(CFA_XSP16, literal(-5)))
        CFI ?RET_HIGH load(1, XDATA, add(CFA_XSP16, literal(-4)))
        CFI ?BRET_EXT load(1, XDATA, add(CFA_XSP16, literal(-3)))
        CFI DPL0 load(1, XDATA, add(CFA_XSP16, literal(-2)))
        CFI DPH0 load(1, XDATA, add(CFA_XSP16, literal(-1)))
        CFI CFA_SP SP+0
        CFI CFA_XSP16 add(XSP16, 26)
        CFI Block cfiCond68 Using cfiCommon0
        CFI (cfiCond68) NoFunction
        CFI (cfiCond68) Conditional ??CrossCallReturnLabel_17
        CFI (cfiCond68) R6 load(1, XDATA, add(CFA_XSP16, literal(-22)))
        CFI (cfiCond68) VB load(1, XDATA, add(CFA_XSP16, literal(-21)))
        CFI (cfiCond68) V0 load(1, XDATA, add(CFA_XSP16, literal(-20)))
        CFI (cfiCond68) V1 load(1, XDATA, add(CFA_XSP16, literal(-19)))
        CFI (cfiCond68) V2 load(1, XDATA, add(CFA_XSP16, literal(-18)))
        CFI (cfiCond68) V3 load(1, XDATA, add(CFA_XSP16, literal(-17)))
        CFI (cfiCond68) V4 load(1, XDATA, add(CFA_XSP16, literal(-16)))
        CFI (cfiCond68) V5 load(1, XDATA, add(CFA_XSP16, literal(-15)))
        CFI (cfiCond68) V6 load(1, XDATA, add(CFA_XSP16, literal(-14)))
        CFI (cfiCond68) V7 load(1, XDATA, add(CFA_XSP16, literal(-13)))
        CFI (cfiCond68) V8 load(1, XDATA, add(CFA_XSP16, literal(-12)))
        CFI (cfiCond68) V9 load(1, XDATA, add(CFA_XSP16, literal(-11)))
        CFI (cfiCond68) V10 load(1, XDATA, add(CFA_XSP16, literal(-10)))
        CFI (cfiCond68) V11 load(1, XDATA, add(CFA_XSP16, literal(-9)))
        CFI (cfiCond68) V12 load(1, XDATA, add(CFA_XSP16, literal(-8)))
        CFI (cfiCond68) V13 load(1, XDATA, add(CFA_XSP16, literal(-7)))
        CFI (cfiCond68) R7 load(1, XDATA, add(CFA_XSP16, literal(-6)))
        CFI (cfiCond68) ?RET_LOW load(1, XDATA, add(CFA_XSP16, literal(-5)))
        CFI (cfiCond68) ?RET_HIGH load(1, XDATA, add(CFA_XSP16, literal(-4)))
        CFI (cfiCond68) ?BRET_EXT load(1, XDATA, add(CFA_XSP16, literal(-3)))
        CFI (cfiCond68) DPL0 load(1, XDATA, add(CFA_XSP16, literal(-2)))
        CFI (cfiCond68) DPH0 load(1, XDATA, add(CFA_XSP16, literal(-1)))
        CFI (cfiCond68) CFA_SP SP+0
        CFI (cfiCond68) CFA_XSP16 add(XSP16, 52)
        CFI Block cfiPicker69 Using cfiCommon1
        CFI (cfiPicker69) NoFunction
        CFI (cfiPicker69) Picker
        LCALL   ?Subroutine25 & 0xFFFF
??CrossCallReturnLabel_80:
        MOV     DPL,R0
        MOV     DPH,R1
        MOV     A,DPL
        ORL     A,DPH
        RET
        CFI EndBlock cfiCond67
        CFI EndBlock cfiCond68
        CFI EndBlock cfiPicker69

        RSEG BANKED_CODE:CODE:NOROOT(0)
?Subroutine9:
        CFI Block cfiCond70 Using cfiCommon0
        CFI NoFunction
        CFI Conditional ??CrossCallReturnLabel_9
        CFI R6 load(1, XDATA, add(CFA_XSP16, literal(-12)))
        CFI VB load(1, XDATA, add(CFA_XSP16, literal(-11)))
        CFI V0 load(1, XDATA, add(CFA_XSP16, literal(-10)))
        CFI V1 load(1, XDATA, add(CFA_XSP16, literal(-9)))
        CFI V2 load(1, XDATA, add(CFA_XSP16, literal(-8)))
        CFI V3 load(1, XDATA, add(CFA_XSP16, literal(-7)))
        CFI R7 load(1, XDATA, add(CFA_XSP16, literal(-6)))
        CFI ?RET_LOW load(1, XDATA, add(CFA_XSP16, literal(-5)))
        CFI ?RET_HIGH load(1, XDATA, add(CFA_XSP16, literal(-4)))
        CFI ?BRET_EXT load(1, XDATA, add(CFA_XSP16, literal(-3)))
        CFI DPL0 load(1, XDATA, add(CFA_XSP16, literal(-2)))
        CFI DPH0 load(1, XDATA, add(CFA_XSP16, literal(-1)))
        CFI CFA_SP SP+0
        CFI CFA_XSP16 add(XSP16, 12)
        CFI Block cfiCond71 Using cfiCommon0
        CFI (cfiCond71) NoFunction
        CFI (cfiCond71) Conditional ??CrossCallReturnLabel_10
        CFI (cfiCond71) R6 load(1, XDATA, add(CFA_XSP16, literal(-12)))
        CFI (cfiCond71) VB load(1, XDATA, add(CFA_XSP16, literal(-11)))
        CFI (cfiCond71) V0 load(1, XDATA, add(CFA_XSP16, literal(-10)))
        CFI (cfiCond71) V1 load(1, XDATA, add(CFA_XSP16, literal(-9)))
        CFI (cfiCond71) V2 load(1, XDATA, add(CFA_XSP16, literal(-8)))
        CFI (cfiCond71) V3 load(1, XDATA, add(CFA_XSP16, literal(-7)))
        CFI (cfiCond71) R7 load(1, XDATA, add(CFA_XSP16, literal(-6)))
        CFI (cfiCond71) ?RET_LOW load(1, XDATA, add(CFA_XSP16, literal(-5)))
        CFI (cfiCond71) ?RET_HIGH load(1, XDATA, add(CFA_XSP16, literal(-4)))
        CFI (cfiCond71) ?BRET_EXT load(1, XDATA, add(CFA_XSP16, literal(-3)))
        CFI (cfiCond71) DPL0 load(1, XDATA, add(CFA_XSP16, literal(-2)))
        CFI (cfiCond71) DPH0 load(1, XDATA, add(CFA_XSP16, literal(-1)))
        CFI (cfiCond71) CFA_SP SP+0
        CFI (cfiCond71) CFA_XSP16 add(XSP16, 12)
        CFI Block cfiCond72 Using cfiCommon0
        CFI (cfiCond72) NoFunction
        CFI (cfiCond72) Conditional ??CrossCallReturnLabel_8
        CFI (cfiCond72) R6 load(1, XDATA, add(CFA_XSP16, literal(-22)))
        CFI (cfiCond72) VB load(1, XDATA, add(CFA_XSP16, literal(-21)))
        CFI (cfiCond72) V0 load(1, XDATA, add(CFA_XSP16, literal(-20)))
        CFI (cfiCond72) V1 load(1, XDATA, add(CFA_XSP16, literal(-19)))
        CFI (cfiCond72) V2 load(1, XDATA, add(CFA_XSP16, literal(-18)))
        CFI (cfiCond72) V3 load(1, XDATA, add(CFA_XSP16, literal(-17)))
        CFI (cfiCond72) V4 load(1, XDATA, add(CFA_XSP16, literal(-16)))
        CFI (cfiCond72) V5 load(1, XDATA, add(CFA_XSP16, literal(-15)))
        CFI (cfiCond72) V6 load(1, XDATA, add(CFA_XSP16, literal(-14)))
        CFI (cfiCond72) V7 load(1, XDATA, add(CFA_XSP16, literal(-13)))
        CFI (cfiCond72) V8 load(1, XDATA, add(CFA_XSP16, literal(-12)))
        CFI (cfiCond72) V9 load(1, XDATA, add(CFA_XSP16, literal(-11)))
        CFI (cfiCond72) V10 load(1, XDATA, add(CFA_XSP16, literal(-10)))
        CFI (cfiCond72) V11 load(1, XDATA, add(CFA_XSP16, literal(-9)))
        CFI (cfiCond72) V12 load(1, XDATA, add(CFA_XSP16, literal(-8)))
        CFI (cfiCond72) V13 load(1, XDATA, add(CFA_XSP16, literal(-7)))
        CFI (cfiCond72) R7 load(1, XDATA, add(CFA_XSP16, literal(-6)))
        CFI (cfiCond72) ?RET_LOW load(1, XDATA, add(CFA_XSP16, literal(-5)))
        CFI (cfiCond72) ?RET_HIGH load(1, XDATA, add(CFA_XSP16, literal(-4)))
        CFI (cfiCond72) ?BRET_EXT load(1, XDATA, add(CFA_XSP16, literal(-3)))
        CFI (cfiCond72) DPL0 load(1, XDATA, add(CFA_XSP16, literal(-2)))
        CFI (cfiCond72) DPH0 load(1, XDATA, add(CFA_XSP16, literal(-1)))
        CFI (cfiCond72) CFA_SP SP+0
        CFI (cfiCond72) CFA_XSP16 add(XSP16, 52)
        CFI Block cfiCond73 Using cfiCommon0
        CFI (cfiCond73) NoFunction
        CFI (cfiCond73) Conditional ??CrossCallReturnLabel_11
        CFI (cfiCond73) R6 load(1, XDATA, add(CFA_XSP16, literal(-22)))
        CFI (cfiCond73) VB load(1, XDATA, add(CFA_XSP16, literal(-21)))
        CFI (cfiCond73) V0 load(1, XDATA, add(CFA_XSP16, literal(-20)))
        CFI (cfiCond73) V1 load(1, XDATA, add(CFA_XSP16, literal(-19)))
        CFI (cfiCond73) V2 load(1, XDATA, add(CFA_XSP16, literal(-18)))
        CFI (cfiCond73) V3 load(1, XDATA, add(CFA_XSP16, literal(-17)))
        CFI (cfiCond73) V4 load(1, XDATA, add(CFA_XSP16, literal(-16)))
        CFI (cfiCond73) V5 load(1, XDATA, add(CFA_XSP16, literal(-15)))
        CFI (cfiCond73) V6 load(1, XDATA, add(CFA_XSP16, literal(-14)))
        CFI (cfiCond73) V7 load(1, XDATA, add(CFA_XSP16, literal(-13)))
        CFI (cfiCond73) V8 load(1, XDATA, add(CFA_XSP16, literal(-12)))
        CFI (cfiCond73) V9 load(1, XDATA, add(CFA_XSP16, literal(-11)))
        CFI (cfiCond73) V10 load(1, XDATA, add(CFA_XSP16, literal(-10)))
        CFI (cfiCond73) V11 load(1, XDATA, add(CFA_XSP16, literal(-9)))
        CFI (cfiCond73) V12 load(1, XDATA, add(CFA_XSP16, literal(-8)))
        CFI (cfiCond73) V13 load(1, XDATA, add(CFA_XSP16, literal(-7)))
        CFI (cfiCond73) R7 load(1, XDATA, add(CFA_XSP16, literal(-6)))
        CFI (cfiCond73) ?RET_LOW load(1, XDATA, add(CFA_XSP16, literal(-5)))
        CFI (cfiCond73) ?RET_HIGH load(1, XDATA, add(CFA_XSP16, literal(-4)))
        CFI (cfiCond73) ?BRET_EXT load(1, XDATA, add(CFA_XSP16, literal(-3)))
        CFI (cfiCond73) DPL0 load(1, XDATA, add(CFA_XSP16, literal(-2)))
        CFI (cfiCond73) DPH0 load(1, XDATA, add(CFA_XSP16, literal(-1)))
        CFI (cfiCond73) CFA_SP SP+0
        CFI (cfiCond73) CFA_XSP16 add(XSP16, 52)
        CFI Block cfiPicker74 Using cfiCommon1
        CFI (cfiPicker74) NoFunction
        CFI (cfiPicker74) Picker
        LCALL   ??Subroutine28_0 & 0xFFFF
??CrossCallReturnLabel_79:
        MOV     A,R0
        ORL     A,R1
        RET
        CFI EndBlock cfiCond70
        CFI EndBlock cfiCond71
        CFI EndBlock cfiCond72
        CFI EndBlock cfiCond73
        CFI EndBlock cfiPicker74

        RSEG BANKED_CODE:CODE:NOROOT(0)
?Subroutine7:
        CFI Block cfiCond75 Using cfiCommon0
        CFI NoFunction
        CFI Conditional ??CrossCallReturnLabel_3
        CFI R6 load(1, XDATA, add(CFA_XSP16, literal(-24)))
        CFI VB load(1, XDATA, add(CFA_XSP16, literal(-23)))
        CFI V0 load(1, XDATA, add(CFA_XSP16, literal(-22)))
        CFI V1 load(1, XDATA, add(CFA_XSP16, literal(-21)))
        CFI V2 load(1, XDATA, add(CFA_XSP16, literal(-20)))
        CFI V3 load(1, XDATA, add(CFA_XSP16, literal(-19)))
        CFI V4 load(1, XDATA, add(CFA_XSP16, literal(-18)))
        CFI V5 load(1, XDATA, add(CFA_XSP16, literal(-17)))
        CFI V6 load(1, XDATA, add(CFA_XSP16, literal(-16)))
        CFI V7 load(1, XDATA, add(CFA_XSP16, literal(-15)))
        CFI V8 load(1, XDATA, add(CFA_XSP16, literal(-14)))
        CFI V9 load(1, XDATA, add(CFA_XSP16, literal(-13)))
        CFI V10 load(1, XDATA, add(CFA_XSP16, literal(-12)))
        CFI V11 load(1, XDATA, add(CFA_XSP16, literal(-11)))
        CFI V12 load(1, XDATA, add(CFA_XSP16, literal(-10)))
        CFI V13 load(1, XDATA, add(CFA_XSP16, literal(-9)))
        CFI V14 load(1, XDATA, add(CFA_XSP16, literal(-8)))
        CFI V15 load(1, XDATA, add(CFA_XSP16, literal(-7)))
        CFI R7 load(1, XDATA, add(CFA_XSP16, literal(-6)))
        CFI ?RET_LOW load(1, XDATA, add(CFA_XSP16, literal(-5)))
        CFI ?RET_HIGH load(1, XDATA, add(CFA_XSP16, literal(-4)))
        CFI ?BRET_EXT load(1, XDATA, add(CFA_XSP16, literal(-3)))
        CFI DPL0 load(1, XDATA, add(CFA_XSP16, literal(-2)))
        CFI DPH0 load(1, XDATA, add(CFA_XSP16, literal(-1)))
        CFI CFA_SP SP+0
        CFI CFA_XSP16 add(XSP16, 25)
        CFI Block cfiCond76 Using cfiCommon0
        CFI (cfiCond76) NoFunction
        CFI (cfiCond76) Conditional ??CrossCallReturnLabel_4
        CFI (cfiCond76) R6 load(1, XDATA, add(CFA_XSP16, literal(-22)))
        CFI (cfiCond76) VB load(1, XDATA, add(CFA_XSP16, literal(-21)))
        CFI (cfiCond76) V0 load(1, XDATA, add(CFA_XSP16, literal(-20)))
        CFI (cfiCond76) V1 load(1, XDATA, add(CFA_XSP16, literal(-19)))
        CFI (cfiCond76) V2 load(1, XDATA, add(CFA_XSP16, literal(-18)))
        CFI (cfiCond76) V3 load(1, XDATA, add(CFA_XSP16, literal(-17)))
        CFI (cfiCond76) V4 load(1, XDATA, add(CFA_XSP16, literal(-16)))
        CFI (cfiCond76) V5 load(1, XDATA, add(CFA_XSP16, literal(-15)))
        CFI (cfiCond76) V6 load(1, XDATA, add(CFA_XSP16, literal(-14)))
        CFI (cfiCond76) V7 load(1, XDATA, add(CFA_XSP16, literal(-13)))
        CFI (cfiCond76) V8 load(1, XDATA, add(CFA_XSP16, literal(-12)))
        CFI (cfiCond76) V9 load(1, XDATA, add(CFA_XSP16, literal(-11)))
        CFI (cfiCond76) V10 load(1, XDATA, add(CFA_XSP16, literal(-10)))
        CFI (cfiCond76) V11 load(1, XDATA, add(CFA_XSP16, literal(-9)))
        CFI (cfiCond76) V12 load(1, XDATA, add(CFA_XSP16, literal(-8)))
        CFI (cfiCond76) V13 load(1, XDATA, add(CFA_XSP16, literal(-7)))
        CFI (cfiCond76) R7 load(1, XDATA, add(CFA_XSP16, literal(-6)))
        CFI (cfiCond76) ?RET_LOW load(1, XDATA, add(CFA_XSP16, literal(-5)))
        CFI (cfiCond76) ?RET_HIGH load(1, XDATA, add(CFA_XSP16, literal(-4)))
        CFI (cfiCond76) ?BRET_EXT load(1, XDATA, add(CFA_XSP16, literal(-3)))
        CFI (cfiCond76) DPL0 load(1, XDATA, add(CFA_XSP16, literal(-2)))
        CFI (cfiCond76) DPH0 load(1, XDATA, add(CFA_XSP16, literal(-1)))
        CFI (cfiCond76) CFA_SP SP+0
        CFI (cfiCond76) CFA_XSP16 add(XSP16, 52)
        CFI Block cfiCond77 Using cfiCommon0
        CFI (cfiCond77) NoFunction
        CFI (cfiCond77) Conditional ??CrossCallReturnLabel_5
        CFI (cfiCond77) R6 load(1, XDATA, add(CFA_XSP16, literal(-22)))
        CFI (cfiCond77) VB load(1, XDATA, add(CFA_XSP16, literal(-21)))
        CFI (cfiCond77) V0 load(1, XDATA, add(CFA_XSP16, literal(-20)))
        CFI (cfiCond77) V1 load(1, XDATA, add(CFA_XSP16, literal(-19)))
        CFI (cfiCond77) V2 load(1, XDATA, add(CFA_XSP16, literal(-18)))
        CFI (cfiCond77) V3 load(1, XDATA, add(CFA_XSP16, literal(-17)))
        CFI (cfiCond77) V4 load(1, XDATA, add(CFA_XSP16, literal(-16)))
        CFI (cfiCond77) V5 load(1, XDATA, add(CFA_XSP16, literal(-15)))
        CFI (cfiCond77) V6 load(1, XDATA, add(CFA_XSP16, literal(-14)))
        CFI (cfiCond77) V7 load(1, XDATA, add(CFA_XSP16, literal(-13)))
        CFI (cfiCond77) V8 load(1, XDATA, add(CFA_XSP16, literal(-12)))
        CFI (cfiCond77) V9 load(1, XDATA, add(CFA_XSP16, literal(-11)))
        CFI (cfiCond77) V10 load(1, XDATA, add(CFA_XSP16, literal(-10)))
        CFI (cfiCond77) V11 load(1, XDATA, add(CFA_XSP16, literal(-9)))
        CFI (cfiCond77) V12 load(1, XDATA, add(CFA_XSP16, literal(-8)))
        CFI (cfiCond77) V13 load(1, XDATA, add(CFA_XSP16, literal(-7)))
        CFI (cfiCond77) R7 load(1, XDATA, add(CFA_XSP16, literal(-6)))
        CFI (cfiCond77) ?RET_LOW load(1, XDATA, add(CFA_XSP16, literal(-5)))
        CFI (cfiCond77) ?RET_HIGH load(1, XDATA, add(CFA_XSP16, literal(-4)))
        CFI (cfiCond77) ?BRET_EXT load(1, XDATA, add(CFA_XSP16, literal(-3)))
        CFI (cfiCond77) DPL0 load(1, XDATA, add(CFA_XSP16, literal(-2)))
        CFI (cfiCond77) DPH0 load(1, XDATA, add(CFA_XSP16, literal(-1)))
        CFI (cfiCond77) CFA_SP SP+0
        CFI (cfiCond77) CFA_XSP16 add(XSP16, 52)
        CFI Block cfiPicker78 Using cfiCommon1
        CFI (cfiPicker78) NoFunction
        CFI (cfiPicker78) Picker
        MOVX    @DPTR,A
        ; Setup parameters for call to function afDataReqMTU
        MOV     DPL,?XSP + 0
        MOV     DPH,?XSP + 1
        RET
        CFI EndBlock cfiCond75
        CFI EndBlock cfiCond76
        CFI EndBlock cfiCond77
        CFI EndBlock cfiPicker78

        RSEG BANKED_CODE:CODE:NOROOT(0)
?Subroutine6:
        CFI Block cfiCond79 Using cfiCommon0
        CFI NoFunction
        CFI Conditional ??CrossCallReturnLabel_55
        CFI R6 load(1, XDATA, add(CFA_XSP16, literal(-24)))
        CFI VB load(1, XDATA, add(CFA_XSP16, literal(-23)))
        CFI V0 load(1, XDATA, add(CFA_XSP16, literal(-22)))
        CFI V1 load(1, XDATA, add(CFA_XSP16, literal(-21)))
        CFI V2 load(1, XDATA, add(CFA_XSP16, literal(-20)))
        CFI V3 load(1, XDATA, add(CFA_XSP16, literal(-19)))
        CFI V4 load(1, XDATA, add(CFA_XSP16, literal(-18)))
        CFI V5 load(1, XDATA, add(CFA_XSP16, literal(-17)))
        CFI V6 load(1, XDATA, add(CFA_XSP16, literal(-16)))
        CFI V7 load(1, XDATA, add(CFA_XSP16, literal(-15)))
        CFI V8 load(1, XDATA, add(CFA_XSP16, literal(-14)))
        CFI V9 load(1, XDATA, add(CFA_XSP16, literal(-13)))
        CFI V10 load(1, XDATA, add(CFA_XSP16, literal(-12)))
        CFI V11 load(1, XDATA, add(CFA_XSP16, literal(-11)))
        CFI V12 load(1, XDATA, add(CFA_XSP16, literal(-10)))
        CFI V13 load(1, XDATA, add(CFA_XSP16, literal(-9)))
        CFI V14 load(1, XDATA, add(CFA_XSP16, literal(-8)))
        CFI V15 load(1, XDATA, add(CFA_XSP16, literal(-7)))
        CFI R7 load(1, XDATA, add(CFA_XSP16, literal(-6)))
        CFI ?RET_LOW load(1, XDATA, add(CFA_XSP16, literal(-5)))
        CFI ?RET_HIGH load(1, XDATA, add(CFA_XSP16, literal(-4)))
        CFI ?BRET_EXT load(1, XDATA, add(CFA_XSP16, literal(-3)))
        CFI DPL0 load(1, XDATA, add(CFA_XSP16, literal(-2)))
        CFI DPH0 load(1, XDATA, add(CFA_XSP16, literal(-1)))
        CFI CFA_SP SP+0
        CFI CFA_XSP16 add(XSP16, 25)
        CFI Block cfiCond80 Using cfiCommon0
        CFI (cfiCond80) NoFunction
        CFI (cfiCond80) Conditional ??CrossCallReturnLabel_56
        CFI (cfiCond80) R6 load(1, XDATA, add(CFA_XSP16, literal(-24)))
        CFI (cfiCond80) VB load(1, XDATA, add(CFA_XSP16, literal(-23)))
        CFI (cfiCond80) V0 load(1, XDATA, add(CFA_XSP16, literal(-22)))
        CFI (cfiCond80) V1 load(1, XDATA, add(CFA_XSP16, literal(-21)))
        CFI (cfiCond80) V2 load(1, XDATA, add(CFA_XSP16, literal(-20)))
        CFI (cfiCond80) V3 load(1, XDATA, add(CFA_XSP16, literal(-19)))
        CFI (cfiCond80) V4 load(1, XDATA, add(CFA_XSP16, literal(-18)))
        CFI (cfiCond80) V5 load(1, XDATA, add(CFA_XSP16, literal(-17)))
        CFI (cfiCond80) V6 load(1, XDATA, add(CFA_XSP16, literal(-16)))
        CFI (cfiCond80) V7 load(1, XDATA, add(CFA_XSP16, literal(-15)))
        CFI (cfiCond80) V8 load(1, XDATA, add(CFA_XSP16, literal(-14)))
        CFI (cfiCond80) V9 load(1, XDATA, add(CFA_XSP16, literal(-13)))
        CFI (cfiCond80) V10 load(1, XDATA, add(CFA_XSP16, literal(-12)))
        CFI (cfiCond80) V11 load(1, XDATA, add(CFA_XSP16, literal(-11)))
        CFI (cfiCond80) V12 load(1, XDATA, add(CFA_XSP16, literal(-10)))
        CFI (cfiCond80) V13 load(1, XDATA, add(CFA_XSP16, literal(-9)))
        CFI (cfiCond80) V14 load(1, XDATA, add(CFA_XSP16, literal(-8)))
        CFI (cfiCond80) V15 load(1, XDATA, add(CFA_XSP16, literal(-7)))
        CFI (cfiCond80) R7 load(1, XDATA, add(CFA_XSP16, literal(-6)))
        CFI (cfiCond80) ?RET_LOW load(1, XDATA, add(CFA_XSP16, literal(-5)))
        CFI (cfiCond80) ?RET_HIGH load(1, XDATA, add(CFA_XSP16, literal(-4)))
        CFI (cfiCond80) ?BRET_EXT load(1, XDATA, add(CFA_XSP16, literal(-3)))
        CFI (cfiCond80) DPL0 load(1, XDATA, add(CFA_XSP16, literal(-2)))
        CFI (cfiCond80) DPH0 load(1, XDATA, add(CFA_XSP16, literal(-1)))
        CFI (cfiCond80) CFA_SP SP+0
        CFI (cfiCond80) CFA_XSP16 add(XSP16, 25)
        CFI Block cfiPicker81 Using cfiCommon1
        CFI (cfiPicker81) NoFunction
        CFI (cfiPicker81) Picker
        MOV     DPL,A
        MOV     A,R7
        ADDC    A,#0x0
        MOV     DPH,A
        CFI EndBlock cfiCond79
        CFI EndBlock cfiCond80
        CFI EndBlock cfiPicker81
        REQUIRE ??Subroutine29_0
        ; // Fall through to label ??Subroutine29_0

        RSEG BANKED_CODE:CODE:NOROOT(0)
??Subroutine29_0:
        CFI Block cfiCond82 Using cfiCommon0
        CFI NoFunction
        CFI Conditional ??CrossCallReturnLabel_48
        CFI R6 load(1, XDATA, add(CFA_XSP16, literal(-24)))
        CFI VB load(1, XDATA, add(CFA_XSP16, literal(-23)))
        CFI V0 load(1, XDATA, add(CFA_XSP16, literal(-22)))
        CFI V1 load(1, XDATA, add(CFA_XSP16, literal(-21)))
        CFI V2 load(1, XDATA, add(CFA_XSP16, literal(-20)))
        CFI V3 load(1, XDATA, add(CFA_XSP16, literal(-19)))
        CFI V4 load(1, XDATA, add(CFA_XSP16, literal(-18)))
        CFI V5 load(1, XDATA, add(CFA_XSP16, literal(-17)))
        CFI V6 load(1, XDATA, add(CFA_XSP16, literal(-16)))
        CFI V7 load(1, XDATA, add(CFA_XSP16, literal(-15)))
        CFI V8 load(1, XDATA, add(CFA_XSP16, literal(-14)))
        CFI V9 load(1, XDATA, add(CFA_XSP16, literal(-13)))
        CFI V10 load(1, XDATA, add(CFA_XSP16, literal(-12)))
        CFI V11 load(1, XDATA, add(CFA_XSP16, literal(-11)))
        CFI V12 load(1, XDATA, add(CFA_XSP16, literal(-10)))
        CFI V13 load(1, XDATA, add(CFA_XSP16, literal(-9)))
        CFI V14 load(1, XDATA, add(CFA_XSP16, literal(-8)))
        CFI V15 load(1, XDATA, add(CFA_XSP16, literal(-7)))
        CFI R7 load(1, XDATA, add(CFA_XSP16, literal(-6)))
        CFI ?RET_LOW load(1, XDATA, add(CFA_XSP16, literal(-5)))
        CFI ?RET_HIGH load(1, XDATA, add(CFA_XSP16, literal(-4)))
        CFI ?BRET_EXT load(1, XDATA, add(CFA_XSP16, literal(-3)))
        CFI DPL0 load(1, XDATA, add(CFA_XSP16, literal(-2)))
        CFI DPH0 load(1, XDATA, add(CFA_XSP16, literal(-1)))
        CFI CFA_SP SP+0
        CFI CFA_XSP16 add(XSP16, 25)
        CFI Block cfiCond83 Using cfiCommon0
        CFI (cfiCond83) NoFunction
        CFI (cfiCond83) Conditional ??CrossCallReturnLabel_49
        CFI (cfiCond83) R6 load(1, XDATA, add(CFA_XSP16, literal(-24)))
        CFI (cfiCond83) VB load(1, XDATA, add(CFA_XSP16, literal(-23)))
        CFI (cfiCond83) V0 load(1, XDATA, add(CFA_XSP16, literal(-22)))
        CFI (cfiCond83) V1 load(1, XDATA, add(CFA_XSP16, literal(-21)))
        CFI (cfiCond83) V2 load(1, XDATA, add(CFA_XSP16, literal(-20)))
        CFI (cfiCond83) V3 load(1, XDATA, add(CFA_XSP16, literal(-19)))
        CFI (cfiCond83) V4 load(1, XDATA, add(CFA_XSP16, literal(-18)))
        CFI (cfiCond83) V5 load(1, XDATA, add(CFA_XSP16, literal(-17)))
        CFI (cfiCond83) V6 load(1, XDATA, add(CFA_XSP16, literal(-16)))
        CFI (cfiCond83) V7 load(1, XDATA, add(CFA_XSP16, literal(-15)))
        CFI (cfiCond83) V8 load(1, XDATA, add(CFA_XSP16, literal(-14)))
        CFI (cfiCond83) V9 load(1, XDATA, add(CFA_XSP16, literal(-13)))
        CFI (cfiCond83) V10 load(1, XDATA, add(CFA_XSP16, literal(-12)))
        CFI (cfiCond83) V11 load(1, XDATA, add(CFA_XSP16, literal(-11)))
        CFI (cfiCond83) V12 load(1, XDATA, add(CFA_XSP16, literal(-10)))
        CFI (cfiCond83) V13 load(1, XDATA, add(CFA_XSP16, literal(-9)))
        CFI (cfiCond83) V14 load(1, XDATA, add(CFA_XSP16, literal(-8)))
        CFI (cfiCond83) V15 load(1, XDATA, add(CFA_XSP16, literal(-7)))
        CFI (cfiCond83) R7 load(1, XDATA, add(CFA_XSP16, literal(-6)))
        CFI (cfiCond83) ?RET_LOW load(1, XDATA, add(CFA_XSP16, literal(-5)))
        CFI (cfiCond83) ?RET_HIGH load(1, XDATA, add(CFA_XSP16, literal(-4)))
        CFI (cfiCond83) ?BRET_EXT load(1, XDATA, add(CFA_XSP16, literal(-3)))
        CFI (cfiCond83) DPL0 load(1, XDATA, add(CFA_XSP16, literal(-2)))
        CFI (cfiCond83) DPH0 load(1, XDATA, add(CFA_XSP16, literal(-1)))
        CFI (cfiCond83) CFA_SP SP+0
        CFI (cfiCond83) CFA_XSP16 add(XSP16, 25)
        CFI Block cfiCond84 Using cfiCommon0
        CFI (cfiCond84) NoFunction
        CFI (cfiCond84) Conditional ??CrossCallReturnLabel_50
        CFI (cfiCond84) R6 load(1, XDATA, add(CFA_XSP16, literal(-24)))
        CFI (cfiCond84) VB load(1, XDATA, add(CFA_XSP16, literal(-23)))
        CFI (cfiCond84) V0 load(1, XDATA, add(CFA_XSP16, literal(-22)))
        CFI (cfiCond84) V1 load(1, XDATA, add(CFA_XSP16, literal(-21)))
        CFI (cfiCond84) V2 load(1, XDATA, add(CFA_XSP16, literal(-20)))
        CFI (cfiCond84) V3 load(1, XDATA, add(CFA_XSP16, literal(-19)))
        CFI (cfiCond84) V4 load(1, XDATA, add(CFA_XSP16, literal(-18)))
        CFI (cfiCond84) V5 load(1, XDATA, add(CFA_XSP16, literal(-17)))
        CFI (cfiCond84) V6 load(1, XDATA, add(CFA_XSP16, literal(-16)))
        CFI (cfiCond84) V7 load(1, XDATA, add(CFA_XSP16, literal(-15)))
        CFI (cfiCond84) V8 load(1, XDATA, add(CFA_XSP16, literal(-14)))
        CFI (cfiCond84) V9 load(1, XDATA, add(CFA_XSP16, literal(-13)))
        CFI (cfiCond84) V10 load(1, XDATA, add(CFA_XSP16, literal(-12)))
        CFI (cfiCond84) V11 load(1, XDATA, add(CFA_XSP16, literal(-11)))
        CFI (cfiCond84) V12 load(1, XDATA, add(CFA_XSP16, literal(-10)))
        CFI (cfiCond84) V13 load(1, XDATA, add(CFA_XSP16, literal(-9)))
        CFI (cfiCond84) V14 load(1, XDATA, add(CFA_XSP16, literal(-8)))
        CFI (cfiCond84) V15 load(1, XDATA, add(CFA_XSP16, literal(-7)))
        CFI (cfiCond84) R7 load(1, XDATA, add(CFA_XSP16, literal(-6)))
        CFI (cfiCond84) ?RET_LOW load(1, XDATA, add(CFA_XSP16, literal(-5)))
        CFI (cfiCond84) ?RET_HIGH load(1, XDATA, add(CFA_XSP16, literal(-4)))
        CFI (cfiCond84) ?BRET_EXT load(1, XDATA, add(CFA_XSP16, literal(-3)))
        CFI (cfiCond84) DPL0 load(1, XDATA, add(CFA_XSP16, literal(-2)))
        CFI (cfiCond84) DPH0 load(1, XDATA, add(CFA_XSP16, literal(-1)))
        CFI (cfiCond84) CFA_SP SP+0
        CFI (cfiCond84) CFA_XSP16 add(XSP16, 25)
        CFI Block cfiCond85 Using cfiCommon0
        CFI (cfiCond85) NoFunction
        CFI (cfiCond85) Conditional ??CrossCallReturnLabel_51
        CFI (cfiCond85) R6 load(1, XDATA, add(CFA_XSP16, literal(-22)))
        CFI (cfiCond85) VB load(1, XDATA, add(CFA_XSP16, literal(-21)))
        CFI (cfiCond85) V0 load(1, XDATA, add(CFA_XSP16, literal(-20)))
        CFI (cfiCond85) V1 load(1, XDATA, add(CFA_XSP16, literal(-19)))
        CFI (cfiCond85) V2 load(1, XDATA, add(CFA_XSP16, literal(-18)))
        CFI (cfiCond85) V3 load(1, XDATA, add(CFA_XSP16, literal(-17)))
        CFI (cfiCond85) V4 load(1, XDATA, add(CFA_XSP16, literal(-16)))
        CFI (cfiCond85) V5 load(1, XDATA, add(CFA_XSP16, literal(-15)))
        CFI (cfiCond85) V6 load(1, XDATA, add(CFA_XSP16, literal(-14)))
        CFI (cfiCond85) V7 load(1, XDATA, add(CFA_XSP16, literal(-13)))
        CFI (cfiCond85) V8 load(1, XDATA, add(CFA_XSP16, literal(-12)))
        CFI (cfiCond85) V9 load(1, XDATA, add(CFA_XSP16, literal(-11)))
        CFI (cfiCond85) V10 load(1, XDATA, add(CFA_XSP16, literal(-10)))
        CFI (cfiCond85) V11 load(1, XDATA, add(CFA_XSP16, literal(-9)))
        CFI (cfiCond85) V12 load(1, XDATA, add(CFA_XSP16, literal(-8)))
        CFI (cfiCond85) V13 load(1, XDATA, add(CFA_XSP16, literal(-7)))
        CFI (cfiCond85) R7 load(1, XDATA, add(CFA_XSP16, literal(-6)))
        CFI (cfiCond85) ?RET_LOW load(1, XDATA, add(CFA_XSP16, literal(-5)))
        CFI (cfiCond85) ?RET_HIGH load(1, XDATA, add(CFA_XSP16, literal(-4)))
        CFI (cfiCond85) ?BRET_EXT load(1, XDATA, add(CFA_XSP16, literal(-3)))
        CFI (cfiCond85) DPL0 load(1, XDATA, add(CFA_XSP16, literal(-2)))
        CFI (cfiCond85) DPH0 load(1, XDATA, add(CFA_XSP16, literal(-1)))
        CFI (cfiCond85) CFA_SP SP+0
        CFI (cfiCond85) CFA_XSP16 add(XSP16, 52)
        CFI Block cfiCond86 Using cfiCommon0
        CFI (cfiCond86) NoFunction
        CFI (cfiCond86) Conditional ??CrossCallReturnLabel_52
        CFI (cfiCond86) R6 load(1, XDATA, add(CFA_XSP16, literal(-22)))
        CFI (cfiCond86) VB load(1, XDATA, add(CFA_XSP16, literal(-21)))
        CFI (cfiCond86) V0 load(1, XDATA, add(CFA_XSP16, literal(-20)))
        CFI (cfiCond86) V1 load(1, XDATA, add(CFA_XSP16, literal(-19)))
        CFI (cfiCond86) V2 load(1, XDATA, add(CFA_XSP16, literal(-18)))
        CFI (cfiCond86) V3 load(1, XDATA, add(CFA_XSP16, literal(-17)))
        CFI (cfiCond86) V4 load(1, XDATA, add(CFA_XSP16, literal(-16)))
        CFI (cfiCond86) V5 load(1, XDATA, add(CFA_XSP16, literal(-15)))
        CFI (cfiCond86) V6 load(1, XDATA, add(CFA_XSP16, literal(-14)))
        CFI (cfiCond86) V7 load(1, XDATA, add(CFA_XSP16, literal(-13)))
        CFI (cfiCond86) V8 load(1, XDATA, add(CFA_XSP16, literal(-12)))
        CFI (cfiCond86) V9 load(1, XDATA, add(CFA_XSP16, literal(-11)))
        CFI (cfiCond86) V10 load(1, XDATA, add(CFA_XSP16, literal(-10)))
        CFI (cfiCond86) V11 load(1, XDATA, add(CFA_XSP16, literal(-9)))
        CFI (cfiCond86) V12 load(1, XDATA, add(CFA_XSP16, literal(-8)))
        CFI (cfiCond86) V13 load(1, XDATA, add(CFA_XSP16, literal(-7)))
        CFI (cfiCond86) R7 load(1, XDATA, add(CFA_XSP16, literal(-6)))
        CFI (cfiCond86) ?RET_LOW load(1, XDATA, add(CFA_XSP16, literal(-5)))
        CFI (cfiCond86) ?RET_HIGH load(1, XDATA, add(CFA_XSP16, literal(-4)))
        CFI (cfiCond86) ?BRET_EXT load(1, XDATA, add(CFA_XSP16, literal(-3)))
        CFI (cfiCond86) DPL0 load(1, XDATA, add(CFA_XSP16, literal(-2)))
        CFI (cfiCond86) DPH0 load(1, XDATA, add(CFA_XSP16, literal(-1)))
        CFI (cfiCond86) CFA_SP SP+0
        CFI (cfiCond86) CFA_XSP16 add(XSP16, 52)
        CFI Block cfiCond87 Using cfiCommon0
        CFI (cfiCond87) NoFunction
        CFI (cfiCond87) Conditional ??CrossCallReturnLabel_53
        CFI (cfiCond87) R6 load(1, XDATA, add(CFA_XSP16, literal(-22)))
        CFI (cfiCond87) VB load(1, XDATA, add(CFA_XSP16, literal(-21)))
        CFI (cfiCond87) V0 load(1, XDATA, add(CFA_XSP16, literal(-20)))
        CFI (cfiCond87) V1 load(1, XDATA, add(CFA_XSP16, literal(-19)))
        CFI (cfiCond87) V2 load(1, XDATA, add(CFA_XSP16, literal(-18)))
        CFI (cfiCond87) V3 load(1, XDATA, add(CFA_XSP16, literal(-17)))
        CFI (cfiCond87) V4 load(1, XDATA, add(CFA_XSP16, literal(-16)))
        CFI (cfiCond87) V5 load(1, XDATA, add(CFA_XSP16, literal(-15)))
        CFI (cfiCond87) V6 load(1, XDATA, add(CFA_XSP16, literal(-14)))
        CFI (cfiCond87) V7 load(1, XDATA, add(CFA_XSP16, literal(-13)))
        CFI (cfiCond87) V8 load(1, XDATA, add(CFA_XSP16, literal(-12)))
        CFI (cfiCond87) V9 load(1, XDATA, add(CFA_XSP16, literal(-11)))
        CFI (cfiCond87) V10 load(1, XDATA, add(CFA_XSP16, literal(-10)))
        CFI (cfiCond87) V11 load(1, XDATA, add(CFA_XSP16, literal(-9)))
        CFI (cfiCond87) V12 load(1, XDATA, add(CFA_XSP16, literal(-8)))
        CFI (cfiCond87) V13 load(1, XDATA, add(CFA_XSP16, literal(-7)))
        CFI (cfiCond87) R7 load(1, XDATA, add(CFA_XSP16, literal(-6)))
        CFI (cfiCond87) ?RET_LOW load(1, XDATA, add(CFA_XSP16, literal(-5)))
        CFI (cfiCond87) ?RET_HIGH load(1, XDATA, add(CFA_XSP16, literal(-4)))
        CFI (cfiCond87) ?BRET_EXT load(1, XDATA, add(CFA_XSP16, literal(-3)))
        CFI (cfiCond87) DPL0 load(1, XDATA, add(CFA_XSP16, literal(-2)))
        CFI (cfiCond87) DPH0 load(1, XDATA, add(CFA_XSP16, literal(-1)))
        CFI (cfiCond87) CFA_SP SP+0
        CFI (cfiCond87) CFA_XSP16 add(XSP16, 52)
        CFI Block cfiCond88 Using cfiCommon0
        CFI (cfiCond88) NoFunction
        CFI (cfiCond88) Conditional ??CrossCallReturnLabel_54
        CFI (cfiCond88) R6 load(1, XDATA, add(CFA_XSP16, literal(-9)))
        CFI (cfiCond88) VB load(1, XDATA, add(CFA_XSP16, literal(-8)))
        CFI (cfiCond88) V0 load(1, XDATA, add(CFA_XSP16, literal(-7)))
        CFI (cfiCond88) R7 load(1, XDATA, add(CFA_XSP16, literal(-6)))
        CFI (cfiCond88) ?RET_LOW load(1, XDATA, add(CFA_XSP16, literal(-5)))
        CFI (cfiCond88) ?RET_HIGH load(1, XDATA, add(CFA_XSP16, literal(-4)))
        CFI (cfiCond88) ?BRET_EXT load(1, XDATA, add(CFA_XSP16, literal(-3)))
        CFI (cfiCond88) DPL0 load(1, XDATA, add(CFA_XSP16, literal(-2)))
        CFI (cfiCond88) DPH0 load(1, XDATA, add(CFA_XSP16, literal(-1)))
        CFI (cfiCond88) CFA_SP SP+0
        CFI (cfiCond88) CFA_XSP16 add(XSP16, 9)
        CFI Block cfiCond89 Using cfiCommon0
        CFI (cfiCond89) NoFunction
        CFI (cfiCond89) Conditional ??CrossCallReturnLabel_55
        CFI (cfiCond89) R6 load(1, XDATA, add(CFA_XSP16, literal(-24)))
        CFI (cfiCond89) VB load(1, XDATA, add(CFA_XSP16, literal(-23)))
        CFI (cfiCond89) V0 load(1, XDATA, add(CFA_XSP16, literal(-22)))
        CFI (cfiCond89) V1 load(1, XDATA, add(CFA_XSP16, literal(-21)))
        CFI (cfiCond89) V2 load(1, XDATA, add(CFA_XSP16, literal(-20)))
        CFI (cfiCond89) V3 load(1, XDATA, add(CFA_XSP16, literal(-19)))
        CFI (cfiCond89) V4 load(1, XDATA, add(CFA_XSP16, literal(-18)))
        CFI (cfiCond89) V5 load(1, XDATA, add(CFA_XSP16, literal(-17)))
        CFI (cfiCond89) V6 load(1, XDATA, add(CFA_XSP16, literal(-16)))
        CFI (cfiCond89) V7 load(1, XDATA, add(CFA_XSP16, literal(-15)))
        CFI (cfiCond89) V8 load(1, XDATA, add(CFA_XSP16, literal(-14)))
        CFI (cfiCond89) V9 load(1, XDATA, add(CFA_XSP16, literal(-13)))
        CFI (cfiCond89) V10 load(1, XDATA, add(CFA_XSP16, literal(-12)))
        CFI (cfiCond89) V11 load(1, XDATA, add(CFA_XSP16, literal(-11)))
        CFI (cfiCond89) V12 load(1, XDATA, add(CFA_XSP16, literal(-10)))
        CFI (cfiCond89) V13 load(1, XDATA, add(CFA_XSP16, literal(-9)))
        CFI (cfiCond89) V14 load(1, XDATA, add(CFA_XSP16, literal(-8)))
        CFI (cfiCond89) V15 load(1, XDATA, add(CFA_XSP16, literal(-7)))
        CFI (cfiCond89) R7 load(1, XDATA, add(CFA_XSP16, literal(-6)))
        CFI (cfiCond89) ?RET_LOW load(1, XDATA, add(CFA_XSP16, literal(-5)))
        CFI (cfiCond89) ?RET_HIGH load(1, XDATA, add(CFA_XSP16, literal(-4)))
        CFI (cfiCond89) ?BRET_EXT load(1, XDATA, add(CFA_XSP16, literal(-3)))
        CFI (cfiCond89) DPL0 load(1, XDATA, add(CFA_XSP16, literal(-2)))
        CFI (cfiCond89) DPH0 load(1, XDATA, add(CFA_XSP16, literal(-1)))
        CFI (cfiCond89) CFA_SP SP+0
        CFI (cfiCond89) CFA_XSP16 add(XSP16, 25)
        CFI Block cfiCond90 Using cfiCommon0
        CFI (cfiCond90) NoFunction
        CFI (cfiCond90) Conditional ??CrossCallReturnLabel_56
        CFI (cfiCond90) R6 load(1, XDATA, add(CFA_XSP16, literal(-24)))
        CFI (cfiCond90) VB load(1, XDATA, add(CFA_XSP16, literal(-23)))
        CFI (cfiCond90) V0 load(1, XDATA, add(CFA_XSP16, literal(-22)))
        CFI (cfiCond90) V1 load(1, XDATA, add(CFA_XSP16, literal(-21)))
        CFI (cfiCond90) V2 load(1, XDATA, add(CFA_XSP16, literal(-20)))
        CFI (cfiCond90) V3 load(1, XDATA, add(CFA_XSP16, literal(-19)))
        CFI (cfiCond90) V4 load(1, XDATA, add(CFA_XSP16, literal(-18)))
        CFI (cfiCond90) V5 load(1, XDATA, add(CFA_XSP16, literal(-17)))
        CFI (cfiCond90) V6 load(1, XDATA, add(CFA_XSP16, literal(-16)))
        CFI (cfiCond90) V7 load(1, XDATA, add(CFA_XSP16, literal(-15)))
        CFI (cfiCond90) V8 load(1, XDATA, add(CFA_XSP16, literal(-14)))
        CFI (cfiCond90) V9 load(1, XDATA, add(CFA_XSP16, literal(-13)))
        CFI (cfiCond90) V10 load(1, XDATA, add(CFA_XSP16, literal(-12)))
        CFI (cfiCond90) V11 load(1, XDATA, add(CFA_XSP16, literal(-11)))
        CFI (cfiCond90) V12 load(1, XDATA, add(CFA_XSP16, literal(-10)))
        CFI (cfiCond90) V13 load(1, XDATA, add(CFA_XSP16, literal(-9)))
        CFI (cfiCond90) V14 load(1, XDATA, add(CFA_XSP16, literal(-8)))
        CFI (cfiCond90) V15 load(1, XDATA, add(CFA_XSP16, literal(-7)))
        CFI (cfiCond90) R7 load(1, XDATA, add(CFA_XSP16, literal(-6)))
        CFI (cfiCond90) ?RET_LOW load(1, XDATA, add(CFA_XSP16, literal(-5)))
        CFI (cfiCond90) ?RET_HIGH load(1, XDATA, add(CFA_XSP16, literal(-4)))
        CFI (cfiCond90) ?BRET_EXT load(1, XDATA, add(CFA_XSP16, literal(-3)))
        CFI (cfiCond90) DPL0 load(1, XDATA, add(CFA_XSP16, literal(-2)))
        CFI (cfiCond90) DPH0 load(1, XDATA, add(CFA_XSP16, literal(-1)))
        CFI (cfiCond90) CFA_SP SP+0
        CFI (cfiCond90) CFA_XSP16 add(XSP16, 25)
        CFI Block cfiPicker91 Using cfiCommon1
        CFI (cfiPicker91) NoFunction
        CFI (cfiPicker91) Picker
        MOV     A,R0
        MOVX    @DPTR,A
        INC     DPTR
        MOV     A,R1
        MOVX    @DPTR,A
        RET
        CFI EndBlock cfiCond82
        CFI EndBlock cfiCond83
        CFI EndBlock cfiCond84
        CFI EndBlock cfiCond85
        CFI EndBlock cfiCond86
        CFI EndBlock cfiCond87
        CFI EndBlock cfiCond88
        CFI EndBlock cfiCond89
        CFI EndBlock cfiCond90
        CFI EndBlock cfiPicker91
//  640 
//  641 #if defined ( ZIGBEE_SOURCE_ROUTING )
//  642 /*********************************************************************
//  643  * @fn      AF_DataRequestSrcRtg
//  644  *
//  645  * @brief   Common functionality for invoking APSDE_DataReq() for both
//  646  *          SendMulti and MSG-Send.
//  647  *
//  648  * input parameters
//  649  *
//  650  * @param  *dstAddr - Full ZB destination address: Nwk Addr + End Point.
//  651  * @param  *srcEP - Origination (i.e. respond to or ack to) End Point Descr.
//  652  * @param   cID - A valid cluster ID as specified by the Profile.
//  653  * @param   len - Number of bytes of data pointed to by next param.
//  654  * @param  *buf - A pointer to the data bytes to send.
//  655  * @param  *transID - A pointer to a byte which can be modified and which will
//  656  *                    be used as the transaction sequence number of the msg.
//  657  * @param   options - Valid bit mask of Tx options.
//  658  * @param   radius - Normally set to AF_DEFAULT_RADIUS.
//  659  * @param   relayCnt - Number of devices in the relay list
//  660  * @param   pRelayList - Pointer to the relay list
//  661  *
//  662  * output parameters
//  663  *
//  664  * @param  *transID - Incremented by one if the return value is success.
//  665  *
//  666  * @return  afStatus_t - See previous definition of afStatus_... types.
//  667  */
//  668 
//  669 afStatus_t AF_DataRequestSrcRtg( afAddrType_t *dstAddr, endPointDesc_t *srcEP,
//  670                            uint16 cID, uint16 len, uint8 *buf, uint8 *transID,
//  671                            uint8 options, uint8 radius, uint8 relayCnt, uint16* pRelayList )
//  672 {
//  673   uint8 status;
//  674   
//  675   /* Add the source route to the source routing table */
//  676   status = RTG_AddSrcRtgEntry_Guaranteed( dstAddr->addr.shortAddr, relayCnt, 
//  677                                          pRelayList );
//  678 
//  679   if( status == RTG_SUCCESS)
//  680   {
//  681     /* Call AF_DataRequest to send the data */
//  682     status = AF_DataRequest( dstAddr, srcEP, cID, len, buf, transID, options, radius );
//  683   }
//  684   else if( status == RTG_INVALID_PATH )
//  685   {
//  686     /* The source route relay count is exceeding the network limit */
//  687     status = afStatus_INVALID_PARAMETER;
//  688   }
//  689   else
//  690   {
//  691     /* The guaranteed adding entry fails due to memory failure */
//  692     status = afStatus_MEM_FAIL;
//  693   }
//  694   return status;
//  695 }
//  696 
//  697 #endif
//  698 
//  699 /*********************************************************************
//  700  * @fn      afFindEndPointDescList
//  701  *
//  702  * @brief   Find the endpoint description entry from the endpoint
//  703  *          number.
//  704  *
//  705  * @param   EndPoint - Application Endpoint to look for
//  706  *
//  707  * @return  the address to the endpoint/interface description entry
//  708  */

        RSEG BANKED_CODE:CODE:NOROOT(0)
//  709 static epList_t *afFindEndPointDescList( byte EndPoint )
afFindEndPointDescList:
        CFI Block cfiBlock92 Using cfiCommon0
        CFI Function afFindEndPointDescList
        CODE
//  710 {
        PUSH    DPL
        CFI DPL0 Frame(CFA_SP, 4)
        CFI CFA_SP SP+-4
        PUSH    DPH
        CFI DPH0 Frame(CFA_SP, 5)
        CFI CFA_SP SP+-5
        ; Saved register size: 2
        ; Auto size: 0
//  711   epList_t *epSearch;
//  712 
//  713   // Start at the beginning
//  714   epSearch = epList;
        MOV     DPTR,#epList
        SJMP    ??afFindEndPointDescList_0
//  715 
//  716   // Look through the list until the end
//  717   while ( epSearch )
//  718   {
//  719     // Is there a match?
//  720     if ( epSearch->epDesc->endPoint == EndPoint )
//  721     {
//  722       return ( epSearch );
//  723     }
//  724     else
//  725       epSearch = epSearch->nextDesc;  // Next entry
??afFindEndPointDescList_1:
        MOV     DPL,R2
        MOV     DPH,R3
        INC     DPTR
        INC     DPTR
        INC     DPTR
        INC     DPTR
        INC     DPTR
??afFindEndPointDescList_0:
        LCALL   ?Subroutine18 & 0xFFFF
??CrossCallReturnLabel_30:
        MOV     A,R2
        ORL     A,R3
        JZ      ??afFindEndPointDescList_2
        MOV     DPL,R2
        MOV     DPH,R3
        LCALL   ?Subroutine19 & 0xFFFF
??CrossCallReturnLabel_33:
        XRL     A,R1
        JNZ     ??afFindEndPointDescList_1
        SJMP    ??afFindEndPointDescList_3
//  726   }
//  727 
//  728   return ( (epList_t *)NULL );
??afFindEndPointDescList_2:
        MOV     R2,#0x0
        MOV     R3,#0x0
??afFindEndPointDescList_3:
        LJMP    ?Subroutine0 & 0xFFFF
        CFI EndBlock cfiBlock92
//  729 }

        RSEG BANKED_CODE:CODE:NOROOT(0)
?Subroutine18:
        CFI Block cfiCond93 Using cfiCommon0
        CFI NoFunction
        CFI Conditional ??CrossCallReturnLabel_27
        CFI R6 load(1, XDATA, add(CFA_XSP16, literal(-24)))
        CFI VB load(1, XDATA, add(CFA_XSP16, literal(-23)))
        CFI V0 load(1, XDATA, add(CFA_XSP16, literal(-22)))
        CFI V1 load(1, XDATA, add(CFA_XSP16, literal(-21)))
        CFI V2 load(1, XDATA, add(CFA_XSP16, literal(-20)))
        CFI V3 load(1, XDATA, add(CFA_XSP16, literal(-19)))
        CFI V4 load(1, XDATA, add(CFA_XSP16, literal(-18)))
        CFI V5 load(1, XDATA, add(CFA_XSP16, literal(-17)))
        CFI V6 load(1, XDATA, add(CFA_XSP16, literal(-16)))
        CFI V7 load(1, XDATA, add(CFA_XSP16, literal(-15)))
        CFI V8 load(1, XDATA, add(CFA_XSP16, literal(-14)))
        CFI V9 load(1, XDATA, add(CFA_XSP16, literal(-13)))
        CFI V10 load(1, XDATA, add(CFA_XSP16, literal(-12)))
        CFI V11 load(1, XDATA, add(CFA_XSP16, literal(-11)))
        CFI V12 load(1, XDATA, add(CFA_XSP16, literal(-10)))
        CFI V13 load(1, XDATA, add(CFA_XSP16, literal(-9)))
        CFI V14 load(1, XDATA, add(CFA_XSP16, literal(-8)))
        CFI V15 load(1, XDATA, add(CFA_XSP16, literal(-7)))
        CFI R7 load(1, XDATA, add(CFA_XSP16, literal(-6)))
        CFI ?RET_LOW load(1, XDATA, add(CFA_XSP16, literal(-5)))
        CFI ?RET_HIGH load(1, XDATA, add(CFA_XSP16, literal(-4)))
        CFI ?BRET_EXT load(1, XDATA, add(CFA_XSP16, literal(-3)))
        CFI DPL0 load(1, XDATA, add(CFA_XSP16, literal(-2)))
        CFI DPH0 load(1, XDATA, add(CFA_XSP16, literal(-1)))
        CFI CFA_SP SP+0
        CFI CFA_XSP16 add(XSP16, 28)
        CFI Block cfiCond94 Using cfiCommon0
        CFI (cfiCond94) NoFunction
        CFI (cfiCond94) Conditional ??CrossCallReturnLabel_28
        CFI (cfiCond94) R6 load(1, XDATA, add(CFA_XSP16, literal(-22)))
        CFI (cfiCond94) VB load(1, XDATA, add(CFA_XSP16, literal(-21)))
        CFI (cfiCond94) V0 load(1, XDATA, add(CFA_XSP16, literal(-20)))
        CFI (cfiCond94) V1 load(1, XDATA, add(CFA_XSP16, literal(-19)))
        CFI (cfiCond94) V2 load(1, XDATA, add(CFA_XSP16, literal(-18)))
        CFI (cfiCond94) V3 load(1, XDATA, add(CFA_XSP16, literal(-17)))
        CFI (cfiCond94) V4 load(1, XDATA, add(CFA_XSP16, literal(-16)))
        CFI (cfiCond94) V5 load(1, XDATA, add(CFA_XSP16, literal(-15)))
        CFI (cfiCond94) V6 load(1, XDATA, add(CFA_XSP16, literal(-14)))
        CFI (cfiCond94) V7 load(1, XDATA, add(CFA_XSP16, literal(-13)))
        CFI (cfiCond94) V8 load(1, XDATA, add(CFA_XSP16, literal(-12)))
        CFI (cfiCond94) V9 load(1, XDATA, add(CFA_XSP16, literal(-11)))
        CFI (cfiCond94) V10 load(1, XDATA, add(CFA_XSP16, literal(-10)))
        CFI (cfiCond94) V11 load(1, XDATA, add(CFA_XSP16, literal(-9)))
        CFI (cfiCond94) V12 load(1, XDATA, add(CFA_XSP16, literal(-8)))
        CFI (cfiCond94) V13 load(1, XDATA, add(CFA_XSP16, literal(-7)))
        CFI (cfiCond94) R7 load(1, XDATA, add(CFA_XSP16, literal(-6)))
        CFI (cfiCond94) ?RET_LOW load(1, XDATA, add(CFA_XSP16, literal(-5)))
        CFI (cfiCond94) ?RET_HIGH load(1, XDATA, add(CFA_XSP16, literal(-4)))
        CFI (cfiCond94) ?BRET_EXT load(1, XDATA, add(CFA_XSP16, literal(-3)))
        CFI (cfiCond94) DPL0 load(1, XDATA, add(CFA_XSP16, literal(-2)))
        CFI (cfiCond94) DPH0 load(1, XDATA, add(CFA_XSP16, literal(-1)))
        CFI (cfiCond94) CFA_SP SP+0
        CFI (cfiCond94) CFA_XSP16 add(XSP16, 52)
        CFI Block cfiCond95 Using cfiCommon0
        CFI (cfiCond95) NoFunction
        CFI (cfiCond95) Conditional ??CrossCallReturnLabel_29
        CFI (cfiCond95) R6 load(1, XDATA, add(CFA_XSP16, literal(-22)))
        CFI (cfiCond95) VB load(1, XDATA, add(CFA_XSP16, literal(-21)))
        CFI (cfiCond95) V0 load(1, XDATA, add(CFA_XSP16, literal(-20)))
        CFI (cfiCond95) V1 load(1, XDATA, add(CFA_XSP16, literal(-19)))
        CFI (cfiCond95) V2 load(1, XDATA, add(CFA_XSP16, literal(-18)))
        CFI (cfiCond95) V3 load(1, XDATA, add(CFA_XSP16, literal(-17)))
        CFI (cfiCond95) V4 load(1, XDATA, add(CFA_XSP16, literal(-16)))
        CFI (cfiCond95) V5 load(1, XDATA, add(CFA_XSP16, literal(-15)))
        CFI (cfiCond95) V6 load(1, XDATA, add(CFA_XSP16, literal(-14)))
        CFI (cfiCond95) V7 load(1, XDATA, add(CFA_XSP16, literal(-13)))
        CFI (cfiCond95) V8 load(1, XDATA, add(CFA_XSP16, literal(-12)))
        CFI (cfiCond95) V9 load(1, XDATA, add(CFA_XSP16, literal(-11)))
        CFI (cfiCond95) V10 load(1, XDATA, add(CFA_XSP16, literal(-10)))
        CFI (cfiCond95) V11 load(1, XDATA, add(CFA_XSP16, literal(-9)))
        CFI (cfiCond95) V12 load(1, XDATA, add(CFA_XSP16, literal(-8)))
        CFI (cfiCond95) V13 load(1, XDATA, add(CFA_XSP16, literal(-7)))
        CFI (cfiCond95) R7 load(1, XDATA, add(CFA_XSP16, literal(-6)))
        CFI (cfiCond95) ?RET_LOW load(1, XDATA, add(CFA_XSP16, literal(-5)))
        CFI (cfiCond95) ?RET_HIGH load(1, XDATA, add(CFA_XSP16, literal(-4)))
        CFI (cfiCond95) ?BRET_EXT load(1, XDATA, add(CFA_XSP16, literal(-3)))
        CFI (cfiCond95) DPL0 load(1, XDATA, add(CFA_XSP16, literal(-2)))
        CFI (cfiCond95) DPH0 load(1, XDATA, add(CFA_XSP16, literal(-1)))
        CFI (cfiCond95) CFA_SP SP+0
        CFI (cfiCond95) CFA_XSP16 add(XSP16, 52)
        CFI Block cfiCond96 Using cfiCommon0
        CFI (cfiCond96) NoFunction
        CFI (cfiCond96) Conditional ??CrossCallReturnLabel_30
        CFI (cfiCond96) DPL0 Frame(CFA_SP, 4)
        CFI (cfiCond96) DPH0 Frame(CFA_SP, 5)
        CFI (cfiCond96) CFA_SP SP+-5
        CFI Block cfiCond97 Using cfiCommon0
        CFI (cfiCond97) NoFunction
        CFI (cfiCond97) Conditional ??CrossCallReturnLabel_31
        CFI (cfiCond97) R6 load(1, XDATA, add(CFA_XSP16, literal(-10)))
        CFI (cfiCond97) VB load(1, XDATA, add(CFA_XSP16, literal(-9)))
        CFI (cfiCond97) V0 load(1, XDATA, add(CFA_XSP16, literal(-8)))
        CFI (cfiCond97) V1 load(1, XDATA, add(CFA_XSP16, literal(-7)))
        CFI (cfiCond97) R7 load(1, XDATA, add(CFA_XSP16, literal(-6)))
        CFI (cfiCond97) ?RET_LOW load(1, XDATA, add(CFA_XSP16, literal(-5)))
        CFI (cfiCond97) ?RET_HIGH load(1, XDATA, add(CFA_XSP16, literal(-4)))
        CFI (cfiCond97) ?BRET_EXT load(1, XDATA, add(CFA_XSP16, literal(-3)))
        CFI (cfiCond97) DPL0 load(1, XDATA, add(CFA_XSP16, literal(-2)))
        CFI (cfiCond97) DPH0 load(1, XDATA, add(CFA_XSP16, literal(-1)))
        CFI (cfiCond97) CFA_SP SP+0
        CFI (cfiCond97) CFA_XSP16 add(XSP16, 10)
        CFI Block cfiCond98 Using cfiCommon0
        CFI (cfiCond98) NoFunction
        CFI (cfiCond98) Conditional ??CrossCallReturnLabel_32
        CFI (cfiCond98) R6 load(1, XDATA, add(CFA_XSP16, literal(-12)))
        CFI (cfiCond98) VB load(1, XDATA, add(CFA_XSP16, literal(-11)))
        CFI (cfiCond98) V0 load(1, XDATA, add(CFA_XSP16, literal(-10)))
        CFI (cfiCond98) V1 load(1, XDATA, add(CFA_XSP16, literal(-9)))
        CFI (cfiCond98) V2 load(1, XDATA, add(CFA_XSP16, literal(-8)))
        CFI (cfiCond98) V3 load(1, XDATA, add(CFA_XSP16, literal(-7)))
        CFI (cfiCond98) R7 load(1, XDATA, add(CFA_XSP16, literal(-6)))
        CFI (cfiCond98) ?RET_LOW load(1, XDATA, add(CFA_XSP16, literal(-5)))
        CFI (cfiCond98) ?RET_HIGH load(1, XDATA, add(CFA_XSP16, literal(-4)))
        CFI (cfiCond98) ?BRET_EXT load(1, XDATA, add(CFA_XSP16, literal(-3)))
        CFI (cfiCond98) DPL0 load(1, XDATA, add(CFA_XSP16, literal(-2)))
        CFI (cfiCond98) DPH0 load(1, XDATA, add(CFA_XSP16, literal(-1)))
        CFI (cfiCond98) CFA_SP SP+0
        CFI (cfiCond98) CFA_XSP16 add(XSP16, 12)
        CFI Block cfiPicker99 Using cfiCommon1
        CFI (cfiPicker99) NoFunction
        CFI (cfiPicker99) Picker
        MOVX    A,@DPTR
        MOV     R2,A
        INC     DPTR
        MOVX    A,@DPTR
        MOV     R3,A
        RET
        CFI EndBlock cfiCond93
        CFI EndBlock cfiCond94
        CFI EndBlock cfiCond95
        CFI EndBlock cfiCond96
        CFI EndBlock cfiCond97
        CFI EndBlock cfiCond98
        CFI EndBlock cfiPicker99
//  730 
//  731 /*********************************************************************
//  732  * @fn      afFindEndPointDesc
//  733  *
//  734  * @brief   Find the endpoint description entry from the endpoint
//  735  *          number.
//  736  *
//  737  * @param   EndPoint - Application Endpoint to look for
//  738  *
//  739  * @return  the address to the endpoint/interface description entry
//  740  */

        RSEG BANKED_CODE:CODE:NOROOT(0)
//  741 endPointDesc_t *afFindEndPointDesc( byte EndPoint )
afFindEndPointDesc:
        CFI Block cfiBlock100 Using cfiCommon0
        CFI Function afFindEndPointDesc
        CODE
//  742 {
        FUNCALL afFindEndPointDesc, afFindEndPointDescList
        LOCFRAME ISTACK, 0, STACK
        LOCFRAME PSTACK, 0, STACK
        LOCFRAME XSTACK, 10, STACK
        LOCFRAME IOVERLAY, 0, STATIC
        LOCFRAME DOVERLAY, 0, STATIC
        ARGFRAME ISTACK, 0, STACK
        ARGFRAME PSTACK, 0, STACK
        ARGFRAME XSTACK, 10, STACK
        ARGFRAME IOVERLAY, 0, STATIC
        ARGFRAME DOVERLAY, 0, STATIC
        MOV     A,#-0xa
        LCALL   ?BANKED_ENTER_XDATA
        CFI DPH0 load(1, XDATA, add(CFA_XSP16, literal(-1)))
        CFI DPL0 load(1, XDATA, add(CFA_XSP16, literal(-2)))
        CFI ?BRET_EXT load(1, XDATA, add(CFA_XSP16, literal(-3)))
        CFI ?RET_HIGH load(1, XDATA, add(CFA_XSP16, literal(-4)))
        CFI ?RET_LOW load(1, XDATA, add(CFA_XSP16, literal(-5)))
        CFI R7 load(1, XDATA, add(CFA_XSP16, literal(-6)))
        CFI V1 load(1, XDATA, add(CFA_XSP16, literal(-7)))
        CFI V0 load(1, XDATA, add(CFA_XSP16, literal(-8)))
        CFI VB load(1, XDATA, add(CFA_XSP16, literal(-9)))
        CFI R6 load(1, XDATA, add(CFA_XSP16, literal(-10)))
        CFI CFA_SP SP+0
        CFI CFA_XSP16 add(XSP16, 10)
        ; Saved register size: 10
        ; Auto size: 0
//  743   epList_t *epSearch;
//  744 
//  745   // Look for the endpoint
//  746   epSearch = afFindEndPointDescList( EndPoint );
        ; Setup parameters for call to function afFindEndPointDescList
        LCALL   ?Subroutine23 & 0xFFFF
//  747 
//  748   if ( epSearch )
??CrossCallReturnLabel_39:
        JZ      ??afFindEndPointDesc_0
//  749     return ( epSearch->epDesc );
        LCALL   ?Subroutine18 & 0xFFFF
??CrossCallReturnLabel_31:
        SJMP    ??afFindEndPointDesc_1
//  750   else
//  751     return ( (endPointDesc_t *)NULL );
??afFindEndPointDesc_0:
        MOV     R2,#0x0
        MOV     R3,#0x0
??afFindEndPointDesc_1:
        LJMP    ?Subroutine2 & 0xFFFF
        CFI EndBlock cfiBlock100
//  752 }
//  753 
//  754 /*********************************************************************
//  755  * @fn      afFindSimpleDesc
//  756  *
//  757  * @brief   Find the Simple Descriptor from the endpoint number.
//  758  *
//  759  * @param   EP - Application Endpoint to look for.
//  760  *
//  761  * @return  Non-zero to indicate that the descriptor memory must be freed.
//  762  */

        RSEG BANKED_CODE:CODE:NOROOT(0)
//  763 byte afFindSimpleDesc( SimpleDescriptionFormat_t **ppDesc, byte EP )
afFindSimpleDesc:
        CFI Block cfiBlock101 Using cfiCommon0
        CFI Function afFindSimpleDesc
        CODE
//  764 {
        FUNCALL afFindSimpleDesc, afFindEndPointDescList
        LOCFRAME ISTACK, 0, STACK
        LOCFRAME PSTACK, 0, STACK
        LOCFRAME XSTACK, 12, STACK
        LOCFRAME IOVERLAY, 0, STATIC
        LOCFRAME DOVERLAY, 0, STATIC
        ARGFRAME ISTACK, 0, STACK
        ARGFRAME PSTACK, 0, STACK
        ARGFRAME XSTACK, 12, STACK
        ARGFRAME IOVERLAY, 0, STATIC
        ARGFRAME DOVERLAY, 0, STATIC
        MOV     A,#-0xc
        LCALL   ?BANKED_ENTER_XDATA
        CFI DPH0 load(1, XDATA, add(CFA_XSP16, literal(-1)))
        CFI DPL0 load(1, XDATA, add(CFA_XSP16, literal(-2)))
        CFI ?BRET_EXT load(1, XDATA, add(CFA_XSP16, literal(-3)))
        CFI ?RET_HIGH load(1, XDATA, add(CFA_XSP16, literal(-4)))
        CFI ?RET_LOW load(1, XDATA, add(CFA_XSP16, literal(-5)))
        CFI R7 load(1, XDATA, add(CFA_XSP16, literal(-6)))
        CFI V3 load(1, XDATA, add(CFA_XSP16, literal(-7)))
        CFI V2 load(1, XDATA, add(CFA_XSP16, literal(-8)))
        CFI V1 load(1, XDATA, add(CFA_XSP16, literal(-9)))
        CFI V0 load(1, XDATA, add(CFA_XSP16, literal(-10)))
        CFI VB load(1, XDATA, add(CFA_XSP16, literal(-11)))
        CFI R6 load(1, XDATA, add(CFA_XSP16, literal(-12)))
        CFI CFA_SP SP+0
        CFI CFA_XSP16 add(XSP16, 12)
        ; Saved register size: 12
        ; Auto size: 0
        MOV     A,R2
        MOV     R6,A
        MOV     A,R3
        MOV     R7,A
        MOV     ?V0 + 0,R1
//  765   epList_t *epItem = afFindEndPointDescList( EP );
        ; Setup parameters for call to function afFindEndPointDescList
        LCALL   ??afFindEndPointDescList?relay
        MOV     ?V0 + 2,R2
        MOV     ?V0 + 3,R3
        MOV     R4,?V0 + 2
        MOV     R5,?V0 + 3
//  766   byte rtrn = FALSE;
        MOV     R1,#0x0
//  767 
//  768   if ( epItem )
        MOV     A,R4
        ORL     A,R5
        JZ      ??afFindSimpleDesc_0
//  769   {
//  770     if ( epItem->pfnDescCB )
        MOV     DPL,R4
        MOV     DPH,R5
        LCALL   ?Subroutine17 & 0xFFFF
??CrossCallReturnLabel_25:
        MOV     A,DPL
        ORL     A,DPH
        JZ      ??afFindSimpleDesc_1
//  771     {
//  772       *ppDesc = epItem->pfnDescCB( AF_DESCRIPTOR_SIMPLE, EP );
        ; Setup parameters for indirect call
        MOV     R2,?V0 + 0
        INC     R1
        LCALL   ?CALL_IND
        MOV     DPL,R6
        MOV     DPH,R7
        MOV     A,R2
        MOVX    @DPTR,A
        INC     DPTR
        MOV     A,R3
        MOVX    @DPTR,A
//  773       rtrn = TRUE;
        MOV     R1,#0x1
        SJMP    ??afFindSimpleDesc_2
//  774     }
//  775     else
//  776     {
//  777       *ppDesc = epItem->epDesc->simpleDesc;
??afFindSimpleDesc_1:
        MOV     DPL,R4
        MOV     DPH,R5
        LCALL   ?Subroutine27 & 0xFFFF
//  778     }
//  779   }
??CrossCallReturnLabel_46:
        INC     DPTR
        INC     DPTR
        INC     DPTR
        LCALL   ?Subroutine18 & 0xFFFF
??CrossCallReturnLabel_32:
        MOV     DPL,R6
        MOV     DPH,R7
        MOV     A,R2
        MOVX    @DPTR,A
        INC     DPTR
        MOV     A,R3
        SJMP    ??afFindSimpleDesc_3
//  780   else
//  781   {
//  782     *ppDesc = NULL;
??afFindSimpleDesc_0:
        MOV     DPL,R6
        MOV     DPH,R7
        CLR     A
        MOVX    @DPTR,A
        INC     DPTR
??afFindSimpleDesc_3:
        MOVX    @DPTR,A
//  783   }
//  784 
//  785   return rtrn;
??afFindSimpleDesc_2:
        LJMP    ?Subroutine1 & 0xFFFF
        CFI EndBlock cfiBlock101
//  786 }
//  787 
//  788 /*********************************************************************
//  789  * @fn      afGetDescCB
//  790  *
//  791  * @brief   Get the Descriptor callback function.
//  792  *
//  793  * @param   epDesc - pointer to the endpoint descriptor
//  794  *
//  795  * @return  function pointer or NULL
//  796  */
//  797 static pDescCB afGetDescCB( endPointDesc_t *epDesc )
//  798 {
//  799   epList_t *epSearch;
//  800 
//  801   // Start at the beginning
//  802   epSearch = epList;
//  803 
//  804   // Look through the list until the end
//  805   while ( epSearch )
//  806   {
//  807     // Is there a match?
//  808     if ( epSearch->epDesc == epDesc )
//  809     {
//  810       return ( epSearch->pfnDescCB );
//  811     }
//  812     else
//  813       epSearch = epSearch->nextDesc;  // Next entry
//  814   }
//  815 
//  816   return ( (pDescCB)NULL );
//  817 }
//  818 
//  819 /*********************************************************************
//  820  * @fn      afDataReqMTU
//  821  *
//  822  * @brief   Get the Data Request MTU(Max Transport Unit).
//  823  *
//  824  * @param   fields - afDataReqMTU_t
//  825  *
//  826  * @return  uint8(MTU)
//  827  */

        RSEG BANKED_CODE:CODE:NOROOT(0)
//  828 uint8 afDataReqMTU( afDataReqMTU_t* fields )
afDataReqMTU:
        CFI Block cfiBlock102 Using cfiCommon0
        CFI Function afDataReqMTU
        CODE
//  829 {
        FUNCALL afDataReqMTU, APSDE_DataReqMTU
        LOCFRAME ISTACK, 0, STACK
        LOCFRAME PSTACK, 0, STACK
        LOCFRAME XSTACK, 9, STACK
        LOCFRAME IOVERLAY, 0, STATIC
        LOCFRAME DOVERLAY, 0, STATIC
        ARGFRAME ISTACK, 0, STACK
        ARGFRAME PSTACK, 0, STACK
        ARGFRAME XSTACK, 9, STACK
        ARGFRAME IOVERLAY, 0, STATIC
        ARGFRAME DOVERLAY, 0, STATIC
        MOV     A,#-0x9
        LCALL   ?BANKED_ENTER_XDATA
        CFI DPH0 load(1, XDATA, add(CFA_XSP16, literal(-1)))
        CFI DPL0 load(1, XDATA, add(CFA_XSP16, literal(-2)))
        CFI ?BRET_EXT load(1, XDATA, add(CFA_XSP16, literal(-3)))
        CFI ?RET_HIGH load(1, XDATA, add(CFA_XSP16, literal(-4)))
        CFI ?RET_LOW load(1, XDATA, add(CFA_XSP16, literal(-5)))
        CFI R7 load(1, XDATA, add(CFA_XSP16, literal(-6)))
        CFI V0 load(1, XDATA, add(CFA_XSP16, literal(-7)))
        CFI VB load(1, XDATA, add(CFA_XSP16, literal(-8)))
        CFI R6 load(1, XDATA, add(CFA_XSP16, literal(-9)))
        CFI CFA_SP SP+0
        CFI CFA_XSP16 add(XSP16, 9)
        ; Saved register size: 9
        ; Auto size: 0
//  830   uint8 len;
//  831   uint8 hdr;
//  832 
//  833   if ( fields->kvp == TRUE )
        MOV     DPL,R2
        MOV     DPH,R3
        MOVX    A,@DPTR
        XRL     A,#0x1
        JNZ     ??afDataReqMTU_0
//  834   {
//  835     hdr = AF_HDR_KVP_MAX_LEN;
        MOV     R6,#0x8
        SJMP    ??afDataReqMTU_1
//  836   }
//  837   else
//  838   {
//  839     hdr = AF_HDR_V1_1_MAX_LEN;
??afDataReqMTU_0:
        MOV     R6,#0x0
//  840   }
//  841 
//  842   len = (uint8)(APSDE_DataReqMTU(&fields->aps) - hdr);
//  843 
//  844   return len;
??afDataReqMTU_1:
        ; Setup parameters for call to function APSDE_DataReqMTU
        INC     DPTR
        MOV     R2,DPL
        MOV     R3,DPH
        LCALL   ??APSDE_DataReqMTU?relay
        MOV     A,R1
        CLR     C
        SUBB    A,R6
        MOV     R1,A
        CFI EndBlock cfiBlock102
        REQUIRE ?Subroutine4
        ; // Fall through to label ?Subroutine4
//  845 }

        RSEG BANKED_CODE:CODE:NOROOT(0)
?Subroutine4:
        CFI Block cfiBlock103 Using cfiCommon0
        CFI NoFunction
        CFI CFA_SP SP+0
        CFI CFA_XSP16 add(XSP16, 9)
        CFI VB load(1, XDATA, add(CFA_XSP16, literal(-8)))
        CFI DPL0 load(1, XDATA, add(CFA_XSP16, literal(-2)))
        CFI DPH0 load(1, XDATA, add(CFA_XSP16, literal(-1)))
        CFI R6 load(1, XDATA, add(CFA_XSP16, literal(-9)))
        CFI R7 load(1, XDATA, add(CFA_XSP16, literal(-6)))
        CFI V0 load(1, XDATA, add(CFA_XSP16, literal(-7)))
        CFI ?BRET_EXT load(1, XDATA, add(CFA_XSP16, literal(-3)))
        CFI ?RET_HIGH load(1, XDATA, add(CFA_XSP16, literal(-4)))
        CFI ?RET_LOW load(1, XDATA, add(CFA_XSP16, literal(-5)))
        MOV     R7,#0x1
        LJMP    ?BANKED_LEAVE_XDATA
        CFI EndBlock cfiBlock103
//  846 
//  847 /*********************************************************************
//  848  * @fn      afGetMatch
//  849  *
//  850  * @brief   Set the allow response flag.
//  851  *
//  852  * @param   ep - Application Endpoint to look for
//  853  * @param   action - true - allow response, false - no response
//  854  *
//  855  * @return  TRUE allow responses, FALSE no response
//  856  */

        RSEG BANKED_CODE:CODE:NOROOT(0)
//  857 uint8 afGetMatch( uint8 ep )
afGetMatch:
        CFI Block cfiBlock104 Using cfiCommon0
        CFI Function afGetMatch
        CODE
//  858 {
        FUNCALL afGetMatch, afFindEndPointDescList
        LOCFRAME ISTACK, 0, STACK
        LOCFRAME PSTACK, 0, STACK
        LOCFRAME XSTACK, 10, STACK
        LOCFRAME IOVERLAY, 0, STATIC
        LOCFRAME DOVERLAY, 0, STATIC
        ARGFRAME ISTACK, 0, STACK
        ARGFRAME PSTACK, 0, STACK
        ARGFRAME XSTACK, 10, STACK
        ARGFRAME IOVERLAY, 0, STATIC
        ARGFRAME DOVERLAY, 0, STATIC
        MOV     A,#-0xa
        LCALL   ?BANKED_ENTER_XDATA
        CFI DPH0 load(1, XDATA, add(CFA_XSP16, literal(-1)))
        CFI DPL0 load(1, XDATA, add(CFA_XSP16, literal(-2)))
        CFI ?BRET_EXT load(1, XDATA, add(CFA_XSP16, literal(-3)))
        CFI ?RET_HIGH load(1, XDATA, add(CFA_XSP16, literal(-4)))
        CFI ?RET_LOW load(1, XDATA, add(CFA_XSP16, literal(-5)))
        CFI R7 load(1, XDATA, add(CFA_XSP16, literal(-6)))
        CFI V1 load(1, XDATA, add(CFA_XSP16, literal(-7)))
        CFI V0 load(1, XDATA, add(CFA_XSP16, literal(-8)))
        CFI VB load(1, XDATA, add(CFA_XSP16, literal(-9)))
        CFI R6 load(1, XDATA, add(CFA_XSP16, literal(-10)))
        CFI CFA_SP SP+0
        CFI CFA_XSP16 add(XSP16, 10)
        ; Saved register size: 10
        ; Auto size: 0
//  859   epList_t *epSearch;
//  860 
//  861   // Look for the endpoint
//  862   epSearch = afFindEndPointDescList( ep );
        ; Setup parameters for call to function afFindEndPointDescList
        LCALL   ?Subroutine23 & 0xFFFF
//  863 
//  864   if ( epSearch )
??CrossCallReturnLabel_40:
        JZ      ??afGetMatch_0
//  865   {
//  866     if ( epSearch->flags & eEP_AllowMatch )
        INC     DPTR
        INC     DPTR
        MOVX    A,@DPTR
        MOV     C,0xE0 /* A   */.0
        JNC     ??afGetMatch_0
//  867       return ( TRUE );
        MOV     R1,#0x1
        SJMP    ??afGetMatch_1
//  868     else
//  869       return ( FALSE );
??afGetMatch_0:
        MOV     R1,#0x0
        CFI EndBlock cfiBlock104
//  870   }
??afGetMatch_1:
        REQUIRE ?Subroutine2
        ; // Fall through to label ?Subroutine2
//  871   else
//  872     return ( FALSE );
//  873 }

        RSEG BANKED_CODE:CODE:NOROOT(0)
?Subroutine2:
        CFI Block cfiBlock105 Using cfiCommon0
        CFI NoFunction
        CFI CFA_SP SP+0
        CFI CFA_XSP16 add(XSP16, 10)
        CFI VB load(1, XDATA, add(CFA_XSP16, literal(-9)))
        CFI DPL0 load(1, XDATA, add(CFA_XSP16, literal(-2)))
        CFI DPH0 load(1, XDATA, add(CFA_XSP16, literal(-1)))
        CFI R6 load(1, XDATA, add(CFA_XSP16, literal(-10)))
        CFI R7 load(1, XDATA, add(CFA_XSP16, literal(-6)))
        CFI V0 load(1, XDATA, add(CFA_XSP16, literal(-8)))
        CFI V1 load(1, XDATA, add(CFA_XSP16, literal(-7)))
        CFI ?BRET_EXT load(1, XDATA, add(CFA_XSP16, literal(-3)))
        CFI ?RET_HIGH load(1, XDATA, add(CFA_XSP16, literal(-4)))
        CFI ?RET_LOW load(1, XDATA, add(CFA_XSP16, literal(-5)))
        MOV     R7,#0x2
        LJMP    ?BANKED_LEAVE_XDATA
        CFI EndBlock cfiBlock105

        RSEG BANKED_CODE:CODE:NOROOT(0)
?Subroutine23:
        CFI Block cfiCond106 Using cfiCommon0
        CFI NoFunction
        CFI Conditional ??CrossCallReturnLabel_39
        CFI R6 load(1, XDATA, add(CFA_XSP16, literal(-10)))
        CFI VB load(1, XDATA, add(CFA_XSP16, literal(-9)))
        CFI V0 load(1, XDATA, add(CFA_XSP16, literal(-8)))
        CFI V1 load(1, XDATA, add(CFA_XSP16, literal(-7)))
        CFI R7 load(1, XDATA, add(CFA_XSP16, literal(-6)))
        CFI ?RET_LOW load(1, XDATA, add(CFA_XSP16, literal(-5)))
        CFI ?RET_HIGH load(1, XDATA, add(CFA_XSP16, literal(-4)))
        CFI ?BRET_EXT load(1, XDATA, add(CFA_XSP16, literal(-3)))
        CFI DPL0 load(1, XDATA, add(CFA_XSP16, literal(-2)))
        CFI DPH0 load(1, XDATA, add(CFA_XSP16, literal(-1)))
        CFI CFA_SP SP+0
        CFI CFA_XSP16 add(XSP16, 10)
        CFI Block cfiCond107 Using cfiCommon0
        CFI (cfiCond107) NoFunction
        CFI (cfiCond107) Conditional ??CrossCallReturnLabel_40
        CFI (cfiCond107) R6 load(1, XDATA, add(CFA_XSP16, literal(-10)))
        CFI (cfiCond107) VB load(1, XDATA, add(CFA_XSP16, literal(-9)))
        CFI (cfiCond107) V0 load(1, XDATA, add(CFA_XSP16, literal(-8)))
        CFI (cfiCond107) V1 load(1, XDATA, add(CFA_XSP16, literal(-7)))
        CFI (cfiCond107) R7 load(1, XDATA, add(CFA_XSP16, literal(-6)))
        CFI (cfiCond107) ?RET_LOW load(1, XDATA, add(CFA_XSP16, literal(-5)))
        CFI (cfiCond107) ?RET_HIGH load(1, XDATA, add(CFA_XSP16, literal(-4)))
        CFI (cfiCond107) ?BRET_EXT load(1, XDATA, add(CFA_XSP16, literal(-3)))
        CFI (cfiCond107) DPL0 load(1, XDATA, add(CFA_XSP16, literal(-2)))
        CFI (cfiCond107) DPH0 load(1, XDATA, add(CFA_XSP16, literal(-1)))
        CFI (cfiCond107) CFA_SP SP+0
        CFI (cfiCond107) CFA_XSP16 add(XSP16, 10)
        CFI Block cfiPicker108 Using cfiCommon1
        CFI (cfiPicker108) NoFunction
        CFI (cfiPicker108) Picker
        LCALL   ??afFindEndPointDescList?relay
        MOV     DPL,R2
        MOV     DPH,R3
        MOV     A,DPL
        ORL     A,DPH
        RET
        CFI EndBlock cfiCond106
        CFI EndBlock cfiCond107
        CFI EndBlock cfiPicker108
//  874 
//  875 /*********************************************************************
//  876  * @fn      afSetMatch
//  877  *
//  878  * @brief   Set the allow response flag.
//  879  *
//  880  * @param   ep - Application Endpoint to look for
//  881  * @param   action - true - allow response, false - no response
//  882  *
//  883  * @return  TRUE if success, FALSE if endpoint not found
//  884  */

        RSEG BANKED_CODE:CODE:NOROOT(0)
//  885 uint8 afSetMatch( uint8 ep, uint8 action )
afSetMatch:
        CFI Block cfiBlock109 Using cfiCommon0
        CFI Function afSetMatch
        CODE
//  886 {
        FUNCALL afSetMatch, afFindEndPointDescList
        LOCFRAME ISTACK, 0, STACK
        LOCFRAME PSTACK, 0, STACK
        LOCFRAME XSTACK, 10, STACK
        LOCFRAME IOVERLAY, 0, STATIC
        LOCFRAME DOVERLAY, 0, STATIC
        ARGFRAME ISTACK, 0, STACK
        ARGFRAME PSTACK, 0, STACK
        ARGFRAME XSTACK, 10, STACK
        ARGFRAME IOVERLAY, 0, STATIC
        ARGFRAME DOVERLAY, 0, STATIC
        MOV     A,#-0xa
        LCALL   ?BANKED_ENTER_XDATA
        CFI DPH0 load(1, XDATA, add(CFA_XSP16, literal(-1)))
        CFI DPL0 load(1, XDATA, add(CFA_XSP16, literal(-2)))
        CFI ?BRET_EXT load(1, XDATA, add(CFA_XSP16, literal(-3)))
        CFI ?RET_HIGH load(1, XDATA, add(CFA_XSP16, literal(-4)))
        CFI ?RET_LOW load(1, XDATA, add(CFA_XSP16, literal(-5)))
        CFI R7 load(1, XDATA, add(CFA_XSP16, literal(-6)))
        CFI V1 load(1, XDATA, add(CFA_XSP16, literal(-7)))
        CFI V0 load(1, XDATA, add(CFA_XSP16, literal(-8)))
        CFI VB load(1, XDATA, add(CFA_XSP16, literal(-9)))
        CFI R6 load(1, XDATA, add(CFA_XSP16, literal(-10)))
        CFI CFA_SP SP+0
        CFI CFA_XSP16 add(XSP16, 10)
        ; Saved register size: 10
        ; Auto size: 0
        MOV     A,R2
        MOV     R7,A
//  887   epList_t *epSearch;
//  888 
//  889   // Look for the endpoint
//  890   epSearch = afFindEndPointDescList( ep );
        ; Setup parameters for call to function afFindEndPointDescList
        LCALL   ??afFindEndPointDescList?relay
        MOV     ?V0 + 0,R2
        MOV     ?V0 + 1,R3
        MOV     R0,?V0 + 0
        MOV     R1,?V0 + 1
//  891 
//  892   if ( epSearch )
        MOV     A,R0
        ORL     A,R1
        JZ      ??afSetMatch_0
//  893   {
//  894     if ( action )
        MOV     A,R0
        ADD     A,#0x2
        MOV     DPL,A
        MOV     A,R1
        LCALL   ??Subroutine30_0 & 0xFFFF
??CrossCallReturnLabel_59:
        MOV     A,R7
        JZ      ??afSetMatch_1
//  895     {
//  896       epSearch->flags |= eEP_AllowMatch;
        MOVX    A,@DPTR
        SETB    0xE0 /* A   */.0
        SJMP    ??afSetMatch_2
//  897     }
//  898     else
//  899     {
//  900       epSearch->flags &= (eEP_AllowMatch ^ 0xFFFF);
??afSetMatch_1:
        MOVX    A,@DPTR
        CLR     0xE0 /* A   */.0
??afSetMatch_2:
        MOVX    @DPTR,A
//  901     }
//  902     return ( TRUE );
        MOV     R1,#0x1
        SJMP    ??afSetMatch_3
//  903   }
//  904   else
//  905     return ( FALSE );
??afSetMatch_0:
        MOV     R1,#0x0
??afSetMatch_3:
        SJMP    ?Subroutine2
        CFI EndBlock cfiBlock109
//  906 }

        RSEG BANKED_CODE:CODE:NOROOT(0)
?Subroutine21:
        CFI Block cfiCond110 Using cfiCommon0
        CFI NoFunction
        CFI Conditional ??CrossCallReturnLabel_60
        CFI R6 load(1, XDATA, add(CFA_XSP16, literal(-24)))
        CFI VB load(1, XDATA, add(CFA_XSP16, literal(-23)))
        CFI V0 load(1, XDATA, add(CFA_XSP16, literal(-22)))
        CFI V1 load(1, XDATA, add(CFA_XSP16, literal(-21)))
        CFI V2 load(1, XDATA, add(CFA_XSP16, literal(-20)))
        CFI V3 load(1, XDATA, add(CFA_XSP16, literal(-19)))
        CFI V4 load(1, XDATA, add(CFA_XSP16, literal(-18)))
        CFI V5 load(1, XDATA, add(CFA_XSP16, literal(-17)))
        CFI V6 load(1, XDATA, add(CFA_XSP16, literal(-16)))
        CFI V7 load(1, XDATA, add(CFA_XSP16, literal(-15)))
        CFI V8 load(1, XDATA, add(CFA_XSP16, literal(-14)))
        CFI V9 load(1, XDATA, add(CFA_XSP16, literal(-13)))
        CFI V10 load(1, XDATA, add(CFA_XSP16, literal(-12)))
        CFI V11 load(1, XDATA, add(CFA_XSP16, literal(-11)))
        CFI V12 load(1, XDATA, add(CFA_XSP16, literal(-10)))
        CFI V13 load(1, XDATA, add(CFA_XSP16, literal(-9)))
        CFI V14 load(1, XDATA, add(CFA_XSP16, literal(-8)))
        CFI V15 load(1, XDATA, add(CFA_XSP16, literal(-7)))
        CFI R7 load(1, XDATA, add(CFA_XSP16, literal(-6)))
        CFI ?RET_LOW load(1, XDATA, add(CFA_XSP16, literal(-5)))
        CFI ?RET_HIGH load(1, XDATA, add(CFA_XSP16, literal(-4)))
        CFI ?BRET_EXT load(1, XDATA, add(CFA_XSP16, literal(-3)))
        CFI DPL0 load(1, XDATA, add(CFA_XSP16, literal(-2)))
        CFI DPH0 load(1, XDATA, add(CFA_XSP16, literal(-1)))
        CFI CFA_SP SP+-1
        CFI CFA_XSP16 add(XSP16, 25)
        CFI Block cfiCond111 Using cfiCommon0
        CFI (cfiCond111) NoFunction
        CFI (cfiCond111) Conditional ??CrossCallReturnLabel_61
        CFI (cfiCond111) R6 load(1, XDATA, add(CFA_XSP16, literal(-24)))
        CFI (cfiCond111) VB load(1, XDATA, add(CFA_XSP16, literal(-23)))
        CFI (cfiCond111) V0 load(1, XDATA, add(CFA_XSP16, literal(-22)))
        CFI (cfiCond111) V1 load(1, XDATA, add(CFA_XSP16, literal(-21)))
        CFI (cfiCond111) V2 load(1, XDATA, add(CFA_XSP16, literal(-20)))
        CFI (cfiCond111) V3 load(1, XDATA, add(CFA_XSP16, literal(-19)))
        CFI (cfiCond111) V4 load(1, XDATA, add(CFA_XSP16, literal(-18)))
        CFI (cfiCond111) V5 load(1, XDATA, add(CFA_XSP16, literal(-17)))
        CFI (cfiCond111) V6 load(1, XDATA, add(CFA_XSP16, literal(-16)))
        CFI (cfiCond111) V7 load(1, XDATA, add(CFA_XSP16, literal(-15)))
        CFI (cfiCond111) V8 load(1, XDATA, add(CFA_XSP16, literal(-14)))
        CFI (cfiCond111) V9 load(1, XDATA, add(CFA_XSP16, literal(-13)))
        CFI (cfiCond111) V10 load(1, XDATA, add(CFA_XSP16, literal(-12)))
        CFI (cfiCond111) V11 load(1, XDATA, add(CFA_XSP16, literal(-11)))
        CFI (cfiCond111) V12 load(1, XDATA, add(CFA_XSP16, literal(-10)))
        CFI (cfiCond111) V13 load(1, XDATA, add(CFA_XSP16, literal(-9)))
        CFI (cfiCond111) V14 load(1, XDATA, add(CFA_XSP16, literal(-8)))
        CFI (cfiCond111) V15 load(1, XDATA, add(CFA_XSP16, literal(-7)))
        CFI (cfiCond111) R7 load(1, XDATA, add(CFA_XSP16, literal(-6)))
        CFI (cfiCond111) ?RET_LOW load(1, XDATA, add(CFA_XSP16, literal(-5)))
        CFI (cfiCond111) ?RET_HIGH load(1, XDATA, add(CFA_XSP16, literal(-4)))
        CFI (cfiCond111) ?BRET_EXT load(1, XDATA, add(CFA_XSP16, literal(-3)))
        CFI (cfiCond111) DPL0 load(1, XDATA, add(CFA_XSP16, literal(-2)))
        CFI (cfiCond111) DPH0 load(1, XDATA, add(CFA_XSP16, literal(-1)))
        CFI (cfiCond111) CFA_SP SP+-1
        CFI (cfiCond111) CFA_XSP16 add(XSP16, 25)
        CFI Block cfiCond112 Using cfiCommon0
        CFI (cfiCond112) NoFunction
        CFI (cfiCond112) Conditional ??CrossCallReturnLabel_62
        CFI (cfiCond112) R6 load(1, XDATA, add(CFA_XSP16, literal(-24)))
        CFI (cfiCond112) VB load(1, XDATA, add(CFA_XSP16, literal(-23)))
        CFI (cfiCond112) V0 load(1, XDATA, add(CFA_XSP16, literal(-22)))
        CFI (cfiCond112) V1 load(1, XDATA, add(CFA_XSP16, literal(-21)))
        CFI (cfiCond112) V2 load(1, XDATA, add(CFA_XSP16, literal(-20)))
        CFI (cfiCond112) V3 load(1, XDATA, add(CFA_XSP16, literal(-19)))
        CFI (cfiCond112) V4 load(1, XDATA, add(CFA_XSP16, literal(-18)))
        CFI (cfiCond112) V5 load(1, XDATA, add(CFA_XSP16, literal(-17)))
        CFI (cfiCond112) V6 load(1, XDATA, add(CFA_XSP16, literal(-16)))
        CFI (cfiCond112) V7 load(1, XDATA, add(CFA_XSP16, literal(-15)))
        CFI (cfiCond112) V8 load(1, XDATA, add(CFA_XSP16, literal(-14)))
        CFI (cfiCond112) V9 load(1, XDATA, add(CFA_XSP16, literal(-13)))
        CFI (cfiCond112) V10 load(1, XDATA, add(CFA_XSP16, literal(-12)))
        CFI (cfiCond112) V11 load(1, XDATA, add(CFA_XSP16, literal(-11)))
        CFI (cfiCond112) V12 load(1, XDATA, add(CFA_XSP16, literal(-10)))
        CFI (cfiCond112) V13 load(1, XDATA, add(CFA_XSP16, literal(-9)))
        CFI (cfiCond112) V14 load(1, XDATA, add(CFA_XSP16, literal(-8)))
        CFI (cfiCond112) V15 load(1, XDATA, add(CFA_XSP16, literal(-7)))
        CFI (cfiCond112) R7 load(1, XDATA, add(CFA_XSP16, literal(-6)))
        CFI (cfiCond112) ?RET_LOW load(1, XDATA, add(CFA_XSP16, literal(-5)))
        CFI (cfiCond112) ?RET_HIGH load(1, XDATA, add(CFA_XSP16, literal(-4)))
        CFI (cfiCond112) ?BRET_EXT load(1, XDATA, add(CFA_XSP16, literal(-3)))
        CFI (cfiCond112) DPL0 load(1, XDATA, add(CFA_XSP16, literal(-2)))
        CFI (cfiCond112) DPH0 load(1, XDATA, add(CFA_XSP16, literal(-1)))
        CFI (cfiCond112) CFA_SP SP+-1
        CFI (cfiCond112) CFA_XSP16 add(XSP16, 25)
        CFI Block cfiCond113 Using cfiCommon0
        CFI (cfiCond113) NoFunction
        CFI (cfiCond113) Conditional ??CrossCallReturnLabel_63
        CFI (cfiCond113) R6 load(1, XDATA, add(CFA_XSP16, literal(-24)))
        CFI (cfiCond113) VB load(1, XDATA, add(CFA_XSP16, literal(-23)))
        CFI (cfiCond113) V0 load(1, XDATA, add(CFA_XSP16, literal(-22)))
        CFI (cfiCond113) V1 load(1, XDATA, add(CFA_XSP16, literal(-21)))
        CFI (cfiCond113) V2 load(1, XDATA, add(CFA_XSP16, literal(-20)))
        CFI (cfiCond113) V3 load(1, XDATA, add(CFA_XSP16, literal(-19)))
        CFI (cfiCond113) V4 load(1, XDATA, add(CFA_XSP16, literal(-18)))
        CFI (cfiCond113) V5 load(1, XDATA, add(CFA_XSP16, literal(-17)))
        CFI (cfiCond113) V6 load(1, XDATA, add(CFA_XSP16, literal(-16)))
        CFI (cfiCond113) V7 load(1, XDATA, add(CFA_XSP16, literal(-15)))
        CFI (cfiCond113) V8 load(1, XDATA, add(CFA_XSP16, literal(-14)))
        CFI (cfiCond113) V9 load(1, XDATA, add(CFA_XSP16, literal(-13)))
        CFI (cfiCond113) V10 load(1, XDATA, add(CFA_XSP16, literal(-12)))
        CFI (cfiCond113) V11 load(1, XDATA, add(CFA_XSP16, literal(-11)))
        CFI (cfiCond113) V12 load(1, XDATA, add(CFA_XSP16, literal(-10)))
        CFI (cfiCond113) V13 load(1, XDATA, add(CFA_XSP16, literal(-9)))
        CFI (cfiCond113) V14 load(1, XDATA, add(CFA_XSP16, literal(-8)))
        CFI (cfiCond113) V15 load(1, XDATA, add(CFA_XSP16, literal(-7)))
        CFI (cfiCond113) R7 load(1, XDATA, add(CFA_XSP16, literal(-6)))
        CFI (cfiCond113) ?RET_LOW load(1, XDATA, add(CFA_XSP16, literal(-5)))
        CFI (cfiCond113) ?RET_HIGH load(1, XDATA, add(CFA_XSP16, literal(-4)))
        CFI (cfiCond113) ?BRET_EXT load(1, XDATA, add(CFA_XSP16, literal(-3)))
        CFI (cfiCond113) DPL0 load(1, XDATA, add(CFA_XSP16, literal(-2)))
        CFI (cfiCond113) DPH0 load(1, XDATA, add(CFA_XSP16, literal(-1)))
        CFI (cfiCond113) CFA_SP SP+-1
        CFI (cfiCond113) CFA_XSP16 add(XSP16, 25)
        CFI Block cfiCond114 Using cfiCommon0
        CFI (cfiCond114) NoFunction
        CFI (cfiCond114) Conditional ??CrossCallReturnLabel_64
        CFI (cfiCond114) R6 load(1, XDATA, add(CFA_XSP16, literal(-24)))
        CFI (cfiCond114) VB load(1, XDATA, add(CFA_XSP16, literal(-23)))
        CFI (cfiCond114) V0 load(1, XDATA, add(CFA_XSP16, literal(-22)))
        CFI (cfiCond114) V1 load(1, XDATA, add(CFA_XSP16, literal(-21)))
        CFI (cfiCond114) V2 load(1, XDATA, add(CFA_XSP16, literal(-20)))
        CFI (cfiCond114) V3 load(1, XDATA, add(CFA_XSP16, literal(-19)))
        CFI (cfiCond114) V4 load(1, XDATA, add(CFA_XSP16, literal(-18)))
        CFI (cfiCond114) V5 load(1, XDATA, add(CFA_XSP16, literal(-17)))
        CFI (cfiCond114) V6 load(1, XDATA, add(CFA_XSP16, literal(-16)))
        CFI (cfiCond114) V7 load(1, XDATA, add(CFA_XSP16, literal(-15)))
        CFI (cfiCond114) V8 load(1, XDATA, add(CFA_XSP16, literal(-14)))
        CFI (cfiCond114) V9 load(1, XDATA, add(CFA_XSP16, literal(-13)))
        CFI (cfiCond114) V10 load(1, XDATA, add(CFA_XSP16, literal(-12)))
        CFI (cfiCond114) V11 load(1, XDATA, add(CFA_XSP16, literal(-11)))
        CFI (cfiCond114) V12 load(1, XDATA, add(CFA_XSP16, literal(-10)))
        CFI (cfiCond114) V13 load(1, XDATA, add(CFA_XSP16, literal(-9)))
        CFI (cfiCond114) V14 load(1, XDATA, add(CFA_XSP16, literal(-8)))
        CFI (cfiCond114) V15 load(1, XDATA, add(CFA_XSP16, literal(-7)))
        CFI (cfiCond114) R7 load(1, XDATA, add(CFA_XSP16, literal(-6)))
        CFI (cfiCond114) ?RET_LOW load(1, XDATA, add(CFA_XSP16, literal(-5)))
        CFI (cfiCond114) ?RET_HIGH load(1, XDATA, add(CFA_XSP16, literal(-4)))
        CFI (cfiCond114) ?BRET_EXT load(1, XDATA, add(CFA_XSP16, literal(-3)))
        CFI (cfiCond114) DPL0 load(1, XDATA, add(CFA_XSP16, literal(-2)))
        CFI (cfiCond114) DPH0 load(1, XDATA, add(CFA_XSP16, literal(-1)))
        CFI (cfiCond114) CFA_SP SP+-1
        CFI (cfiCond114) CFA_XSP16 add(XSP16, 25)
        CFI Block cfiCond115 Using cfiCommon0
        CFI (cfiCond115) NoFunction
        CFI (cfiCond115) Conditional ??CrossCallReturnLabel_65
        CFI (cfiCond115) R6 load(1, XDATA, add(CFA_XSP16, literal(-24)))
        CFI (cfiCond115) VB load(1, XDATA, add(CFA_XSP16, literal(-23)))
        CFI (cfiCond115) V0 load(1, XDATA, add(CFA_XSP16, literal(-22)))
        CFI (cfiCond115) V1 load(1, XDATA, add(CFA_XSP16, literal(-21)))
        CFI (cfiCond115) V2 load(1, XDATA, add(CFA_XSP16, literal(-20)))
        CFI (cfiCond115) V3 load(1, XDATA, add(CFA_XSP16, literal(-19)))
        CFI (cfiCond115) V4 load(1, XDATA, add(CFA_XSP16, literal(-18)))
        CFI (cfiCond115) V5 load(1, XDATA, add(CFA_XSP16, literal(-17)))
        CFI (cfiCond115) V6 load(1, XDATA, add(CFA_XSP16, literal(-16)))
        CFI (cfiCond115) V7 load(1, XDATA, add(CFA_XSP16, literal(-15)))
        CFI (cfiCond115) V8 load(1, XDATA, add(CFA_XSP16, literal(-14)))
        CFI (cfiCond115) V9 load(1, XDATA, add(CFA_XSP16, literal(-13)))
        CFI (cfiCond115) V10 load(1, XDATA, add(CFA_XSP16, literal(-12)))
        CFI (cfiCond115) V11 load(1, XDATA, add(CFA_XSP16, literal(-11)))
        CFI (cfiCond115) V12 load(1, XDATA, add(CFA_XSP16, literal(-10)))
        CFI (cfiCond115) V13 load(1, XDATA, add(CFA_XSP16, literal(-9)))
        CFI (cfiCond115) V14 load(1, XDATA, add(CFA_XSP16, literal(-8)))
        CFI (cfiCond115) V15 load(1, XDATA, add(CFA_XSP16, literal(-7)))
        CFI (cfiCond115) R7 load(1, XDATA, add(CFA_XSP16, literal(-6)))
        CFI (cfiCond115) ?RET_LOW load(1, XDATA, add(CFA_XSP16, literal(-5)))
        CFI (cfiCond115) ?RET_HIGH load(1, XDATA, add(CFA_XSP16, literal(-4)))
        CFI (cfiCond115) ?BRET_EXT load(1, XDATA, add(CFA_XSP16, literal(-3)))
        CFI (cfiCond115) DPL0 load(1, XDATA, add(CFA_XSP16, literal(-2)))
        CFI (cfiCond115) DPH0 load(1, XDATA, add(CFA_XSP16, literal(-1)))
        CFI (cfiCond115) CFA_SP SP+-1
        CFI (cfiCond115) CFA_XSP16 add(XSP16, 25)
        CFI Block cfiCond116 Using cfiCommon0
        CFI (cfiCond116) NoFunction
        CFI (cfiCond116) Conditional ??CrossCallReturnLabel_66
        CFI (cfiCond116) R6 load(1, XDATA, add(CFA_XSP16, literal(-24)))
        CFI (cfiCond116) VB load(1, XDATA, add(CFA_XSP16, literal(-23)))
        CFI (cfiCond116) V0 load(1, XDATA, add(CFA_XSP16, literal(-22)))
        CFI (cfiCond116) V1 load(1, XDATA, add(CFA_XSP16, literal(-21)))
        CFI (cfiCond116) V2 load(1, XDATA, add(CFA_XSP16, literal(-20)))
        CFI (cfiCond116) V3 load(1, XDATA, add(CFA_XSP16, literal(-19)))
        CFI (cfiCond116) V4 load(1, XDATA, add(CFA_XSP16, literal(-18)))
        CFI (cfiCond116) V5 load(1, XDATA, add(CFA_XSP16, literal(-17)))
        CFI (cfiCond116) V6 load(1, XDATA, add(CFA_XSP16, literal(-16)))
        CFI (cfiCond116) V7 load(1, XDATA, add(CFA_XSP16, literal(-15)))
        CFI (cfiCond116) V8 load(1, XDATA, add(CFA_XSP16, literal(-14)))
        CFI (cfiCond116) V9 load(1, XDATA, add(CFA_XSP16, literal(-13)))
        CFI (cfiCond116) V10 load(1, XDATA, add(CFA_XSP16, literal(-12)))
        CFI (cfiCond116) V11 load(1, XDATA, add(CFA_XSP16, literal(-11)))
        CFI (cfiCond116) V12 load(1, XDATA, add(CFA_XSP16, literal(-10)))
        CFI (cfiCond116) V13 load(1, XDATA, add(CFA_XSP16, literal(-9)))
        CFI (cfiCond116) V14 load(1, XDATA, add(CFA_XSP16, literal(-8)))
        CFI (cfiCond116) V15 load(1, XDATA, add(CFA_XSP16, literal(-7)))
        CFI (cfiCond116) R7 load(1, XDATA, add(CFA_XSP16, literal(-6)))
        CFI (cfiCond116) ?RET_LOW load(1, XDATA, add(CFA_XSP16, literal(-5)))
        CFI (cfiCond116) ?RET_HIGH load(1, XDATA, add(CFA_XSP16, literal(-4)))
        CFI (cfiCond116) ?BRET_EXT load(1, XDATA, add(CFA_XSP16, literal(-3)))
        CFI (cfiCond116) DPL0 load(1, XDATA, add(CFA_XSP16, literal(-2)))
        CFI (cfiCond116) DPH0 load(1, XDATA, add(CFA_XSP16, literal(-1)))
        CFI (cfiCond116) CFA_SP SP+-1
        CFI (cfiCond116) CFA_XSP16 add(XSP16, 25)
        CFI Block cfiCond117 Using cfiCommon0
        CFI (cfiCond117) NoFunction
        CFI (cfiCond117) Conditional ??CrossCallReturnLabel_67
        CFI (cfiCond117) R6 load(1, XDATA, add(CFA_XSP16, literal(-24)))
        CFI (cfiCond117) VB load(1, XDATA, add(CFA_XSP16, literal(-23)))
        CFI (cfiCond117) V0 load(1, XDATA, add(CFA_XSP16, literal(-22)))
        CFI (cfiCond117) V1 load(1, XDATA, add(CFA_XSP16, literal(-21)))
        CFI (cfiCond117) V2 load(1, XDATA, add(CFA_XSP16, literal(-20)))
        CFI (cfiCond117) V3 load(1, XDATA, add(CFA_XSP16, literal(-19)))
        CFI (cfiCond117) V4 load(1, XDATA, add(CFA_XSP16, literal(-18)))
        CFI (cfiCond117) V5 load(1, XDATA, add(CFA_XSP16, literal(-17)))
        CFI (cfiCond117) V6 load(1, XDATA, add(CFA_XSP16, literal(-16)))
        CFI (cfiCond117) V7 load(1, XDATA, add(CFA_XSP16, literal(-15)))
        CFI (cfiCond117) V8 load(1, XDATA, add(CFA_XSP16, literal(-14)))
        CFI (cfiCond117) V9 load(1, XDATA, add(CFA_XSP16, literal(-13)))
        CFI (cfiCond117) V10 load(1, XDATA, add(CFA_XSP16, literal(-12)))
        CFI (cfiCond117) V11 load(1, XDATA, add(CFA_XSP16, literal(-11)))
        CFI (cfiCond117) V12 load(1, XDATA, add(CFA_XSP16, literal(-10)))
        CFI (cfiCond117) V13 load(1, XDATA, add(CFA_XSP16, literal(-9)))
        CFI (cfiCond117) V14 load(1, XDATA, add(CFA_XSP16, literal(-8)))
        CFI (cfiCond117) V15 load(1, XDATA, add(CFA_XSP16, literal(-7)))
        CFI (cfiCond117) R7 load(1, XDATA, add(CFA_XSP16, literal(-6)))
        CFI (cfiCond117) ?RET_LOW load(1, XDATA, add(CFA_XSP16, literal(-5)))
        CFI (cfiCond117) ?RET_HIGH load(1, XDATA, add(CFA_XSP16, literal(-4)))
        CFI (cfiCond117) ?BRET_EXT load(1, XDATA, add(CFA_XSP16, literal(-3)))
        CFI (cfiCond117) DPL0 load(1, XDATA, add(CFA_XSP16, literal(-2)))
        CFI (cfiCond117) DPH0 load(1, XDATA, add(CFA_XSP16, literal(-1)))
        CFI (cfiCond117) CFA_SP SP+0
        CFI (cfiCond117) CFA_XSP16 add(XSP16, 25)
        CFI Block cfiCond118 Using cfiCommon0
        CFI (cfiCond118) NoFunction
        CFI (cfiCond118) Conditional ??CrossCallReturnLabel_68
        CFI (cfiCond118) R6 load(1, XDATA, add(CFA_XSP16, literal(-24)))
        CFI (cfiCond118) VB load(1, XDATA, add(CFA_XSP16, literal(-23)))
        CFI (cfiCond118) V0 load(1, XDATA, add(CFA_XSP16, literal(-22)))
        CFI (cfiCond118) V1 load(1, XDATA, add(CFA_XSP16, literal(-21)))
        CFI (cfiCond118) V2 load(1, XDATA, add(CFA_XSP16, literal(-20)))
        CFI (cfiCond118) V3 load(1, XDATA, add(CFA_XSP16, literal(-19)))
        CFI (cfiCond118) V4 load(1, XDATA, add(CFA_XSP16, literal(-18)))
        CFI (cfiCond118) V5 load(1, XDATA, add(CFA_XSP16, literal(-17)))
        CFI (cfiCond118) V6 load(1, XDATA, add(CFA_XSP16, literal(-16)))
        CFI (cfiCond118) V7 load(1, XDATA, add(CFA_XSP16, literal(-15)))
        CFI (cfiCond118) V8 load(1, XDATA, add(CFA_XSP16, literal(-14)))
        CFI (cfiCond118) V9 load(1, XDATA, add(CFA_XSP16, literal(-13)))
        CFI (cfiCond118) V10 load(1, XDATA, add(CFA_XSP16, literal(-12)))
        CFI (cfiCond118) V11 load(1, XDATA, add(CFA_XSP16, literal(-11)))
        CFI (cfiCond118) V12 load(1, XDATA, add(CFA_XSP16, literal(-10)))
        CFI (cfiCond118) V13 load(1, XDATA, add(CFA_XSP16, literal(-9)))
        CFI (cfiCond118) V14 load(1, XDATA, add(CFA_XSP16, literal(-8)))
        CFI (cfiCond118) V15 load(1, XDATA, add(CFA_XSP16, literal(-7)))
        CFI (cfiCond118) R7 load(1, XDATA, add(CFA_XSP16, literal(-6)))
        CFI (cfiCond118) ?RET_LOW load(1, XDATA, add(CFA_XSP16, literal(-5)))
        CFI (cfiCond118) ?RET_HIGH load(1, XDATA, add(CFA_XSP16, literal(-4)))
        CFI (cfiCond118) ?BRET_EXT load(1, XDATA, add(CFA_XSP16, literal(-3)))
        CFI (cfiCond118) DPL0 load(1, XDATA, add(CFA_XSP16, literal(-2)))
        CFI (cfiCond118) DPH0 load(1, XDATA, add(CFA_XSP16, literal(-1)))
        CFI (cfiCond118) CFA_SP SP+0
        CFI (cfiCond118) CFA_XSP16 add(XSP16, 25)
        CFI Block cfiCond119 Using cfiCommon0
        CFI (cfiCond119) NoFunction
        CFI (cfiCond119) Conditional ??CrossCallReturnLabel_69
        CFI (cfiCond119) R6 load(1, XDATA, add(CFA_XSP16, literal(-24)))
        CFI (cfiCond119) VB load(1, XDATA, add(CFA_XSP16, literal(-23)))
        CFI (cfiCond119) V0 load(1, XDATA, add(CFA_XSP16, literal(-22)))
        CFI (cfiCond119) V1 load(1, XDATA, add(CFA_XSP16, literal(-21)))
        CFI (cfiCond119) V2 load(1, XDATA, add(CFA_XSP16, literal(-20)))
        CFI (cfiCond119) V3 load(1, XDATA, add(CFA_XSP16, literal(-19)))
        CFI (cfiCond119) V4 load(1, XDATA, add(CFA_XSP16, literal(-18)))
        CFI (cfiCond119) V5 load(1, XDATA, add(CFA_XSP16, literal(-17)))
        CFI (cfiCond119) V6 load(1, XDATA, add(CFA_XSP16, literal(-16)))
        CFI (cfiCond119) V7 load(1, XDATA, add(CFA_XSP16, literal(-15)))
        CFI (cfiCond119) V8 load(1, XDATA, add(CFA_XSP16, literal(-14)))
        CFI (cfiCond119) V9 load(1, XDATA, add(CFA_XSP16, literal(-13)))
        CFI (cfiCond119) V10 load(1, XDATA, add(CFA_XSP16, literal(-12)))
        CFI (cfiCond119) V11 load(1, XDATA, add(CFA_XSP16, literal(-11)))
        CFI (cfiCond119) V12 load(1, XDATA, add(CFA_XSP16, literal(-10)))
        CFI (cfiCond119) V13 load(1, XDATA, add(CFA_XSP16, literal(-9)))
        CFI (cfiCond119) V14 load(1, XDATA, add(CFA_XSP16, literal(-8)))
        CFI (cfiCond119) V15 load(1, XDATA, add(CFA_XSP16, literal(-7)))
        CFI (cfiCond119) R7 load(1, XDATA, add(CFA_XSP16, literal(-6)))
        CFI (cfiCond119) ?RET_LOW load(1, XDATA, add(CFA_XSP16, literal(-5)))
        CFI (cfiCond119) ?RET_HIGH load(1, XDATA, add(CFA_XSP16, literal(-4)))
        CFI (cfiCond119) ?BRET_EXT load(1, XDATA, add(CFA_XSP16, literal(-3)))
        CFI (cfiCond119) DPL0 load(1, XDATA, add(CFA_XSP16, literal(-2)))
        CFI (cfiCond119) DPH0 load(1, XDATA, add(CFA_XSP16, literal(-1)))
        CFI (cfiCond119) CFA_SP SP+0
        CFI (cfiCond119) CFA_XSP16 add(XSP16, 25)
        CFI Block cfiPicker120 Using cfiCommon1
        CFI (cfiPicker120) NoFunction
        CFI (cfiPicker120) Picker
        MOV     DPL,A
        MOV     A,R7
        CFI EndBlock cfiCond110
        CFI EndBlock cfiCond111
        CFI EndBlock cfiCond112
        CFI EndBlock cfiCond113
        CFI EndBlock cfiCond114
        CFI EndBlock cfiCond115
        CFI EndBlock cfiCond116
        CFI EndBlock cfiCond117
        CFI EndBlock cfiCond118
        CFI EndBlock cfiCond119
        CFI EndBlock cfiPicker120
        REQUIRE ??Subroutine30_0
        ; // Fall through to label ??Subroutine30_0

        RSEG BANKED_CODE:CODE:NOROOT(0)
??Subroutine30_0:
        CFI Block cfiCond121 Using cfiCommon0
        CFI NoFunction
        CFI Conditional ??CrossCallReturnLabel_57
        CFI R6 load(1, XDATA, add(CFA_XSP16, literal(-24)))
        CFI VB load(1, XDATA, add(CFA_XSP16, literal(-23)))
        CFI V0 load(1, XDATA, add(CFA_XSP16, literal(-22)))
        CFI V1 load(1, XDATA, add(CFA_XSP16, literal(-21)))
        CFI V2 load(1, XDATA, add(CFA_XSP16, literal(-20)))
        CFI V3 load(1, XDATA, add(CFA_XSP16, literal(-19)))
        CFI V4 load(1, XDATA, add(CFA_XSP16, literal(-18)))
        CFI V5 load(1, XDATA, add(CFA_XSP16, literal(-17)))
        CFI V6 load(1, XDATA, add(CFA_XSP16, literal(-16)))
        CFI V7 load(1, XDATA, add(CFA_XSP16, literal(-15)))
        CFI V8 load(1, XDATA, add(CFA_XSP16, literal(-14)))
        CFI V9 load(1, XDATA, add(CFA_XSP16, literal(-13)))
        CFI V10 load(1, XDATA, add(CFA_XSP16, literal(-12)))
        CFI V11 load(1, XDATA, add(CFA_XSP16, literal(-11)))
        CFI V12 load(1, XDATA, add(CFA_XSP16, literal(-10)))
        CFI V13 load(1, XDATA, add(CFA_XSP16, literal(-9)))
        CFI V14 load(1, XDATA, add(CFA_XSP16, literal(-8)))
        CFI V15 load(1, XDATA, add(CFA_XSP16, literal(-7)))
        CFI R7 load(1, XDATA, add(CFA_XSP16, literal(-6)))
        CFI ?RET_LOW load(1, XDATA, add(CFA_XSP16, literal(-5)))
        CFI ?RET_HIGH load(1, XDATA, add(CFA_XSP16, literal(-4)))
        CFI ?BRET_EXT load(1, XDATA, add(CFA_XSP16, literal(-3)))
        CFI DPL0 load(1, XDATA, add(CFA_XSP16, literal(-2)))
        CFI DPH0 load(1, XDATA, add(CFA_XSP16, literal(-1)))
        CFI CFA_SP SP+0
        CFI CFA_XSP16 add(XSP16, 25)
        CFI Block cfiCond122 Using cfiCommon0
        CFI (cfiCond122) NoFunction
        CFI (cfiCond122) Conditional ??CrossCallReturnLabel_58
        CFI (cfiCond122) R6 load(1, XDATA, add(CFA_XSP16, literal(-24)))
        CFI (cfiCond122) VB load(1, XDATA, add(CFA_XSP16, literal(-23)))
        CFI (cfiCond122) V0 load(1, XDATA, add(CFA_XSP16, literal(-22)))
        CFI (cfiCond122) V1 load(1, XDATA, add(CFA_XSP16, literal(-21)))
        CFI (cfiCond122) V2 load(1, XDATA, add(CFA_XSP16, literal(-20)))
        CFI (cfiCond122) V3 load(1, XDATA, add(CFA_XSP16, literal(-19)))
        CFI (cfiCond122) V4 load(1, XDATA, add(CFA_XSP16, literal(-18)))
        CFI (cfiCond122) V5 load(1, XDATA, add(CFA_XSP16, literal(-17)))
        CFI (cfiCond122) V6 load(1, XDATA, add(CFA_XSP16, literal(-16)))
        CFI (cfiCond122) V7 load(1, XDATA, add(CFA_XSP16, literal(-15)))
        CFI (cfiCond122) V8 load(1, XDATA, add(CFA_XSP16, literal(-14)))
        CFI (cfiCond122) V9 load(1, XDATA, add(CFA_XSP16, literal(-13)))
        CFI (cfiCond122) V10 load(1, XDATA, add(CFA_XSP16, literal(-12)))
        CFI (cfiCond122) V11 load(1, XDATA, add(CFA_XSP16, literal(-11)))
        CFI (cfiCond122) V12 load(1, XDATA, add(CFA_XSP16, literal(-10)))
        CFI (cfiCond122) V13 load(1, XDATA, add(CFA_XSP16, literal(-9)))
        CFI (cfiCond122) V14 load(1, XDATA, add(CFA_XSP16, literal(-8)))
        CFI (cfiCond122) V15 load(1, XDATA, add(CFA_XSP16, literal(-7)))
        CFI (cfiCond122) R7 load(1, XDATA, add(CFA_XSP16, literal(-6)))
        CFI (cfiCond122) ?RET_LOW load(1, XDATA, add(CFA_XSP16, literal(-5)))
        CFI (cfiCond122) ?RET_HIGH load(1, XDATA, add(CFA_XSP16, literal(-4)))
        CFI (cfiCond122) ?BRET_EXT load(1, XDATA, add(CFA_XSP16, literal(-3)))
        CFI (cfiCond122) DPL0 load(1, XDATA, add(CFA_XSP16, literal(-2)))
        CFI (cfiCond122) DPH0 load(1, XDATA, add(CFA_XSP16, literal(-1)))
        CFI (cfiCond122) CFA_SP SP+0
        CFI (cfiCond122) CFA_XSP16 add(XSP16, 25)
        CFI Block cfiCond123 Using cfiCommon0
        CFI (cfiCond123) NoFunction
        CFI (cfiCond123) Conditional ??CrossCallReturnLabel_59
        CFI (cfiCond123) R6 load(1, XDATA, add(CFA_XSP16, literal(-10)))
        CFI (cfiCond123) VB load(1, XDATA, add(CFA_XSP16, literal(-9)))
        CFI (cfiCond123) V0 load(1, XDATA, add(CFA_XSP16, literal(-8)))
        CFI (cfiCond123) V1 load(1, XDATA, add(CFA_XSP16, literal(-7)))
        CFI (cfiCond123) R7 load(1, XDATA, add(CFA_XSP16, literal(-6)))
        CFI (cfiCond123) ?RET_LOW load(1, XDATA, add(CFA_XSP16, literal(-5)))
        CFI (cfiCond123) ?RET_HIGH load(1, XDATA, add(CFA_XSP16, literal(-4)))
        CFI (cfiCond123) ?BRET_EXT load(1, XDATA, add(CFA_XSP16, literal(-3)))
        CFI (cfiCond123) DPL0 load(1, XDATA, add(CFA_XSP16, literal(-2)))
        CFI (cfiCond123) DPH0 load(1, XDATA, add(CFA_XSP16, literal(-1)))
        CFI (cfiCond123) CFA_SP SP+0
        CFI (cfiCond123) CFA_XSP16 add(XSP16, 10)
        CFI Block cfiCond124 Using cfiCommon0
        CFI (cfiCond124) NoFunction
        CFI (cfiCond124) Conditional ??CrossCallReturnLabel_60
        CFI (cfiCond124) R6 load(1, XDATA, add(CFA_XSP16, literal(-24)))
        CFI (cfiCond124) VB load(1, XDATA, add(CFA_XSP16, literal(-23)))
        CFI (cfiCond124) V0 load(1, XDATA, add(CFA_XSP16, literal(-22)))
        CFI (cfiCond124) V1 load(1, XDATA, add(CFA_XSP16, literal(-21)))
        CFI (cfiCond124) V2 load(1, XDATA, add(CFA_XSP16, literal(-20)))
        CFI (cfiCond124) V3 load(1, XDATA, add(CFA_XSP16, literal(-19)))
        CFI (cfiCond124) V4 load(1, XDATA, add(CFA_XSP16, literal(-18)))
        CFI (cfiCond124) V5 load(1, XDATA, add(CFA_XSP16, literal(-17)))
        CFI (cfiCond124) V6 load(1, XDATA, add(CFA_XSP16, literal(-16)))
        CFI (cfiCond124) V7 load(1, XDATA, add(CFA_XSP16, literal(-15)))
        CFI (cfiCond124) V8 load(1, XDATA, add(CFA_XSP16, literal(-14)))
        CFI (cfiCond124) V9 load(1, XDATA, add(CFA_XSP16, literal(-13)))
        CFI (cfiCond124) V10 load(1, XDATA, add(CFA_XSP16, literal(-12)))
        CFI (cfiCond124) V11 load(1, XDATA, add(CFA_XSP16, literal(-11)))
        CFI (cfiCond124) V12 load(1, XDATA, add(CFA_XSP16, literal(-10)))
        CFI (cfiCond124) V13 load(1, XDATA, add(CFA_XSP16, literal(-9)))
        CFI (cfiCond124) V14 load(1, XDATA, add(CFA_XSP16, literal(-8)))
        CFI (cfiCond124) V15 load(1, XDATA, add(CFA_XSP16, literal(-7)))
        CFI (cfiCond124) R7 load(1, XDATA, add(CFA_XSP16, literal(-6)))
        CFI (cfiCond124) ?RET_LOW load(1, XDATA, add(CFA_XSP16, literal(-5)))
        CFI (cfiCond124) ?RET_HIGH load(1, XDATA, add(CFA_XSP16, literal(-4)))
        CFI (cfiCond124) ?BRET_EXT load(1, XDATA, add(CFA_XSP16, literal(-3)))
        CFI (cfiCond124) DPL0 load(1, XDATA, add(CFA_XSP16, literal(-2)))
        CFI (cfiCond124) DPH0 load(1, XDATA, add(CFA_XSP16, literal(-1)))
        CFI (cfiCond124) CFA_SP SP+-1
        CFI (cfiCond124) CFA_XSP16 add(XSP16, 25)
        CFI Block cfiCond125 Using cfiCommon0
        CFI (cfiCond125) NoFunction
        CFI (cfiCond125) Conditional ??CrossCallReturnLabel_61
        CFI (cfiCond125) R6 load(1, XDATA, add(CFA_XSP16, literal(-24)))
        CFI (cfiCond125) VB load(1, XDATA, add(CFA_XSP16, literal(-23)))
        CFI (cfiCond125) V0 load(1, XDATA, add(CFA_XSP16, literal(-22)))
        CFI (cfiCond125) V1 load(1, XDATA, add(CFA_XSP16, literal(-21)))
        CFI (cfiCond125) V2 load(1, XDATA, add(CFA_XSP16, literal(-20)))
        CFI (cfiCond125) V3 load(1, XDATA, add(CFA_XSP16, literal(-19)))
        CFI (cfiCond125) V4 load(1, XDATA, add(CFA_XSP16, literal(-18)))
        CFI (cfiCond125) V5 load(1, XDATA, add(CFA_XSP16, literal(-17)))
        CFI (cfiCond125) V6 load(1, XDATA, add(CFA_XSP16, literal(-16)))
        CFI (cfiCond125) V7 load(1, XDATA, add(CFA_XSP16, literal(-15)))
        CFI (cfiCond125) V8 load(1, XDATA, add(CFA_XSP16, literal(-14)))
        CFI (cfiCond125) V9 load(1, XDATA, add(CFA_XSP16, literal(-13)))
        CFI (cfiCond125) V10 load(1, XDATA, add(CFA_XSP16, literal(-12)))
        CFI (cfiCond125) V11 load(1, XDATA, add(CFA_XSP16, literal(-11)))
        CFI (cfiCond125) V12 load(1, XDATA, add(CFA_XSP16, literal(-10)))
        CFI (cfiCond125) V13 load(1, XDATA, add(CFA_XSP16, literal(-9)))
        CFI (cfiCond125) V14 load(1, XDATA, add(CFA_XSP16, literal(-8)))
        CFI (cfiCond125) V15 load(1, XDATA, add(CFA_XSP16, literal(-7)))
        CFI (cfiCond125) R7 load(1, XDATA, add(CFA_XSP16, literal(-6)))
        CFI (cfiCond125) ?RET_LOW load(1, XDATA, add(CFA_XSP16, literal(-5)))
        CFI (cfiCond125) ?RET_HIGH load(1, XDATA, add(CFA_XSP16, literal(-4)))
        CFI (cfiCond125) ?BRET_EXT load(1, XDATA, add(CFA_XSP16, literal(-3)))
        CFI (cfiCond125) DPL0 load(1, XDATA, add(CFA_XSP16, literal(-2)))
        CFI (cfiCond125) DPH0 load(1, XDATA, add(CFA_XSP16, literal(-1)))
        CFI (cfiCond125) CFA_SP SP+-1
        CFI (cfiCond125) CFA_XSP16 add(XSP16, 25)
        CFI Block cfiCond126 Using cfiCommon0
        CFI (cfiCond126) NoFunction
        CFI (cfiCond126) Conditional ??CrossCallReturnLabel_62
        CFI (cfiCond126) R6 load(1, XDATA, add(CFA_XSP16, literal(-24)))
        CFI (cfiCond126) VB load(1, XDATA, add(CFA_XSP16, literal(-23)))
        CFI (cfiCond126) V0 load(1, XDATA, add(CFA_XSP16, literal(-22)))
        CFI (cfiCond126) V1 load(1, XDATA, add(CFA_XSP16, literal(-21)))
        CFI (cfiCond126) V2 load(1, XDATA, add(CFA_XSP16, literal(-20)))
        CFI (cfiCond126) V3 load(1, XDATA, add(CFA_XSP16, literal(-19)))
        CFI (cfiCond126) V4 load(1, XDATA, add(CFA_XSP16, literal(-18)))
        CFI (cfiCond126) V5 load(1, XDATA, add(CFA_XSP16, literal(-17)))
        CFI (cfiCond126) V6 load(1, XDATA, add(CFA_XSP16, literal(-16)))
        CFI (cfiCond126) V7 load(1, XDATA, add(CFA_XSP16, literal(-15)))
        CFI (cfiCond126) V8 load(1, XDATA, add(CFA_XSP16, literal(-14)))
        CFI (cfiCond126) V9 load(1, XDATA, add(CFA_XSP16, literal(-13)))
        CFI (cfiCond126) V10 load(1, XDATA, add(CFA_XSP16, literal(-12)))
        CFI (cfiCond126) V11 load(1, XDATA, add(CFA_XSP16, literal(-11)))
        CFI (cfiCond126) V12 load(1, XDATA, add(CFA_XSP16, literal(-10)))
        CFI (cfiCond126) V13 load(1, XDATA, add(CFA_XSP16, literal(-9)))
        CFI (cfiCond126) V14 load(1, XDATA, add(CFA_XSP16, literal(-8)))
        CFI (cfiCond126) V15 load(1, XDATA, add(CFA_XSP16, literal(-7)))
        CFI (cfiCond126) R7 load(1, XDATA, add(CFA_XSP16, literal(-6)))
        CFI (cfiCond126) ?RET_LOW load(1, XDATA, add(CFA_XSP16, literal(-5)))
        CFI (cfiCond126) ?RET_HIGH load(1, XDATA, add(CFA_XSP16, literal(-4)))
        CFI (cfiCond126) ?BRET_EXT load(1, XDATA, add(CFA_XSP16, literal(-3)))
        CFI (cfiCond126) DPL0 load(1, XDATA, add(CFA_XSP16, literal(-2)))
        CFI (cfiCond126) DPH0 load(1, XDATA, add(CFA_XSP16, literal(-1)))
        CFI (cfiCond126) CFA_SP SP+-1
        CFI (cfiCond126) CFA_XSP16 add(XSP16, 25)
        CFI Block cfiCond127 Using cfiCommon0
        CFI (cfiCond127) NoFunction
        CFI (cfiCond127) Conditional ??CrossCallReturnLabel_63
        CFI (cfiCond127) R6 load(1, XDATA, add(CFA_XSP16, literal(-24)))
        CFI (cfiCond127) VB load(1, XDATA, add(CFA_XSP16, literal(-23)))
        CFI (cfiCond127) V0 load(1, XDATA, add(CFA_XSP16, literal(-22)))
        CFI (cfiCond127) V1 load(1, XDATA, add(CFA_XSP16, literal(-21)))
        CFI (cfiCond127) V2 load(1, XDATA, add(CFA_XSP16, literal(-20)))
        CFI (cfiCond127) V3 load(1, XDATA, add(CFA_XSP16, literal(-19)))
        CFI (cfiCond127) V4 load(1, XDATA, add(CFA_XSP16, literal(-18)))
        CFI (cfiCond127) V5 load(1, XDATA, add(CFA_XSP16, literal(-17)))
        CFI (cfiCond127) V6 load(1, XDATA, add(CFA_XSP16, literal(-16)))
        CFI (cfiCond127) V7 load(1, XDATA, add(CFA_XSP16, literal(-15)))
        CFI (cfiCond127) V8 load(1, XDATA, add(CFA_XSP16, literal(-14)))
        CFI (cfiCond127) V9 load(1, XDATA, add(CFA_XSP16, literal(-13)))
        CFI (cfiCond127) V10 load(1, XDATA, add(CFA_XSP16, literal(-12)))
        CFI (cfiCond127) V11 load(1, XDATA, add(CFA_XSP16, literal(-11)))
        CFI (cfiCond127) V12 load(1, XDATA, add(CFA_XSP16, literal(-10)))
        CFI (cfiCond127) V13 load(1, XDATA, add(CFA_XSP16, literal(-9)))
        CFI (cfiCond127) V14 load(1, XDATA, add(CFA_XSP16, literal(-8)))
        CFI (cfiCond127) V15 load(1, XDATA, add(CFA_XSP16, literal(-7)))
        CFI (cfiCond127) R7 load(1, XDATA, add(CFA_XSP16, literal(-6)))
        CFI (cfiCond127) ?RET_LOW load(1, XDATA, add(CFA_XSP16, literal(-5)))
        CFI (cfiCond127) ?RET_HIGH load(1, XDATA, add(CFA_XSP16, literal(-4)))
        CFI (cfiCond127) ?BRET_EXT load(1, XDATA, add(CFA_XSP16, literal(-3)))
        CFI (cfiCond127) DPL0 load(1, XDATA, add(CFA_XSP16, literal(-2)))
        CFI (cfiCond127) DPH0 load(1, XDATA, add(CFA_XSP16, literal(-1)))
        CFI (cfiCond127) CFA_SP SP+-1
        CFI (cfiCond127) CFA_XSP16 add(XSP16, 25)
        CFI Block cfiCond128 Using cfiCommon0
        CFI (cfiCond128) NoFunction
        CFI (cfiCond128) Conditional ??CrossCallReturnLabel_64
        CFI (cfiCond128) R6 load(1, XDATA, add(CFA_XSP16, literal(-24)))
        CFI (cfiCond128) VB load(1, XDATA, add(CFA_XSP16, literal(-23)))
        CFI (cfiCond128) V0 load(1, XDATA, add(CFA_XSP16, literal(-22)))
        CFI (cfiCond128) V1 load(1, XDATA, add(CFA_XSP16, literal(-21)))
        CFI (cfiCond128) V2 load(1, XDATA, add(CFA_XSP16, literal(-20)))
        CFI (cfiCond128) V3 load(1, XDATA, add(CFA_XSP16, literal(-19)))
        CFI (cfiCond128) V4 load(1, XDATA, add(CFA_XSP16, literal(-18)))
        CFI (cfiCond128) V5 load(1, XDATA, add(CFA_XSP16, literal(-17)))
        CFI (cfiCond128) V6 load(1, XDATA, add(CFA_XSP16, literal(-16)))
        CFI (cfiCond128) V7 load(1, XDATA, add(CFA_XSP16, literal(-15)))
        CFI (cfiCond128) V8 load(1, XDATA, add(CFA_XSP16, literal(-14)))
        CFI (cfiCond128) V9 load(1, XDATA, add(CFA_XSP16, literal(-13)))
        CFI (cfiCond128) V10 load(1, XDATA, add(CFA_XSP16, literal(-12)))
        CFI (cfiCond128) V11 load(1, XDATA, add(CFA_XSP16, literal(-11)))
        CFI (cfiCond128) V12 load(1, XDATA, add(CFA_XSP16, literal(-10)))
        CFI (cfiCond128) V13 load(1, XDATA, add(CFA_XSP16, literal(-9)))
        CFI (cfiCond128) V14 load(1, XDATA, add(CFA_XSP16, literal(-8)))
        CFI (cfiCond128) V15 load(1, XDATA, add(CFA_XSP16, literal(-7)))
        CFI (cfiCond128) R7 load(1, XDATA, add(CFA_XSP16, literal(-6)))
        CFI (cfiCond128) ?RET_LOW load(1, XDATA, add(CFA_XSP16, literal(-5)))
        CFI (cfiCond128) ?RET_HIGH load(1, XDATA, add(CFA_XSP16, literal(-4)))
        CFI (cfiCond128) ?BRET_EXT load(1, XDATA, add(CFA_XSP16, literal(-3)))
        CFI (cfiCond128) DPL0 load(1, XDATA, add(CFA_XSP16, literal(-2)))
        CFI (cfiCond128) DPH0 load(1, XDATA, add(CFA_XSP16, literal(-1)))
        CFI (cfiCond128) CFA_SP SP+-1
        CFI (cfiCond128) CFA_XSP16 add(XSP16, 25)
        CFI Block cfiCond129 Using cfiCommon0
        CFI (cfiCond129) NoFunction
        CFI (cfiCond129) Conditional ??CrossCallReturnLabel_65
        CFI (cfiCond129) R6 load(1, XDATA, add(CFA_XSP16, literal(-24)))
        CFI (cfiCond129) VB load(1, XDATA, add(CFA_XSP16, literal(-23)))
        CFI (cfiCond129) V0 load(1, XDATA, add(CFA_XSP16, literal(-22)))
        CFI (cfiCond129) V1 load(1, XDATA, add(CFA_XSP16, literal(-21)))
        CFI (cfiCond129) V2 load(1, XDATA, add(CFA_XSP16, literal(-20)))
        CFI (cfiCond129) V3 load(1, XDATA, add(CFA_XSP16, literal(-19)))
        CFI (cfiCond129) V4 load(1, XDATA, add(CFA_XSP16, literal(-18)))
        CFI (cfiCond129) V5 load(1, XDATA, add(CFA_XSP16, literal(-17)))
        CFI (cfiCond129) V6 load(1, XDATA, add(CFA_XSP16, literal(-16)))
        CFI (cfiCond129) V7 load(1, XDATA, add(CFA_XSP16, literal(-15)))
        CFI (cfiCond129) V8 load(1, XDATA, add(CFA_XSP16, literal(-14)))
        CFI (cfiCond129) V9 load(1, XDATA, add(CFA_XSP16, literal(-13)))
        CFI (cfiCond129) V10 load(1, XDATA, add(CFA_XSP16, literal(-12)))
        CFI (cfiCond129) V11 load(1, XDATA, add(CFA_XSP16, literal(-11)))
        CFI (cfiCond129) V12 load(1, XDATA, add(CFA_XSP16, literal(-10)))
        CFI (cfiCond129) V13 load(1, XDATA, add(CFA_XSP16, literal(-9)))
        CFI (cfiCond129) V14 load(1, XDATA, add(CFA_XSP16, literal(-8)))
        CFI (cfiCond129) V15 load(1, XDATA, add(CFA_XSP16, literal(-7)))
        CFI (cfiCond129) R7 load(1, XDATA, add(CFA_XSP16, literal(-6)))
        CFI (cfiCond129) ?RET_LOW load(1, XDATA, add(CFA_XSP16, literal(-5)))
        CFI (cfiCond129) ?RET_HIGH load(1, XDATA, add(CFA_XSP16, literal(-4)))
        CFI (cfiCond129) ?BRET_EXT load(1, XDATA, add(CFA_XSP16, literal(-3)))
        CFI (cfiCond129) DPL0 load(1, XDATA, add(CFA_XSP16, literal(-2)))
        CFI (cfiCond129) DPH0 load(1, XDATA, add(CFA_XSP16, literal(-1)))
        CFI (cfiCond129) CFA_SP SP+-1
        CFI (cfiCond129) CFA_XSP16 add(XSP16, 25)
        CFI Block cfiCond130 Using cfiCommon0
        CFI (cfiCond130) NoFunction
        CFI (cfiCond130) Conditional ??CrossCallReturnLabel_66
        CFI (cfiCond130) R6 load(1, XDATA, add(CFA_XSP16, literal(-24)))
        CFI (cfiCond130) VB load(1, XDATA, add(CFA_XSP16, literal(-23)))
        CFI (cfiCond130) V0 load(1, XDATA, add(CFA_XSP16, literal(-22)))
        CFI (cfiCond130) V1 load(1, XDATA, add(CFA_XSP16, literal(-21)))
        CFI (cfiCond130) V2 load(1, XDATA, add(CFA_XSP16, literal(-20)))
        CFI (cfiCond130) V3 load(1, XDATA, add(CFA_XSP16, literal(-19)))
        CFI (cfiCond130) V4 load(1, XDATA, add(CFA_XSP16, literal(-18)))
        CFI (cfiCond130) V5 load(1, XDATA, add(CFA_XSP16, literal(-17)))
        CFI (cfiCond130) V6 load(1, XDATA, add(CFA_XSP16, literal(-16)))
        CFI (cfiCond130) V7 load(1, XDATA, add(CFA_XSP16, literal(-15)))
        CFI (cfiCond130) V8 load(1, XDATA, add(CFA_XSP16, literal(-14)))
        CFI (cfiCond130) V9 load(1, XDATA, add(CFA_XSP16, literal(-13)))
        CFI (cfiCond130) V10 load(1, XDATA, add(CFA_XSP16, literal(-12)))
        CFI (cfiCond130) V11 load(1, XDATA, add(CFA_XSP16, literal(-11)))
        CFI (cfiCond130) V12 load(1, XDATA, add(CFA_XSP16, literal(-10)))
        CFI (cfiCond130) V13 load(1, XDATA, add(CFA_XSP16, literal(-9)))
        CFI (cfiCond130) V14 load(1, XDATA, add(CFA_XSP16, literal(-8)))
        CFI (cfiCond130) V15 load(1, XDATA, add(CFA_XSP16, literal(-7)))
        CFI (cfiCond130) R7 load(1, XDATA, add(CFA_XSP16, literal(-6)))
        CFI (cfiCond130) ?RET_LOW load(1, XDATA, add(CFA_XSP16, literal(-5)))
        CFI (cfiCond130) ?RET_HIGH load(1, XDATA, add(CFA_XSP16, literal(-4)))
        CFI (cfiCond130) ?BRET_EXT load(1, XDATA, add(CFA_XSP16, literal(-3)))
        CFI (cfiCond130) DPL0 load(1, XDATA, add(CFA_XSP16, literal(-2)))
        CFI (cfiCond130) DPH0 load(1, XDATA, add(CFA_XSP16, literal(-1)))
        CFI (cfiCond130) CFA_SP SP+-1
        CFI (cfiCond130) CFA_XSP16 add(XSP16, 25)
        CFI Block cfiCond131 Using cfiCommon0
        CFI (cfiCond131) NoFunction
        CFI (cfiCond131) Conditional ??CrossCallReturnLabel_67
        CFI (cfiCond131) R6 load(1, XDATA, add(CFA_XSP16, literal(-24)))
        CFI (cfiCond131) VB load(1, XDATA, add(CFA_XSP16, literal(-23)))
        CFI (cfiCond131) V0 load(1, XDATA, add(CFA_XSP16, literal(-22)))
        CFI (cfiCond131) V1 load(1, XDATA, add(CFA_XSP16, literal(-21)))
        CFI (cfiCond131) V2 load(1, XDATA, add(CFA_XSP16, literal(-20)))
        CFI (cfiCond131) V3 load(1, XDATA, add(CFA_XSP16, literal(-19)))
        CFI (cfiCond131) V4 load(1, XDATA, add(CFA_XSP16, literal(-18)))
        CFI (cfiCond131) V5 load(1, XDATA, add(CFA_XSP16, literal(-17)))
        CFI (cfiCond131) V6 load(1, XDATA, add(CFA_XSP16, literal(-16)))
        CFI (cfiCond131) V7 load(1, XDATA, add(CFA_XSP16, literal(-15)))
        CFI (cfiCond131) V8 load(1, XDATA, add(CFA_XSP16, literal(-14)))
        CFI (cfiCond131) V9 load(1, XDATA, add(CFA_XSP16, literal(-13)))
        CFI (cfiCond131) V10 load(1, XDATA, add(CFA_XSP16, literal(-12)))
        CFI (cfiCond131) V11 load(1, XDATA, add(CFA_XSP16, literal(-11)))
        CFI (cfiCond131) V12 load(1, XDATA, add(CFA_XSP16, literal(-10)))
        CFI (cfiCond131) V13 load(1, XDATA, add(CFA_XSP16, literal(-9)))
        CFI (cfiCond131) V14 load(1, XDATA, add(CFA_XSP16, literal(-8)))
        CFI (cfiCond131) V15 load(1, XDATA, add(CFA_XSP16, literal(-7)))
        CFI (cfiCond131) R7 load(1, XDATA, add(CFA_XSP16, literal(-6)))
        CFI (cfiCond131) ?RET_LOW load(1, XDATA, add(CFA_XSP16, literal(-5)))
        CFI (cfiCond131) ?RET_HIGH load(1, XDATA, add(CFA_XSP16, literal(-4)))
        CFI (cfiCond131) ?BRET_EXT load(1, XDATA, add(CFA_XSP16, literal(-3)))
        CFI (cfiCond131) DPL0 load(1, XDATA, add(CFA_XSP16, literal(-2)))
        CFI (cfiCond131) DPH0 load(1, XDATA, add(CFA_XSP16, literal(-1)))
        CFI (cfiCond131) CFA_SP SP+0
        CFI (cfiCond131) CFA_XSP16 add(XSP16, 25)
        CFI Block cfiCond132 Using cfiCommon0
        CFI (cfiCond132) NoFunction
        CFI (cfiCond132) Conditional ??CrossCallReturnLabel_68
        CFI (cfiCond132) R6 load(1, XDATA, add(CFA_XSP16, literal(-24)))
        CFI (cfiCond132) VB load(1, XDATA, add(CFA_XSP16, literal(-23)))
        CFI (cfiCond132) V0 load(1, XDATA, add(CFA_XSP16, literal(-22)))
        CFI (cfiCond132) V1 load(1, XDATA, add(CFA_XSP16, literal(-21)))
        CFI (cfiCond132) V2 load(1, XDATA, add(CFA_XSP16, literal(-20)))
        CFI (cfiCond132) V3 load(1, XDATA, add(CFA_XSP16, literal(-19)))
        CFI (cfiCond132) V4 load(1, XDATA, add(CFA_XSP16, literal(-18)))
        CFI (cfiCond132) V5 load(1, XDATA, add(CFA_XSP16, literal(-17)))
        CFI (cfiCond132) V6 load(1, XDATA, add(CFA_XSP16, literal(-16)))
        CFI (cfiCond132) V7 load(1, XDATA, add(CFA_XSP16, literal(-15)))
        CFI (cfiCond132) V8 load(1, XDATA, add(CFA_XSP16, literal(-14)))
        CFI (cfiCond132) V9 load(1, XDATA, add(CFA_XSP16, literal(-13)))
        CFI (cfiCond132) V10 load(1, XDATA, add(CFA_XSP16, literal(-12)))
        CFI (cfiCond132) V11 load(1, XDATA, add(CFA_XSP16, literal(-11)))
        CFI (cfiCond132) V12 load(1, XDATA, add(CFA_XSP16, literal(-10)))
        CFI (cfiCond132) V13 load(1, XDATA, add(CFA_XSP16, literal(-9)))
        CFI (cfiCond132) V14 load(1, XDATA, add(CFA_XSP16, literal(-8)))
        CFI (cfiCond132) V15 load(1, XDATA, add(CFA_XSP16, literal(-7)))
        CFI (cfiCond132) R7 load(1, XDATA, add(CFA_XSP16, literal(-6)))
        CFI (cfiCond132) ?RET_LOW load(1, XDATA, add(CFA_XSP16, literal(-5)))
        CFI (cfiCond132) ?RET_HIGH load(1, XDATA, add(CFA_XSP16, literal(-4)))
        CFI (cfiCond132) ?BRET_EXT load(1, XDATA, add(CFA_XSP16, literal(-3)))
        CFI (cfiCond132) DPL0 load(1, XDATA, add(CFA_XSP16, literal(-2)))
        CFI (cfiCond132) DPH0 load(1, XDATA, add(CFA_XSP16, literal(-1)))
        CFI (cfiCond132) CFA_SP SP+0
        CFI (cfiCond132) CFA_XSP16 add(XSP16, 25)
        CFI Block cfiCond133 Using cfiCommon0
        CFI (cfiCond133) NoFunction
        CFI (cfiCond133) Conditional ??CrossCallReturnLabel_69
        CFI (cfiCond133) R6 load(1, XDATA, add(CFA_XSP16, literal(-24)))
        CFI (cfiCond133) VB load(1, XDATA, add(CFA_XSP16, literal(-23)))
        CFI (cfiCond133) V0 load(1, XDATA, add(CFA_XSP16, literal(-22)))
        CFI (cfiCond133) V1 load(1, XDATA, add(CFA_XSP16, literal(-21)))
        CFI (cfiCond133) V2 load(1, XDATA, add(CFA_XSP16, literal(-20)))
        CFI (cfiCond133) V3 load(1, XDATA, add(CFA_XSP16, literal(-19)))
        CFI (cfiCond133) V4 load(1, XDATA, add(CFA_XSP16, literal(-18)))
        CFI (cfiCond133) V5 load(1, XDATA, add(CFA_XSP16, literal(-17)))
        CFI (cfiCond133) V6 load(1, XDATA, add(CFA_XSP16, literal(-16)))
        CFI (cfiCond133) V7 load(1, XDATA, add(CFA_XSP16, literal(-15)))
        CFI (cfiCond133) V8 load(1, XDATA, add(CFA_XSP16, literal(-14)))
        CFI (cfiCond133) V9 load(1, XDATA, add(CFA_XSP16, literal(-13)))
        CFI (cfiCond133) V10 load(1, XDATA, add(CFA_XSP16, literal(-12)))
        CFI (cfiCond133) V11 load(1, XDATA, add(CFA_XSP16, literal(-11)))
        CFI (cfiCond133) V12 load(1, XDATA, add(CFA_XSP16, literal(-10)))
        CFI (cfiCond133) V13 load(1, XDATA, add(CFA_XSP16, literal(-9)))
        CFI (cfiCond133) V14 load(1, XDATA, add(CFA_XSP16, literal(-8)))
        CFI (cfiCond133) V15 load(1, XDATA, add(CFA_XSP16, literal(-7)))
        CFI (cfiCond133) R7 load(1, XDATA, add(CFA_XSP16, literal(-6)))
        CFI (cfiCond133) ?RET_LOW load(1, XDATA, add(CFA_XSP16, literal(-5)))
        CFI (cfiCond133) ?RET_HIGH load(1, XDATA, add(CFA_XSP16, literal(-4)))
        CFI (cfiCond133) ?BRET_EXT load(1, XDATA, add(CFA_XSP16, literal(-3)))
        CFI (cfiCond133) DPL0 load(1, XDATA, add(CFA_XSP16, literal(-2)))
        CFI (cfiCond133) DPH0 load(1, XDATA, add(CFA_XSP16, literal(-1)))
        CFI (cfiCond133) CFA_SP SP+0
        CFI (cfiCond133) CFA_XSP16 add(XSP16, 25)
        CFI Block cfiPicker134 Using cfiCommon1
        CFI (cfiPicker134) NoFunction
        CFI (cfiPicker134) Picker
        ADDC    A,#0x0
        MOV     DPH,A
        RET
        CFI EndBlock cfiCond121
        CFI EndBlock cfiCond122
        CFI EndBlock cfiCond123
        CFI EndBlock cfiCond124
        CFI EndBlock cfiCond125
        CFI EndBlock cfiCond126
        CFI EndBlock cfiCond127
        CFI EndBlock cfiCond128
        CFI EndBlock cfiCond129
        CFI EndBlock cfiCond130
        CFI EndBlock cfiCond131
        CFI EndBlock cfiCond132
        CFI EndBlock cfiCond133
        CFI EndBlock cfiPicker134
//  907 
//  908 /*********************************************************************
//  909  * @fn      afNumEndPoints
//  910  *
//  911  * @brief   Returns the number of endpoints defined (including 0)
//  912  *
//  913  * @param   none
//  914  *
//  915  * @return  number of endpoints
//  916  */

        RSEG BANKED_CODE:CODE:NOROOT(0)
//  917 byte afNumEndPoints( void )
afNumEndPoints:
        CFI Block cfiBlock135 Using cfiCommon0
        CFI Function afNumEndPoints
        CODE
//  918 {
        PUSH    DPL
        CFI DPL0 Frame(CFA_SP, 4)
        CFI CFA_SP SP+-4
        PUSH    DPH
        CFI DPH0 Frame(CFA_SP, 5)
        CFI CFA_SP SP+-5
        ; Saved register size: 2
        ; Auto size: 0
//  919   epList_t *epSearch;
//  920   byte endpoints;
//  921 
//  922   // Start at the beginning
//  923   epSearch = epList;
        MOV     DPTR,#epList
        LCALL   ??Subroutine32_0 & 0xFFFF
??CrossCallReturnLabel_74:
        MOV     DPL,R0
        MOV     DPH,R1
//  924   endpoints = 0;
        MOV     R1,#0x0
        SJMP    ??CrossCallReturnLabel_26
//  925 
//  926   while ( epSearch )
//  927   {
//  928     endpoints++;
??afNumEndPoints_0:
        INC     R1
//  929     epSearch = epSearch->nextDesc;
        INC     DPTR
        INC     DPTR
        LCALL   ?Subroutine17 & 0xFFFF
//  930   }
??CrossCallReturnLabel_26:
        MOV     A,DPL
        ORL     A,DPH
        JNZ     ??afNumEndPoints_0
        CFI EndBlock cfiBlock135
//  931 
//  932   return ( endpoints );
        REQUIRE ?Subroutine0
        ; // Fall through to label ?Subroutine0
//  933 }

        RSEG BANKED_CODE:CODE:NOROOT(0)
?Subroutine0:
        CFI Block cfiBlock136 Using cfiCommon0
        CFI NoFunction
        CFI CFA_SP SP+-5
        CFI DPL0 Frame(CFA_SP, 4)
        CFI DPH0 Frame(CFA_SP, 5)
        POP     DPH
        CFI CFA_SP SP+-4
        CFI DPH0 SameValue
        POP     DPL
        CFI CFA_SP SP+-3
        CFI DPL0 SameValue
        LJMP    ?BRET
        CFI EndBlock cfiBlock136

        RSEG BANKED_CODE:CODE:NOROOT(0)
?Subroutine17:
        CFI Block cfiCond137 Using cfiCommon0
        CFI NoFunction
        CFI Conditional ??CrossCallReturnLabel_25
        CFI R6 load(1, XDATA, add(CFA_XSP16, literal(-12)))
        CFI VB load(1, XDATA, add(CFA_XSP16, literal(-11)))
        CFI V0 load(1, XDATA, add(CFA_XSP16, literal(-10)))
        CFI V1 load(1, XDATA, add(CFA_XSP16, literal(-9)))
        CFI V2 load(1, XDATA, add(CFA_XSP16, literal(-8)))
        CFI V3 load(1, XDATA, add(CFA_XSP16, literal(-7)))
        CFI R7 load(1, XDATA, add(CFA_XSP16, literal(-6)))
        CFI ?RET_LOW load(1, XDATA, add(CFA_XSP16, literal(-5)))
        CFI ?RET_HIGH load(1, XDATA, add(CFA_XSP16, literal(-4)))
        CFI ?BRET_EXT load(1, XDATA, add(CFA_XSP16, literal(-3)))
        CFI DPL0 load(1, XDATA, add(CFA_XSP16, literal(-2)))
        CFI DPH0 load(1, XDATA, add(CFA_XSP16, literal(-1)))
        CFI CFA_SP SP+0
        CFI CFA_XSP16 add(XSP16, 12)
        CFI Block cfiCond138 Using cfiCommon0
        CFI (cfiCond138) NoFunction
        CFI (cfiCond138) Conditional ??CrossCallReturnLabel_26
        CFI (cfiCond138) DPL0 Frame(CFA_SP, 4)
        CFI (cfiCond138) DPH0 Frame(CFA_SP, 5)
        CFI (cfiCond138) CFA_SP SP+-5
        CFI Block cfiPicker139 Using cfiCommon1
        CFI (cfiPicker139) NoFunction
        CFI (cfiPicker139) Picker
        INC     DPTR
        INC     DPTR
        INC     DPTR
        MOVX    A,@DPTR
        MOV     R2,A
        INC     DPTR
        MOVX    A,@DPTR
        MOV     R3,A
        MOV     DPL,R2
        MOV     DPH,R3
        RET
        CFI EndBlock cfiCond137
        CFI EndBlock cfiCond138
        CFI EndBlock cfiPicker139

        RSEG BANKED_CODE:CODE:NOROOT(0)
?Subroutine15:
        CFI Block cfiCond140 Using cfiCommon0
        CFI NoFunction
        CFI Conditional ??CrossCallReturnLabel_77
        CFI R6 load(1, XDATA, add(CFA_XSP16, literal(-24)))
        CFI VB load(1, XDATA, add(CFA_XSP16, literal(-23)))
        CFI V0 load(1, XDATA, add(CFA_XSP16, literal(-22)))
        CFI V1 load(1, XDATA, add(CFA_XSP16, literal(-21)))
        CFI V2 load(1, XDATA, add(CFA_XSP16, literal(-20)))
        CFI V3 load(1, XDATA, add(CFA_XSP16, literal(-19)))
        CFI V4 load(1, XDATA, add(CFA_XSP16, literal(-18)))
        CFI V5 load(1, XDATA, add(CFA_XSP16, literal(-17)))
        CFI V6 load(1, XDATA, add(CFA_XSP16, literal(-16)))
        CFI V7 load(1, XDATA, add(CFA_XSP16, literal(-15)))
        CFI V8 load(1, XDATA, add(CFA_XSP16, literal(-14)))
        CFI V9 load(1, XDATA, add(CFA_XSP16, literal(-13)))
        CFI V10 load(1, XDATA, add(CFA_XSP16, literal(-12)))
        CFI V11 load(1, XDATA, add(CFA_XSP16, literal(-11)))
        CFI V12 load(1, XDATA, add(CFA_XSP16, literal(-10)))
        CFI V13 load(1, XDATA, add(CFA_XSP16, literal(-9)))
        CFI V14 load(1, XDATA, add(CFA_XSP16, literal(-8)))
        CFI V15 load(1, XDATA, add(CFA_XSP16, literal(-7)))
        CFI R7 load(1, XDATA, add(CFA_XSP16, literal(-6)))
        CFI ?RET_LOW load(1, XDATA, add(CFA_XSP16, literal(-5)))
        CFI ?RET_HIGH load(1, XDATA, add(CFA_XSP16, literal(-4)))
        CFI ?BRET_EXT load(1, XDATA, add(CFA_XSP16, literal(-3)))
        CFI DPL0 load(1, XDATA, add(CFA_XSP16, literal(-2)))
        CFI DPH0 load(1, XDATA, add(CFA_XSP16, literal(-1)))
        CFI CFA_SP SP+0
        CFI CFA_XSP16 add(XSP16, 26)
        CFI Block cfiCond141 Using cfiCommon0
        CFI (cfiCond141) NoFunction
        CFI (cfiCond141) Conditional ??CrossCallReturnLabel_78
        CFI (cfiCond141) R6 load(1, XDATA, add(CFA_XSP16, literal(-24)))
        CFI (cfiCond141) VB load(1, XDATA, add(CFA_XSP16, literal(-23)))
        CFI (cfiCond141) V0 load(1, XDATA, add(CFA_XSP16, literal(-22)))
        CFI (cfiCond141) V1 load(1, XDATA, add(CFA_XSP16, literal(-21)))
        CFI (cfiCond141) V2 load(1, XDATA, add(CFA_XSP16, literal(-20)))
        CFI (cfiCond141) V3 load(1, XDATA, add(CFA_XSP16, literal(-19)))
        CFI (cfiCond141) V4 load(1, XDATA, add(CFA_XSP16, literal(-18)))
        CFI (cfiCond141) V5 load(1, XDATA, add(CFA_XSP16, literal(-17)))
        CFI (cfiCond141) V6 load(1, XDATA, add(CFA_XSP16, literal(-16)))
        CFI (cfiCond141) V7 load(1, XDATA, add(CFA_XSP16, literal(-15)))
        CFI (cfiCond141) V8 load(1, XDATA, add(CFA_XSP16, literal(-14)))
        CFI (cfiCond141) V9 load(1, XDATA, add(CFA_XSP16, literal(-13)))
        CFI (cfiCond141) V10 load(1, XDATA, add(CFA_XSP16, literal(-12)))
        CFI (cfiCond141) V11 load(1, XDATA, add(CFA_XSP16, literal(-11)))
        CFI (cfiCond141) V12 load(1, XDATA, add(CFA_XSP16, literal(-10)))
        CFI (cfiCond141) V13 load(1, XDATA, add(CFA_XSP16, literal(-9)))
        CFI (cfiCond141) V14 load(1, XDATA, add(CFA_XSP16, literal(-8)))
        CFI (cfiCond141) V15 load(1, XDATA, add(CFA_XSP16, literal(-7)))
        CFI (cfiCond141) R7 load(1, XDATA, add(CFA_XSP16, literal(-6)))
        CFI (cfiCond141) ?RET_LOW load(1, XDATA, add(CFA_XSP16, literal(-5)))
        CFI (cfiCond141) ?RET_HIGH load(1, XDATA, add(CFA_XSP16, literal(-4)))
        CFI (cfiCond141) ?BRET_EXT load(1, XDATA, add(CFA_XSP16, literal(-3)))
        CFI (cfiCond141) DPL0 load(1, XDATA, add(CFA_XSP16, literal(-2)))
        CFI (cfiCond141) DPH0 load(1, XDATA, add(CFA_XSP16, literal(-1)))
        CFI (cfiCond141) CFA_SP SP+0
        CFI (cfiCond141) CFA_XSP16 add(XSP16, 25)
        CFI Block cfiPicker142 Using cfiCommon1
        CFI (cfiPicker142) NoFunction
        CFI (cfiPicker142) Picker
        INC     DPTR
        INC     DPTR
        INC     DPTR
        INC     DPTR
        INC     DPTR
        INC     DPTR
        INC     DPTR
        CFI EndBlock cfiCond140
        CFI EndBlock cfiCond141
        CFI EndBlock cfiPicker142
        REQUIRE ??Subroutine31_0
        ; // Fall through to label ??Subroutine31_0

        RSEG BANKED_CODE:CODE:NOROOT(0)
??Subroutine31_0:
        CFI Block cfiCond143 Using cfiCommon0
        CFI NoFunction
        CFI Conditional ??CrossCallReturnLabel_76
        CFI R6 load(1, XDATA, add(CFA_XSP16, literal(-22)))
        CFI VB load(1, XDATA, add(CFA_XSP16, literal(-21)))
        CFI V0 load(1, XDATA, add(CFA_XSP16, literal(-20)))
        CFI V1 load(1, XDATA, add(CFA_XSP16, literal(-19)))
        CFI V2 load(1, XDATA, add(CFA_XSP16, literal(-18)))
        CFI V3 load(1, XDATA, add(CFA_XSP16, literal(-17)))
        CFI V4 load(1, XDATA, add(CFA_XSP16, literal(-16)))
        CFI V5 load(1, XDATA, add(CFA_XSP16, literal(-15)))
        CFI V6 load(1, XDATA, add(CFA_XSP16, literal(-14)))
        CFI V7 load(1, XDATA, add(CFA_XSP16, literal(-13)))
        CFI V8 load(1, XDATA, add(CFA_XSP16, literal(-12)))
        CFI V9 load(1, XDATA, add(CFA_XSP16, literal(-11)))
        CFI V10 load(1, XDATA, add(CFA_XSP16, literal(-10)))
        CFI V11 load(1, XDATA, add(CFA_XSP16, literal(-9)))
        CFI V12 load(1, XDATA, add(CFA_XSP16, literal(-8)))
        CFI V13 load(1, XDATA, add(CFA_XSP16, literal(-7)))
        CFI R7 load(1, XDATA, add(CFA_XSP16, literal(-6)))
        CFI ?RET_LOW load(1, XDATA, add(CFA_XSP16, literal(-5)))
        CFI ?RET_HIGH load(1, XDATA, add(CFA_XSP16, literal(-4)))
        CFI ?BRET_EXT load(1, XDATA, add(CFA_XSP16, literal(-3)))
        CFI DPL0 load(1, XDATA, add(CFA_XSP16, literal(-2)))
        CFI DPH0 load(1, XDATA, add(CFA_XSP16, literal(-1)))
        CFI CFA_SP SP+0
        CFI CFA_XSP16 add(XSP16, 52)
        CFI Block cfiCond144 Using cfiCommon0
        CFI (cfiCond144) NoFunction
        CFI (cfiCond144) Conditional ??CrossCallReturnLabel_77
        CFI (cfiCond144) R6 load(1, XDATA, add(CFA_XSP16, literal(-24)))
        CFI (cfiCond144) VB load(1, XDATA, add(CFA_XSP16, literal(-23)))
        CFI (cfiCond144) V0 load(1, XDATA, add(CFA_XSP16, literal(-22)))
        CFI (cfiCond144) V1 load(1, XDATA, add(CFA_XSP16, literal(-21)))
        CFI (cfiCond144) V2 load(1, XDATA, add(CFA_XSP16, literal(-20)))
        CFI (cfiCond144) V3 load(1, XDATA, add(CFA_XSP16, literal(-19)))
        CFI (cfiCond144) V4 load(1, XDATA, add(CFA_XSP16, literal(-18)))
        CFI (cfiCond144) V5 load(1, XDATA, add(CFA_XSP16, literal(-17)))
        CFI (cfiCond144) V6 load(1, XDATA, add(CFA_XSP16, literal(-16)))
        CFI (cfiCond144) V7 load(1, XDATA, add(CFA_XSP16, literal(-15)))
        CFI (cfiCond144) V8 load(1, XDATA, add(CFA_XSP16, literal(-14)))
        CFI (cfiCond144) V9 load(1, XDATA, add(CFA_XSP16, literal(-13)))
        CFI (cfiCond144) V10 load(1, XDATA, add(CFA_XSP16, literal(-12)))
        CFI (cfiCond144) V11 load(1, XDATA, add(CFA_XSP16, literal(-11)))
        CFI (cfiCond144) V12 load(1, XDATA, add(CFA_XSP16, literal(-10)))
        CFI (cfiCond144) V13 load(1, XDATA, add(CFA_XSP16, literal(-9)))
        CFI (cfiCond144) V14 load(1, XDATA, add(CFA_XSP16, literal(-8)))
        CFI (cfiCond144) V15 load(1, XDATA, add(CFA_XSP16, literal(-7)))
        CFI (cfiCond144) R7 load(1, XDATA, add(CFA_XSP16, literal(-6)))
        CFI (cfiCond144) ?RET_LOW load(1, XDATA, add(CFA_XSP16, literal(-5)))
        CFI (cfiCond144) ?RET_HIGH load(1, XDATA, add(CFA_XSP16, literal(-4)))
        CFI (cfiCond144) ?BRET_EXT load(1, XDATA, add(CFA_XSP16, literal(-3)))
        CFI (cfiCond144) DPL0 load(1, XDATA, add(CFA_XSP16, literal(-2)))
        CFI (cfiCond144) DPH0 load(1, XDATA, add(CFA_XSP16, literal(-1)))
        CFI (cfiCond144) CFA_SP SP+0
        CFI (cfiCond144) CFA_XSP16 add(XSP16, 26)
        CFI Block cfiCond145 Using cfiCommon0
        CFI (cfiCond145) NoFunction
        CFI (cfiCond145) Conditional ??CrossCallReturnLabel_78
        CFI (cfiCond145) R6 load(1, XDATA, add(CFA_XSP16, literal(-24)))
        CFI (cfiCond145) VB load(1, XDATA, add(CFA_XSP16, literal(-23)))
        CFI (cfiCond145) V0 load(1, XDATA, add(CFA_XSP16, literal(-22)))
        CFI (cfiCond145) V1 load(1, XDATA, add(CFA_XSP16, literal(-21)))
        CFI (cfiCond145) V2 load(1, XDATA, add(CFA_XSP16, literal(-20)))
        CFI (cfiCond145) V3 load(1, XDATA, add(CFA_XSP16, literal(-19)))
        CFI (cfiCond145) V4 load(1, XDATA, add(CFA_XSP16, literal(-18)))
        CFI (cfiCond145) V5 load(1, XDATA, add(CFA_XSP16, literal(-17)))
        CFI (cfiCond145) V6 load(1, XDATA, add(CFA_XSP16, literal(-16)))
        CFI (cfiCond145) V7 load(1, XDATA, add(CFA_XSP16, literal(-15)))
        CFI (cfiCond145) V8 load(1, XDATA, add(CFA_XSP16, literal(-14)))
        CFI (cfiCond145) V9 load(1, XDATA, add(CFA_XSP16, literal(-13)))
        CFI (cfiCond145) V10 load(1, XDATA, add(CFA_XSP16, literal(-12)))
        CFI (cfiCond145) V11 load(1, XDATA, add(CFA_XSP16, literal(-11)))
        CFI (cfiCond145) V12 load(1, XDATA, add(CFA_XSP16, literal(-10)))
        CFI (cfiCond145) V13 load(1, XDATA, add(CFA_XSP16, literal(-9)))
        CFI (cfiCond145) V14 load(1, XDATA, add(CFA_XSP16, literal(-8)))
        CFI (cfiCond145) V15 load(1, XDATA, add(CFA_XSP16, literal(-7)))
        CFI (cfiCond145) R7 load(1, XDATA, add(CFA_XSP16, literal(-6)))
        CFI (cfiCond145) ?RET_LOW load(1, XDATA, add(CFA_XSP16, literal(-5)))
        CFI (cfiCond145) ?RET_HIGH load(1, XDATA, add(CFA_XSP16, literal(-4)))
        CFI (cfiCond145) ?BRET_EXT load(1, XDATA, add(CFA_XSP16, literal(-3)))
        CFI (cfiCond145) DPL0 load(1, XDATA, add(CFA_XSP16, literal(-2)))
        CFI (cfiCond145) DPH0 load(1, XDATA, add(CFA_XSP16, literal(-1)))
        CFI (cfiCond145) CFA_SP SP+0
        CFI (cfiCond145) CFA_XSP16 add(XSP16, 25)
        CFI Block cfiPicker146 Using cfiCommon1
        CFI (cfiPicker146) NoFunction
        CFI (cfiPicker146) Picker
        INC     DPTR
        CFI EndBlock cfiCond143
        CFI EndBlock cfiCond144
        CFI EndBlock cfiCond145
        CFI EndBlock cfiPicker146
        REQUIRE ??Subroutine32_0
        ; // Fall through to label ??Subroutine32_0

        RSEG BANKED_CODE:CODE:NOROOT(0)
??Subroutine32_0:
        CFI Block cfiCond147 Using cfiCommon0
        CFI NoFunction
        CFI Conditional ??CrossCallReturnLabel_70
        CFI R6 load(1, XDATA, add(CFA_XSP16, literal(-24)))
        CFI VB load(1, XDATA, add(CFA_XSP16, literal(-23)))
        CFI V0 load(1, XDATA, add(CFA_XSP16, literal(-22)))
        CFI V1 load(1, XDATA, add(CFA_XSP16, literal(-21)))
        CFI V2 load(1, XDATA, add(CFA_XSP16, literal(-20)))
        CFI V3 load(1, XDATA, add(CFA_XSP16, literal(-19)))
        CFI V4 load(1, XDATA, add(CFA_XSP16, literal(-18)))
        CFI V5 load(1, XDATA, add(CFA_XSP16, literal(-17)))
        CFI V6 load(1, XDATA, add(CFA_XSP16, literal(-16)))
        CFI V7 load(1, XDATA, add(CFA_XSP16, literal(-15)))
        CFI V8 load(1, XDATA, add(CFA_XSP16, literal(-14)))
        CFI V9 load(1, XDATA, add(CFA_XSP16, literal(-13)))
        CFI V10 load(1, XDATA, add(CFA_XSP16, literal(-12)))
        CFI V11 load(1, XDATA, add(CFA_XSP16, literal(-11)))
        CFI V12 load(1, XDATA, add(CFA_XSP16, literal(-10)))
        CFI V13 load(1, XDATA, add(CFA_XSP16, literal(-9)))
        CFI V14 load(1, XDATA, add(CFA_XSP16, literal(-8)))
        CFI V15 load(1, XDATA, add(CFA_XSP16, literal(-7)))
        CFI R7 load(1, XDATA, add(CFA_XSP16, literal(-6)))
        CFI ?RET_LOW load(1, XDATA, add(CFA_XSP16, literal(-5)))
        CFI ?RET_HIGH load(1, XDATA, add(CFA_XSP16, literal(-4)))
        CFI ?BRET_EXT load(1, XDATA, add(CFA_XSP16, literal(-3)))
        CFI DPL0 load(1, XDATA, add(CFA_XSP16, literal(-2)))
        CFI DPH0 load(1, XDATA, add(CFA_XSP16, literal(-1)))
        CFI CFA_SP SP+0
        CFI CFA_XSP16 add(XSP16, 25)
        CFI Block cfiCond148 Using cfiCommon0
        CFI (cfiCond148) NoFunction
        CFI (cfiCond148) Conditional ??CrossCallReturnLabel_71
        CFI (cfiCond148) R6 load(1, XDATA, add(CFA_XSP16, literal(-22)))
        CFI (cfiCond148) VB load(1, XDATA, add(CFA_XSP16, literal(-21)))
        CFI (cfiCond148) V0 load(1, XDATA, add(CFA_XSP16, literal(-20)))
        CFI (cfiCond148) V1 load(1, XDATA, add(CFA_XSP16, literal(-19)))
        CFI (cfiCond148) V2 load(1, XDATA, add(CFA_XSP16, literal(-18)))
        CFI (cfiCond148) V3 load(1, XDATA, add(CFA_XSP16, literal(-17)))
        CFI (cfiCond148) V4 load(1, XDATA, add(CFA_XSP16, literal(-16)))
        CFI (cfiCond148) V5 load(1, XDATA, add(CFA_XSP16, literal(-15)))
        CFI (cfiCond148) V6 load(1, XDATA, add(CFA_XSP16, literal(-14)))
        CFI (cfiCond148) V7 load(1, XDATA, add(CFA_XSP16, literal(-13)))
        CFI (cfiCond148) V8 load(1, XDATA, add(CFA_XSP16, literal(-12)))
        CFI (cfiCond148) V9 load(1, XDATA, add(CFA_XSP16, literal(-11)))
        CFI (cfiCond148) V10 load(1, XDATA, add(CFA_XSP16, literal(-10)))
        CFI (cfiCond148) V11 load(1, XDATA, add(CFA_XSP16, literal(-9)))
        CFI (cfiCond148) V12 load(1, XDATA, add(CFA_XSP16, literal(-8)))
        CFI (cfiCond148) V13 load(1, XDATA, add(CFA_XSP16, literal(-7)))
        CFI (cfiCond148) R7 load(1, XDATA, add(CFA_XSP16, literal(-6)))
        CFI (cfiCond148) ?RET_LOW load(1, XDATA, add(CFA_XSP16, literal(-5)))
        CFI (cfiCond148) ?RET_HIGH load(1, XDATA, add(CFA_XSP16, literal(-4)))
        CFI (cfiCond148) ?BRET_EXT load(1, XDATA, add(CFA_XSP16, literal(-3)))
        CFI (cfiCond148) DPL0 load(1, XDATA, add(CFA_XSP16, literal(-2)))
        CFI (cfiCond148) DPH0 load(1, XDATA, add(CFA_XSP16, literal(-1)))
        CFI (cfiCond148) CFA_SP SP+0
        CFI (cfiCond148) CFA_XSP16 add(XSP16, 52)
        CFI Block cfiCond149 Using cfiCommon0
        CFI (cfiCond149) NoFunction
        CFI (cfiCond149) Conditional ??CrossCallReturnLabel_72
        CFI (cfiCond149) R6 load(1, XDATA, add(CFA_XSP16, literal(-22)))
        CFI (cfiCond149) VB load(1, XDATA, add(CFA_XSP16, literal(-21)))
        CFI (cfiCond149) V0 load(1, XDATA, add(CFA_XSP16, literal(-20)))
        CFI (cfiCond149) V1 load(1, XDATA, add(CFA_XSP16, literal(-19)))
        CFI (cfiCond149) V2 load(1, XDATA, add(CFA_XSP16, literal(-18)))
        CFI (cfiCond149) V3 load(1, XDATA, add(CFA_XSP16, literal(-17)))
        CFI (cfiCond149) V4 load(1, XDATA, add(CFA_XSP16, literal(-16)))
        CFI (cfiCond149) V5 load(1, XDATA, add(CFA_XSP16, literal(-15)))
        CFI (cfiCond149) V6 load(1, XDATA, add(CFA_XSP16, literal(-14)))
        CFI (cfiCond149) V7 load(1, XDATA, add(CFA_XSP16, literal(-13)))
        CFI (cfiCond149) V8 load(1, XDATA, add(CFA_XSP16, literal(-12)))
        CFI (cfiCond149) V9 load(1, XDATA, add(CFA_XSP16, literal(-11)))
        CFI (cfiCond149) V10 load(1, XDATA, add(CFA_XSP16, literal(-10)))
        CFI (cfiCond149) V11 load(1, XDATA, add(CFA_XSP16, literal(-9)))
        CFI (cfiCond149) V12 load(1, XDATA, add(CFA_XSP16, literal(-8)))
        CFI (cfiCond149) V13 load(1, XDATA, add(CFA_XSP16, literal(-7)))
        CFI (cfiCond149) R7 load(1, XDATA, add(CFA_XSP16, literal(-6)))
        CFI (cfiCond149) ?RET_LOW load(1, XDATA, add(CFA_XSP16, literal(-5)))
        CFI (cfiCond149) ?RET_HIGH load(1, XDATA, add(CFA_XSP16, literal(-4)))
        CFI (cfiCond149) ?BRET_EXT load(1, XDATA, add(CFA_XSP16, literal(-3)))
        CFI (cfiCond149) DPL0 load(1, XDATA, add(CFA_XSP16, literal(-2)))
        CFI (cfiCond149) DPH0 load(1, XDATA, add(CFA_XSP16, literal(-1)))
        CFI (cfiCond149) CFA_SP SP+0
        CFI (cfiCond149) CFA_XSP16 add(XSP16, 52)
        CFI Block cfiCond150 Using cfiCommon0
        CFI (cfiCond150) NoFunction
        CFI (cfiCond150) Conditional ??CrossCallReturnLabel_73
        CFI (cfiCond150) R6 load(1, XDATA, add(CFA_XSP16, literal(-22)))
        CFI (cfiCond150) VB load(1, XDATA, add(CFA_XSP16, literal(-21)))
        CFI (cfiCond150) V0 load(1, XDATA, add(CFA_XSP16, literal(-20)))
        CFI (cfiCond150) V1 load(1, XDATA, add(CFA_XSP16, literal(-19)))
        CFI (cfiCond150) V2 load(1, XDATA, add(CFA_XSP16, literal(-18)))
        CFI (cfiCond150) V3 load(1, XDATA, add(CFA_XSP16, literal(-17)))
        CFI (cfiCond150) V4 load(1, XDATA, add(CFA_XSP16, literal(-16)))
        CFI (cfiCond150) V5 load(1, XDATA, add(CFA_XSP16, literal(-15)))
        CFI (cfiCond150) V6 load(1, XDATA, add(CFA_XSP16, literal(-14)))
        CFI (cfiCond150) V7 load(1, XDATA, add(CFA_XSP16, literal(-13)))
        CFI (cfiCond150) V8 load(1, XDATA, add(CFA_XSP16, literal(-12)))
        CFI (cfiCond150) V9 load(1, XDATA, add(CFA_XSP16, literal(-11)))
        CFI (cfiCond150) V10 load(1, XDATA, add(CFA_XSP16, literal(-10)))
        CFI (cfiCond150) V11 load(1, XDATA, add(CFA_XSP16, literal(-9)))
        CFI (cfiCond150) V12 load(1, XDATA, add(CFA_XSP16, literal(-8)))
        CFI (cfiCond150) V13 load(1, XDATA, add(CFA_XSP16, literal(-7)))
        CFI (cfiCond150) R7 load(1, XDATA, add(CFA_XSP16, literal(-6)))
        CFI (cfiCond150) ?RET_LOW load(1, XDATA, add(CFA_XSP16, literal(-5)))
        CFI (cfiCond150) ?RET_HIGH load(1, XDATA, add(CFA_XSP16, literal(-4)))
        CFI (cfiCond150) ?BRET_EXT load(1, XDATA, add(CFA_XSP16, literal(-3)))
        CFI (cfiCond150) DPL0 load(1, XDATA, add(CFA_XSP16, literal(-2)))
        CFI (cfiCond150) DPH0 load(1, XDATA, add(CFA_XSP16, literal(-1)))
        CFI (cfiCond150) CFA_SP SP+0
        CFI (cfiCond150) CFA_XSP16 add(XSP16, 52)
        CFI Block cfiCond151 Using cfiCommon0
        CFI (cfiCond151) NoFunction
        CFI (cfiCond151) Conditional ??CrossCallReturnLabel_74
        CFI (cfiCond151) DPL0 Frame(CFA_SP, 4)
        CFI (cfiCond151) DPH0 Frame(CFA_SP, 5)
        CFI (cfiCond151) CFA_SP SP+-5
        CFI Block cfiCond152 Using cfiCommon0
        CFI (cfiCond152) NoFunction
        CFI (cfiCond152) Conditional ??CrossCallReturnLabel_75
        CFI (cfiCond152) R6 load(1, XDATA, add(CFA_XSP16, literal(-9)))
        CFI (cfiCond152) VB load(1, XDATA, add(CFA_XSP16, literal(-8)))
        CFI (cfiCond152) V0 load(1, XDATA, add(CFA_XSP16, literal(-7)))
        CFI (cfiCond152) R7 load(1, XDATA, add(CFA_XSP16, literal(-6)))
        CFI (cfiCond152) ?RET_LOW load(1, XDATA, add(CFA_XSP16, literal(-5)))
        CFI (cfiCond152) ?RET_HIGH load(1, XDATA, add(CFA_XSP16, literal(-4)))
        CFI (cfiCond152) ?BRET_EXT load(1, XDATA, add(CFA_XSP16, literal(-3)))
        CFI (cfiCond152) DPL0 load(1, XDATA, add(CFA_XSP16, literal(-2)))
        CFI (cfiCond152) DPH0 load(1, XDATA, add(CFA_XSP16, literal(-1)))
        CFI (cfiCond152) CFA_SP SP+0
        CFI (cfiCond152) CFA_XSP16 add(XSP16, 9)
        CFI Block cfiCond153 Using cfiCommon0
        CFI (cfiCond153) NoFunction
        CFI (cfiCond153) Conditional ??CrossCallReturnLabel_76
        CFI (cfiCond153) R6 load(1, XDATA, add(CFA_XSP16, literal(-22)))
        CFI (cfiCond153) VB load(1, XDATA, add(CFA_XSP16, literal(-21)))
        CFI (cfiCond153) V0 load(1, XDATA, add(CFA_XSP16, literal(-20)))
        CFI (cfiCond153) V1 load(1, XDATA, add(CFA_XSP16, literal(-19)))
        CFI (cfiCond153) V2 load(1, XDATA, add(CFA_XSP16, literal(-18)))
        CFI (cfiCond153) V3 load(1, XDATA, add(CFA_XSP16, literal(-17)))
        CFI (cfiCond153) V4 load(1, XDATA, add(CFA_XSP16, literal(-16)))
        CFI (cfiCond153) V5 load(1, XDATA, add(CFA_XSP16, literal(-15)))
        CFI (cfiCond153) V6 load(1, XDATA, add(CFA_XSP16, literal(-14)))
        CFI (cfiCond153) V7 load(1, XDATA, add(CFA_XSP16, literal(-13)))
        CFI (cfiCond153) V8 load(1, XDATA, add(CFA_XSP16, literal(-12)))
        CFI (cfiCond153) V9 load(1, XDATA, add(CFA_XSP16, literal(-11)))
        CFI (cfiCond153) V10 load(1, XDATA, add(CFA_XSP16, literal(-10)))
        CFI (cfiCond153) V11 load(1, XDATA, add(CFA_XSP16, literal(-9)))
        CFI (cfiCond153) V12 load(1, XDATA, add(CFA_XSP16, literal(-8)))
        CFI (cfiCond153) V13 load(1, XDATA, add(CFA_XSP16, literal(-7)))
        CFI (cfiCond153) R7 load(1, XDATA, add(CFA_XSP16, literal(-6)))
        CFI (cfiCond153) ?RET_LOW load(1, XDATA, add(CFA_XSP16, literal(-5)))
        CFI (cfiCond153) ?RET_HIGH load(1, XDATA, add(CFA_XSP16, literal(-4)))
        CFI (cfiCond153) ?BRET_EXT load(1, XDATA, add(CFA_XSP16, literal(-3)))
        CFI (cfiCond153) DPL0 load(1, XDATA, add(CFA_XSP16, literal(-2)))
        CFI (cfiCond153) DPH0 load(1, XDATA, add(CFA_XSP16, literal(-1)))
        CFI (cfiCond153) CFA_SP SP+0
        CFI (cfiCond153) CFA_XSP16 add(XSP16, 52)
        CFI Block cfiCond154 Using cfiCommon0
        CFI (cfiCond154) NoFunction
        CFI (cfiCond154) Conditional ??CrossCallReturnLabel_77
        CFI (cfiCond154) R6 load(1, XDATA, add(CFA_XSP16, literal(-24)))
        CFI (cfiCond154) VB load(1, XDATA, add(CFA_XSP16, literal(-23)))
        CFI (cfiCond154) V0 load(1, XDATA, add(CFA_XSP16, literal(-22)))
        CFI (cfiCond154) V1 load(1, XDATA, add(CFA_XSP16, literal(-21)))
        CFI (cfiCond154) V2 load(1, XDATA, add(CFA_XSP16, literal(-20)))
        CFI (cfiCond154) V3 load(1, XDATA, add(CFA_XSP16, literal(-19)))
        CFI (cfiCond154) V4 load(1, XDATA, add(CFA_XSP16, literal(-18)))
        CFI (cfiCond154) V5 load(1, XDATA, add(CFA_XSP16, literal(-17)))
        CFI (cfiCond154) V6 load(1, XDATA, add(CFA_XSP16, literal(-16)))
        CFI (cfiCond154) V7 load(1, XDATA, add(CFA_XSP16, literal(-15)))
        CFI (cfiCond154) V8 load(1, XDATA, add(CFA_XSP16, literal(-14)))
        CFI (cfiCond154) V9 load(1, XDATA, add(CFA_XSP16, literal(-13)))
        CFI (cfiCond154) V10 load(1, XDATA, add(CFA_XSP16, literal(-12)))
        CFI (cfiCond154) V11 load(1, XDATA, add(CFA_XSP16, literal(-11)))
        CFI (cfiCond154) V12 load(1, XDATA, add(CFA_XSP16, literal(-10)))
        CFI (cfiCond154) V13 load(1, XDATA, add(CFA_XSP16, literal(-9)))
        CFI (cfiCond154) V14 load(1, XDATA, add(CFA_XSP16, literal(-8)))
        CFI (cfiCond154) V15 load(1, XDATA, add(CFA_XSP16, literal(-7)))
        CFI (cfiCond154) R7 load(1, XDATA, add(CFA_XSP16, literal(-6)))
        CFI (cfiCond154) ?RET_LOW load(1, XDATA, add(CFA_XSP16, literal(-5)))
        CFI (cfiCond154) ?RET_HIGH load(1, XDATA, add(CFA_XSP16, literal(-4)))
        CFI (cfiCond154) ?BRET_EXT load(1, XDATA, add(CFA_XSP16, literal(-3)))
        CFI (cfiCond154) DPL0 load(1, XDATA, add(CFA_XSP16, literal(-2)))
        CFI (cfiCond154) DPH0 load(1, XDATA, add(CFA_XSP16, literal(-1)))
        CFI (cfiCond154) CFA_SP SP+0
        CFI (cfiCond154) CFA_XSP16 add(XSP16, 26)
        CFI Block cfiCond155 Using cfiCommon0
        CFI (cfiCond155) NoFunction
        CFI (cfiCond155) Conditional ??CrossCallReturnLabel_78
        CFI (cfiCond155) R6 load(1, XDATA, add(CFA_XSP16, literal(-24)))
        CFI (cfiCond155) VB load(1, XDATA, add(CFA_XSP16, literal(-23)))
        CFI (cfiCond155) V0 load(1, XDATA, add(CFA_XSP16, literal(-22)))
        CFI (cfiCond155) V1 load(1, XDATA, add(CFA_XSP16, literal(-21)))
        CFI (cfiCond155) V2 load(1, XDATA, add(CFA_XSP16, literal(-20)))
        CFI (cfiCond155) V3 load(1, XDATA, add(CFA_XSP16, literal(-19)))
        CFI (cfiCond155) V4 load(1, XDATA, add(CFA_XSP16, literal(-18)))
        CFI (cfiCond155) V5 load(1, XDATA, add(CFA_XSP16, literal(-17)))
        CFI (cfiCond155) V6 load(1, XDATA, add(CFA_XSP16, literal(-16)))
        CFI (cfiCond155) V7 load(1, XDATA, add(CFA_XSP16, literal(-15)))
        CFI (cfiCond155) V8 load(1, XDATA, add(CFA_XSP16, literal(-14)))
        CFI (cfiCond155) V9 load(1, XDATA, add(CFA_XSP16, literal(-13)))
        CFI (cfiCond155) V10 load(1, XDATA, add(CFA_XSP16, literal(-12)))
        CFI (cfiCond155) V11 load(1, XDATA, add(CFA_XSP16, literal(-11)))
        CFI (cfiCond155) V12 load(1, XDATA, add(CFA_XSP16, literal(-10)))
        CFI (cfiCond155) V13 load(1, XDATA, add(CFA_XSP16, literal(-9)))
        CFI (cfiCond155) V14 load(1, XDATA, add(CFA_XSP16, literal(-8)))
        CFI (cfiCond155) V15 load(1, XDATA, add(CFA_XSP16, literal(-7)))
        CFI (cfiCond155) R7 load(1, XDATA, add(CFA_XSP16, literal(-6)))
        CFI (cfiCond155) ?RET_LOW load(1, XDATA, add(CFA_XSP16, literal(-5)))
        CFI (cfiCond155) ?RET_HIGH load(1, XDATA, add(CFA_XSP16, literal(-4)))
        CFI (cfiCond155) ?BRET_EXT load(1, XDATA, add(CFA_XSP16, literal(-3)))
        CFI (cfiCond155) DPL0 load(1, XDATA, add(CFA_XSP16, literal(-2)))
        CFI (cfiCond155) DPH0 load(1, XDATA, add(CFA_XSP16, literal(-1)))
        CFI (cfiCond155) CFA_SP SP+0
        CFI (cfiCond155) CFA_XSP16 add(XSP16, 25)
        CFI Block cfiPicker156 Using cfiCommon1
        CFI (cfiPicker156) NoFunction
        CFI (cfiPicker156) Picker
        LCALL   ??Subroutine28_0 & 0xFFFF
??CrossCallReturnLabel_82:
        RET
        CFI EndBlock cfiCond147
        CFI EndBlock cfiCond148
        CFI EndBlock cfiCond149
        CFI EndBlock cfiCond150
        CFI EndBlock cfiCond151
        CFI EndBlock cfiCond152
        CFI EndBlock cfiCond153
        CFI EndBlock cfiCond154
        CFI EndBlock cfiCond155
        CFI EndBlock cfiPicker156
//  934 
//  935 /*********************************************************************
//  936  * @fn      afEndPoints
//  937  *
//  938  * @brief   Fills in the passed in buffer with the endpoint (numbers).
//  939  *          Use afNumEndPoints to find out how big a buffer to supply.
//  940  *
//  941  * @param   epBuf - pointer to mem used
//  942  *
//  943  * @return  void
//  944  */

        RSEG BANKED_CODE:CODE:NOROOT(0)
//  945 void afEndPoints( byte *epBuf, byte skipZDO )
afEndPoints:
        CFI Block cfiBlock157 Using cfiCommon0
        CFI Function afEndPoints
        CODE
//  946 {
        PUSH    DPL
        CFI DPL0 Frame(CFA_SP, 4)
        CFI CFA_SP SP+-4
        PUSH    DPH
        CFI DPH0 Frame(CFA_SP, 5)
        CFI CFA_SP SP+-5
        ; Saved register size: 2
        ; Auto size: 0
//  947   epList_t *epSearch;
//  948   byte endPoint;
//  949 
//  950   // Start at the beginning
//  951   epSearch = epList;
        MOV     DPTR,#epList
        SJMP    ??afEndPoints_0
//  952 
//  953   while ( epSearch )
//  954   {
//  955     endPoint = epSearch->epDesc->endPoint;
??afEndPoints_1:
        MOV     DPL,R4
        MOV     DPH,R5
        LCALL   ?Subroutine19 & 0xFFFF
??CrossCallReturnLabel_34:
        MOV     R0,A
//  956 
//  957     if ( !skipZDO || endPoint != 0 )
        MOV     A,R1
        JZ      ??afEndPoints_2
        MOV     A,R0
        JZ      ??afEndPoints_3
//  958       *epBuf++ = endPoint;
??afEndPoints_2:
        MOV     A,R0
        MOV     DPL,R2
        MOV     DPH,R3
        MOVX    @DPTR,A
        INC     DPTR
        MOV     R2,DPL
        MOV     R3,DPH
//  959 
//  960     epSearch = epSearch->nextDesc;
??afEndPoints_3:
        MOV     DPL,R4
        MOV     DPH,R5
        INC     DPTR
        INC     DPTR
        INC     DPTR
        INC     DPTR
        INC     DPTR
??afEndPoints_0:
        MOVX    A,@DPTR
        MOV     R4,A
        INC     DPTR
        MOVX    A,@DPTR
        MOV     R5,A
//  961   }
        MOV     A,R4
        ORL     A,R5
        JNZ     ??afEndPoints_1
//  962 }
        SJMP    ?Subroutine0
        CFI EndBlock cfiBlock157

        RSEG BANKED_CODE:CODE:NOROOT(0)
?Subroutine19:
        CFI Block cfiCond158 Using cfiCommon0
        CFI NoFunction
        CFI Conditional ??CrossCallReturnLabel_33
        CFI DPL0 Frame(CFA_SP, 4)
        CFI DPH0 Frame(CFA_SP, 5)
        CFI CFA_SP SP+-5
        CFI Block cfiCond159 Using cfiCommon0
        CFI (cfiCond159) NoFunction
        CFI (cfiCond159) Conditional ??CrossCallReturnLabel_34
        CFI (cfiCond159) DPL0 Frame(CFA_SP, 4)
        CFI (cfiCond159) DPH0 Frame(CFA_SP, 5)
        CFI (cfiCond159) CFA_SP SP+-5
        CFI Block cfiPicker160 Using cfiCommon1
        CFI (cfiPicker160) NoFunction
        CFI (cfiPicker160) Picker
        LCALL   ?Subroutine26 & 0xFFFF
??CrossCallReturnLabel_45:
        RET
        CFI EndBlock cfiCond158
        CFI EndBlock cfiCond159
        CFI EndBlock cfiPicker160

        RSEG BANKED_CODE:CODE:NOROOT(0)
?Subroutine26:
        CFI Block cfiCond161 Using cfiCommon0
        CFI NoFunction
        CFI Conditional ??CrossCallReturnLabel_44, ??CrossCallReturnLabel_14
        CFI R6 load(1, XDATA, add(CFA_XSP16, literal(-14)))
        CFI VB load(1, XDATA, add(CFA_XSP16, literal(-13)))
        CFI V0 load(1, XDATA, add(CFA_XSP16, literal(-12)))
        CFI V1 load(1, XDATA, add(CFA_XSP16, literal(-11)))
        CFI V2 load(1, XDATA, add(CFA_XSP16, literal(-10)))
        CFI V3 load(1, XDATA, add(CFA_XSP16, literal(-9)))
        CFI V4 load(1, XDATA, add(CFA_XSP16, literal(-8)))
        CFI V5 load(1, XDATA, add(CFA_XSP16, literal(-7)))
        CFI R7 load(1, XDATA, add(CFA_XSP16, literal(-6)))
        CFI ?RET_LOW load(1, XDATA, add(CFA_XSP16, literal(-5)))
        CFI ?RET_HIGH load(1, XDATA, add(CFA_XSP16, literal(-4)))
        CFI ?BRET_EXT load(1, XDATA, add(CFA_XSP16, literal(-3)))
        CFI DPL0 load(1, XDATA, add(CFA_XSP16, literal(-2)))
        CFI DPH0 load(1, XDATA, add(CFA_XSP16, literal(-1)))
        CFI CFA_SP SP+0
        CFI CFA_XSP16 add(XSP16, 14)
        CFI Block cfiCond162 Using cfiCommon0
        CFI (cfiCond162) NoFunction
        CFI (cfiCond162) Conditional ??CrossCallReturnLabel_44, ??CrossCallReturnLabel_15
        CFI (cfiCond162) R6 load(1, XDATA, add(CFA_XSP16, literal(-24)))
        CFI (cfiCond162) VB load(1, XDATA, add(CFA_XSP16, literal(-23)))
        CFI (cfiCond162) V0 load(1, XDATA, add(CFA_XSP16, literal(-22)))
        CFI (cfiCond162) V1 load(1, XDATA, add(CFA_XSP16, literal(-21)))
        CFI (cfiCond162) V2 load(1, XDATA, add(CFA_XSP16, literal(-20)))
        CFI (cfiCond162) V3 load(1, XDATA, add(CFA_XSP16, literal(-19)))
        CFI (cfiCond162) V4 load(1, XDATA, add(CFA_XSP16, literal(-18)))
        CFI (cfiCond162) V5 load(1, XDATA, add(CFA_XSP16, literal(-17)))
        CFI (cfiCond162) V6 load(1, XDATA, add(CFA_XSP16, literal(-16)))
        CFI (cfiCond162) V7 load(1, XDATA, add(CFA_XSP16, literal(-15)))
        CFI (cfiCond162) V8 load(1, XDATA, add(CFA_XSP16, literal(-14)))
        CFI (cfiCond162) V9 load(1, XDATA, add(CFA_XSP16, literal(-13)))
        CFI (cfiCond162) V10 load(1, XDATA, add(CFA_XSP16, literal(-12)))
        CFI (cfiCond162) V11 load(1, XDATA, add(CFA_XSP16, literal(-11)))
        CFI (cfiCond162) V12 load(1, XDATA, add(CFA_XSP16, literal(-10)))
        CFI (cfiCond162) V13 load(1, XDATA, add(CFA_XSP16, literal(-9)))
        CFI (cfiCond162) V14 load(1, XDATA, add(CFA_XSP16, literal(-8)))
        CFI (cfiCond162) V15 load(1, XDATA, add(CFA_XSP16, literal(-7)))
        CFI (cfiCond162) R7 load(1, XDATA, add(CFA_XSP16, literal(-6)))
        CFI (cfiCond162) ?RET_LOW load(1, XDATA, add(CFA_XSP16, literal(-5)))
        CFI (cfiCond162) ?RET_HIGH load(1, XDATA, add(CFA_XSP16, literal(-4)))
        CFI (cfiCond162) ?BRET_EXT load(1, XDATA, add(CFA_XSP16, literal(-3)))
        CFI (cfiCond162) DPL0 load(1, XDATA, add(CFA_XSP16, literal(-2)))
        CFI (cfiCond162) DPH0 load(1, XDATA, add(CFA_XSP16, literal(-1)))
        CFI (cfiCond162) CFA_SP SP+0
        CFI (cfiCond162) CFA_XSP16 add(XSP16, 25)
        CFI Block cfiCond163 Using cfiCommon0
        CFI (cfiCond163) NoFunction
        CFI (cfiCond163) Conditional ??CrossCallReturnLabel_45, ??CrossCallReturnLabel_33
        CFI (cfiCond163) DPL0 Frame(CFA_SP, 4)
        CFI (cfiCond163) DPH0 Frame(CFA_SP, 5)
        CFI (cfiCond163) CFA_SP SP+-5
        CFI Block cfiCond164 Using cfiCommon0
        CFI (cfiCond164) NoFunction
        CFI (cfiCond164) Conditional ??CrossCallReturnLabel_45, ??CrossCallReturnLabel_34
        CFI (cfiCond164) DPL0 Frame(CFA_SP, 4)
        CFI (cfiCond164) DPH0 Frame(CFA_SP, 5)
        CFI (cfiCond164) CFA_SP SP+-5
        CFI Block cfiPicker165 Using cfiCommon1
        CFI (cfiPicker165) NoFunction
        CFI (cfiPicker165) Picker
        LCALL   ?Subroutine27 & 0xFFFF
??CrossCallReturnLabel_47:
        MOVX    A,@DPTR
        RET
        CFI EndBlock cfiCond161
        CFI EndBlock cfiCond162
        CFI EndBlock cfiCond163
        CFI EndBlock cfiCond164
        CFI EndBlock cfiPicker165

        RSEG BANKED_CODE:CODE:NOROOT(0)
?Subroutine27:
        CFI Block cfiCond166 Using cfiCommon0
        CFI NoFunction
        CFI Conditional ??CrossCallReturnLabel_46
        CFI R6 load(1, XDATA, add(CFA_XSP16, literal(-12)))
        CFI VB load(1, XDATA, add(CFA_XSP16, literal(-11)))
        CFI V0 load(1, XDATA, add(CFA_XSP16, literal(-10)))
        CFI V1 load(1, XDATA, add(CFA_XSP16, literal(-9)))
        CFI V2 load(1, XDATA, add(CFA_XSP16, literal(-8)))
        CFI V3 load(1, XDATA, add(CFA_XSP16, literal(-7)))
        CFI R7 load(1, XDATA, add(CFA_XSP16, literal(-6)))
        CFI ?RET_LOW load(1, XDATA, add(CFA_XSP16, literal(-5)))
        CFI ?RET_HIGH load(1, XDATA, add(CFA_XSP16, literal(-4)))
        CFI ?BRET_EXT load(1, XDATA, add(CFA_XSP16, literal(-3)))
        CFI DPL0 load(1, XDATA, add(CFA_XSP16, literal(-2)))
        CFI DPH0 load(1, XDATA, add(CFA_XSP16, literal(-1)))
        CFI CFA_SP SP+0
        CFI CFA_XSP16 add(XSP16, 12)
        CFI Block cfiCond167 Using cfiCommon0
        CFI (cfiCond167) NoFunction
        CFI (cfiCond167) Conditional ??CrossCallReturnLabel_47, ??CrossCallReturnLabel_44, ??CrossCallReturnLabel_14
        CFI (cfiCond167) R6 load(1, XDATA, add(CFA_XSP16, literal(-14)))
        CFI (cfiCond167) VB load(1, XDATA, add(CFA_XSP16, literal(-13)))
        CFI (cfiCond167) V0 load(1, XDATA, add(CFA_XSP16, literal(-12)))
        CFI (cfiCond167) V1 load(1, XDATA, add(CFA_XSP16, literal(-11)))
        CFI (cfiCond167) V2 load(1, XDATA, add(CFA_XSP16, literal(-10)))
        CFI (cfiCond167) V3 load(1, XDATA, add(CFA_XSP16, literal(-9)))
        CFI (cfiCond167) V4 load(1, XDATA, add(CFA_XSP16, literal(-8)))
        CFI (cfiCond167) V5 load(1, XDATA, add(CFA_XSP16, literal(-7)))
        CFI (cfiCond167) R7 load(1, XDATA, add(CFA_XSP16, literal(-6)))
        CFI (cfiCond167) ?RET_LOW load(1, XDATA, add(CFA_XSP16, literal(-5)))
        CFI (cfiCond167) ?RET_HIGH load(1, XDATA, add(CFA_XSP16, literal(-4)))
        CFI (cfiCond167) ?BRET_EXT load(1, XDATA, add(CFA_XSP16, literal(-3)))
        CFI (cfiCond167) DPL0 load(1, XDATA, add(CFA_XSP16, literal(-2)))
        CFI (cfiCond167) DPH0 load(1, XDATA, add(CFA_XSP16, literal(-1)))
        CFI (cfiCond167) CFA_SP SP+0
        CFI (cfiCond167) CFA_XSP16 add(XSP16, 14)
        CFI Block cfiCond168 Using cfiCommon0
        CFI (cfiCond168) NoFunction
        CFI (cfiCond168) Conditional ??CrossCallReturnLabel_47, ??CrossCallReturnLabel_44, ??CrossCallReturnLabel_15
        CFI (cfiCond168) R6 load(1, XDATA, add(CFA_XSP16, literal(-24)))
        CFI (cfiCond168) VB load(1, XDATA, add(CFA_XSP16, literal(-23)))
        CFI (cfiCond168) V0 load(1, XDATA, add(CFA_XSP16, literal(-22)))
        CFI (cfiCond168) V1 load(1, XDATA, add(CFA_XSP16, literal(-21)))
        CFI (cfiCond168) V2 load(1, XDATA, add(CFA_XSP16, literal(-20)))
        CFI (cfiCond168) V3 load(1, XDATA, add(CFA_XSP16, literal(-19)))
        CFI (cfiCond168) V4 load(1, XDATA, add(CFA_XSP16, literal(-18)))
        CFI (cfiCond168) V5 load(1, XDATA, add(CFA_XSP16, literal(-17)))
        CFI (cfiCond168) V6 load(1, XDATA, add(CFA_XSP16, literal(-16)))
        CFI (cfiCond168) V7 load(1, XDATA, add(CFA_XSP16, literal(-15)))
        CFI (cfiCond168) V8 load(1, XDATA, add(CFA_XSP16, literal(-14)))
        CFI (cfiCond168) V9 load(1, XDATA, add(CFA_XSP16, literal(-13)))
        CFI (cfiCond168) V10 load(1, XDATA, add(CFA_XSP16, literal(-12)))
        CFI (cfiCond168) V11 load(1, XDATA, add(CFA_XSP16, literal(-11)))
        CFI (cfiCond168) V12 load(1, XDATA, add(CFA_XSP16, literal(-10)))
        CFI (cfiCond168) V13 load(1, XDATA, add(CFA_XSP16, literal(-9)))
        CFI (cfiCond168) V14 load(1, XDATA, add(CFA_XSP16, literal(-8)))
        CFI (cfiCond168) V15 load(1, XDATA, add(CFA_XSP16, literal(-7)))
        CFI (cfiCond168) R7 load(1, XDATA, add(CFA_XSP16, literal(-6)))
        CFI (cfiCond168) ?RET_LOW load(1, XDATA, add(CFA_XSP16, literal(-5)))
        CFI (cfiCond168) ?RET_HIGH load(1, XDATA, add(CFA_XSP16, literal(-4)))
        CFI (cfiCond168) ?BRET_EXT load(1, XDATA, add(CFA_XSP16, literal(-3)))
        CFI (cfiCond168) DPL0 load(1, XDATA, add(CFA_XSP16, literal(-2)))
        CFI (cfiCond168) DPH0 load(1, XDATA, add(CFA_XSP16, literal(-1)))
        CFI (cfiCond168) CFA_SP SP+0
        CFI (cfiCond168) CFA_XSP16 add(XSP16, 25)
        CFI Block cfiCond169 Using cfiCommon0
        CFI (cfiCond169) NoFunction
        CFI (cfiCond169) Conditional ??CrossCallReturnLabel_47, ??CrossCallReturnLabel_45, ??CrossCallReturnLabel_33
        CFI (cfiCond169) DPL0 Frame(CFA_SP, 4)
        CFI (cfiCond169) DPH0 Frame(CFA_SP, 5)
        CFI (cfiCond169) CFA_SP SP+-5
        CFI Block cfiCond170 Using cfiCommon0
        CFI (cfiCond170) NoFunction
        CFI (cfiCond170) Conditional ??CrossCallReturnLabel_47, ??CrossCallReturnLabel_45, ??CrossCallReturnLabel_34
        CFI (cfiCond170) DPL0 Frame(CFA_SP, 4)
        CFI (cfiCond170) DPH0 Frame(CFA_SP, 5)
        CFI (cfiCond170) CFA_SP SP+-5
        CFI Block cfiPicker171 Using cfiCommon1
        CFI (cfiPicker171) NoFunction
        CFI (cfiPicker171) Picker
        MOVX    A,@DPTR
        MOV     R0,A
        INC     DPTR
        MOVX    A,@DPTR
        MOV     DPH,A
        MOV     DPL,R0
        RET
        CFI EndBlock cfiCond166
        CFI EndBlock cfiCond167
        CFI EndBlock cfiCond168
        CFI EndBlock cfiCond169
        CFI EndBlock cfiCond170
        CFI EndBlock cfiPicker171
//  963 
//  964 

        RSEG BANKED_CODE:CODE:NOROOT(0)
//  965 void afCopyAddress ( afAddrType_t *afAddr, zAddrType_t *zAddr )
afCopyAddress:
        CFI Block cfiBlock172 Using cfiCommon0
        CFI Function afCopyAddress
        CODE
//  966 {
        FUNCALL afCopyAddress, sAddrExtCpy
        LOCFRAME ISTACK, 0, STACK
        LOCFRAME PSTACK, 0, STACK
        LOCFRAME XSTACK, 9, STACK
        LOCFRAME IOVERLAY, 0, STATIC
        LOCFRAME DOVERLAY, 0, STATIC
        ARGFRAME ISTACK, 0, STACK
        ARGFRAME PSTACK, 0, STACK
        ARGFRAME XSTACK, 9, STACK
        ARGFRAME IOVERLAY, 0, STATIC
        ARGFRAME DOVERLAY, 0, STATIC
        MOV     A,#-0x9
        LCALL   ?BANKED_ENTER_XDATA
        CFI DPH0 load(1, XDATA, add(CFA_XSP16, literal(-1)))
        CFI DPL0 load(1, XDATA, add(CFA_XSP16, literal(-2)))
        CFI ?BRET_EXT load(1, XDATA, add(CFA_XSP16, literal(-3)))
        CFI ?RET_HIGH load(1, XDATA, add(CFA_XSP16, literal(-4)))
        CFI ?RET_LOW load(1, XDATA, add(CFA_XSP16, literal(-5)))
        CFI R7 load(1, XDATA, add(CFA_XSP16, literal(-6)))
        CFI V0 load(1, XDATA, add(CFA_XSP16, literal(-7)))
        CFI VB load(1, XDATA, add(CFA_XSP16, literal(-8)))
        CFI R6 load(1, XDATA, add(CFA_XSP16, literal(-9)))
        CFI CFA_SP SP+0
        CFI CFA_XSP16 add(XSP16, 9)
        ; Saved register size: 9
        ; Auto size: 0
//  967   afAddr->addrMode = (afAddrMode_t)zAddr->addrMode;
        MOV     A,R4
        ADD     A,#0x8
        MOV     R0,A
        MOV     A,R5
        ADDC    A,#0x0
        MOV     R1,A
        MOV     DPL,R0
        MOV     DPH,R1
        MOVX    A,@DPTR
        MOV     DPL,R2
        MOV     DPH,R3
        INC     DPTR
        INC     DPTR
        INC     DPTR
        INC     DPTR
        INC     DPTR
        INC     DPTR
        INC     DPTR
        INC     DPTR
        MOVX    @DPTR,A
//  968   if ( zAddr->addrMode == Addr64Bit )
        MOV     DPL,R0
        MOV     DPH,R1
        MOVX    A,@DPTR
        XRL     A,#0x3
        JNZ     ??afCopyAddress_0
//  969     osal_cpyExtAddr( afAddr->addr.extAddr, zAddr->addr.extAddr );
        ; Setup parameters for call to function sAddrExtCpy
        LCALL   ??sAddrExtCpy?relay
        SJMP    ??CrossCallReturnLabel_54
//  970   else
//  971     afAddr->addr.shortAddr = zAddr->addr.shortAddr;
??afCopyAddress_0:
        MOV     DPL,R4
        MOV     DPH,R5
        LCALL   ??Subroutine32_0 & 0xFFFF
??CrossCallReturnLabel_75:
        MOV     DPL,R2
        MOV     DPH,R3
        LCALL   ??Subroutine29_0 & 0xFFFF
//  972 }
??CrossCallReturnLabel_54:
        LJMP    ?Subroutine4 & 0xFFFF
        CFI EndBlock cfiBlock172

        RSEG XDATA_ID:CODE:NOROOT(0)
`?<Initializer for AF_DataRequestDiscoverRoute>`:
        DATA8
        DB 1

        RSEG BANK_RELAYS:CODE:REORDER:NOROOT(0)
??afInit?relay:
        LCALL   ?BDISPATCH
        DATA
        DC24    afInit

        RSEG BANK_RELAYS:CODE:REORDER:NOROOT(0)
??afRegisterExtended?relay:
        LCALL   ?BDISPATCH
        DATA
        DC24    afRegisterExtended

        RSEG BANK_RELAYS:CODE:REORDER:NOROOT(0)
??afRegister?relay:
        LCALL   ?BDISPATCH
        DATA
        DC24    afRegister

        RSEG BANK_RELAYS:CODE:REORDER:NOROOT(0)
??afDataConfirm?relay:
        LCALL   ?BDISPATCH
        DATA
        DC24    afDataConfirm

        RSEG BANK_RELAYS:CODE:REORDER:NOROOT(0)
??afIncomingData?relay:
        LCALL   ?BDISPATCH
        DATA
        DC24    afIncomingData

        RSEG BANK_RELAYS:CODE:REORDER:NOROOT(0)
??afBuildMSGIncoming?relay:
        LCALL   ?BDISPATCH
        DATA
        DC24    afBuildMSGIncoming

        RSEG BANK_RELAYS:CODE:REORDER:NOROOT(0)
??AF_DataRequest?relay:
        LCALL   ?BDISPATCH
        DATA
        DC24    AF_DataRequest

        RSEG BANK_RELAYS:CODE:REORDER:NOROOT(0)
??afFindEndPointDescList?relay:
        LCALL   ?BDISPATCH
        DATA
        DC24    afFindEndPointDescList

        RSEG BANK_RELAYS:CODE:REORDER:NOROOT(0)
??afFindEndPointDesc?relay:
        LCALL   ?BDISPATCH
        DATA
        DC24    afFindEndPointDesc

        RSEG BANK_RELAYS:CODE:REORDER:NOROOT(0)
??afFindSimpleDesc?relay:
        LCALL   ?BDISPATCH
        DATA
        DC24    afFindSimpleDesc

        RSEG BANK_RELAYS:CODE:REORDER:NOROOT(0)
??afDataReqMTU?relay:
        LCALL   ?BDISPATCH
        DATA
        DC24    afDataReqMTU

        RSEG BANK_RELAYS:CODE:REORDER:NOROOT(0)
??afGetMatch?relay:
        LCALL   ?BDISPATCH
        DATA
        DC24    afGetMatch

        RSEG BANK_RELAYS:CODE:REORDER:NOROOT(0)
??afSetMatch?relay:
        LCALL   ?BDISPATCH
        DATA
        DC24    afSetMatch

        RSEG BANK_RELAYS:CODE:REORDER:NOROOT(0)
??afNumEndPoints?relay:
        LCALL   ?BDISPATCH
        DATA
        DC24    afNumEndPoints

        RSEG BANK_RELAYS:CODE:REORDER:NOROOT(0)
??afEndPoints?relay:
        LCALL   ?BDISPATCH
        DATA
        DC24    afEndPoints

        RSEG BANK_RELAYS:CODE:REORDER:NOROOT(0)
??afCopyAddress?relay:
        LCALL   ?BDISPATCH
        DATA
        DC24    afCopyAddress

        END
//  973 
//  974 /*********************************************************************
//  975 *********************************************************************/
//  976 
// 
// 2 385 bytes in segment BANKED_CODE
//    96 bytes in segment BANK_RELAYS
//     1 byte  in segment XDATA_I
//     1 byte  in segment XDATA_ID
//     2 bytes in segment XDATA_Z
// 
// 2 482 bytes of CODE  memory
//     3 bytes of XDATA memory
//
//Errors: none
//Warnings: none
